	.file	"cache.cpp"
	.text
	.section	.text$_ZnwjPv,"x"
	.linkonce discard
	.globl	__ZnwjPv
	.def	__ZnwjPv;	.scl	2;	.type	32;	.endef
__ZnwjPv:
LFB277:
	.cfi_startproc
	pushl	%ebp
	.cfi_def_cfa_offset 8
	.cfi_offset 5, -8
	movl	%esp, %ebp
	.cfi_def_cfa_register 5
	movl	12(%ebp), %eax
	popl	%ebp
	.cfi_restore 5
	.cfi_def_cfa 4, 4
	ret
	.cfi_endproc
LFE277:
	.section	.text$_ZdlPvS_,"x"
	.linkonce discard
	.globl	__ZdlPvS_
	.def	__ZdlPvS_;	.scl	2;	.type	32;	.endef
__ZdlPvS_:
LFB279:
	.cfi_startproc
	pushl	%ebp
	.cfi_def_cfa_offset 8
	.cfi_offset 5, -8
	movl	%esp, %ebp
	.cfi_def_cfa_register 5
	nop
	popl	%ebp
	.cfi_restore 5
	.cfi_def_cfa 4, 4
	ret
	.cfi_endproc
LFE279:
	.section .rdata,"dr"
__ZStL19piecewise_construct:
	.space 1
LC0:
	.ascii "stoi\0"
	.section	.text$_ZNSt7__cxx114stoiERKNS_12basic_stringIcSt11char_traitsIcESaIcEEEPji,"x"
	.linkonce discard
	.globl	__ZNSt7__cxx114stoiERKNS_12basic_stringIcSt11char_traitsIcESaIcEEEPji
	.def	__ZNSt7__cxx114stoiERKNS_12basic_stringIcSt11char_traitsIcESaIcEEEPji;	.scl	2;	.type	32;	.endef
__ZNSt7__cxx114stoiERKNS_12basic_stringIcSt11char_traitsIcESaIcEEEPji:
LFB1124:
	.cfi_startproc
	pushl	%ebp
	.cfi_def_cfa_offset 8
	.cfi_offset 5, -8
	movl	%esp, %ebp
	.cfi_def_cfa_register 5
	subl	$40, %esp
	movl	8(%ebp), %ecx
	call	__ZNKSt7__cxx1112basic_stringIcSt11char_traitsIcESaIcEE5c_strEv
	movl	16(%ebp), %edx
	movl	%edx, 16(%esp)
	movl	12(%ebp), %edx
	movl	%edx, 12(%esp)
	movl	%eax, 8(%esp)
	movl	$LC0, 4(%esp)
	movl	$_strtol, (%esp)
	call	__ZN9__gnu_cxx6__stoaIlicJiEEET0_PFT_PKT1_PPS3_DpT2_EPKcS5_PjS9_
	leave
	.cfi_restore 5
	.cfi_def_cfa 4, 4
	ret
	.cfi_endproc
LFE1124:
	.section	.text$_ZNKSt4hashIiEclEi,"x"
	.linkonce discard
	.align 2
	.globl	__ZNKSt4hashIiEclEi
	.def	__ZNKSt4hashIiEclEi;	.scl	2;	.type	32;	.endef
__ZNKSt4hashIiEclEi:
LFB1159:
	.cfi_startproc
	pushl	%ebp
	.cfi_def_cfa_offset 8
	.cfi_offset 5, -8
	movl	%esp, %ebp
	.cfi_def_cfa_register 5
	subl	$4, %esp
	movl	%ecx, -4(%ebp)
	movl	8(%ebp), %eax
	leave
	.cfi_restore 5
	.cfi_def_cfa 4, 4
	ret	$4
	.cfi_endproc
LFE1159:
	.section	.text$_ZStanSt13_Ios_FmtflagsS_,"x"
	.linkonce discard
	.globl	__ZStanSt13_Ios_FmtflagsS_
	.def	__ZStanSt13_Ios_FmtflagsS_;	.scl	2;	.type	32;	.endef
__ZStanSt13_Ios_FmtflagsS_:
LFB1319:
	.cfi_startproc
	pushl	%ebp
	.cfi_def_cfa_offset 8
	.cfi_offset 5, -8
	movl	%esp, %ebp
	.cfi_def_cfa_register 5
	movl	8(%ebp), %eax
	andl	12(%ebp), %eax
	popl	%ebp
	.cfi_restore 5
	.cfi_def_cfa 4, 4
	ret
	.cfi_endproc
LFE1319:
	.section	.text$_ZStorSt13_Ios_FmtflagsS_,"x"
	.linkonce discard
	.globl	__ZStorSt13_Ios_FmtflagsS_
	.def	__ZStorSt13_Ios_FmtflagsS_;	.scl	2;	.type	32;	.endef
__ZStorSt13_Ios_FmtflagsS_:
LFB1320:
	.cfi_startproc
	pushl	%ebp
	.cfi_def_cfa_offset 8
	.cfi_offset 5, -8
	movl	%esp, %ebp
	.cfi_def_cfa_register 5
	movl	8(%ebp), %eax
	orl	12(%ebp), %eax
	popl	%ebp
	.cfi_restore 5
	.cfi_def_cfa 4, 4
	ret
	.cfi_endproc
LFE1320:
	.section	.text$_ZStcoSt13_Ios_Fmtflags,"x"
	.linkonce discard
	.globl	__ZStcoSt13_Ios_Fmtflags
	.def	__ZStcoSt13_Ios_Fmtflags;	.scl	2;	.type	32;	.endef
__ZStcoSt13_Ios_Fmtflags:
LFB1322:
	.cfi_startproc
	pushl	%ebp
	.cfi_def_cfa_offset 8
	.cfi_offset 5, -8
	movl	%esp, %ebp
	.cfi_def_cfa_register 5
	movl	8(%ebp), %eax
	notl	%eax
	popl	%ebp
	.cfi_restore 5
	.cfi_def_cfa 4, 4
	ret
	.cfi_endproc
LFE1322:
	.section	.text$_ZStoRRSt13_Ios_FmtflagsS_,"x"
	.linkonce discard
	.globl	__ZStoRRSt13_Ios_FmtflagsS_
	.def	__ZStoRRSt13_Ios_FmtflagsS_;	.scl	2;	.type	32;	.endef
__ZStoRRSt13_Ios_FmtflagsS_:
LFB1323:
	.cfi_startproc
	pushl	%ebp
	.cfi_def_cfa_offset 8
	.cfi_offset 5, -8
	movl	%esp, %ebp
	.cfi_def_cfa_register 5
	subl	$24, %esp
	movl	8(%ebp), %eax
	movl	(%eax), %eax
	movl	12(%ebp), %edx
	movl	%edx, 4(%esp)
	movl	%eax, (%esp)
	call	__ZStorSt13_Ios_FmtflagsS_
	movl	8(%ebp), %edx
	movl	%eax, (%edx)
	movl	8(%ebp), %eax
	leave
	.cfi_restore 5
	.cfi_def_cfa 4, 4
	ret
	.cfi_endproc
LFE1323:
	.section	.text$_ZStaNRSt13_Ios_FmtflagsS_,"x"
	.linkonce discard
	.globl	__ZStaNRSt13_Ios_FmtflagsS_
	.def	__ZStaNRSt13_Ios_FmtflagsS_;	.scl	2;	.type	32;	.endef
__ZStaNRSt13_Ios_FmtflagsS_:
LFB1324:
	.cfi_startproc
	pushl	%ebp
	.cfi_def_cfa_offset 8
	.cfi_offset 5, -8
	movl	%esp, %ebp
	.cfi_def_cfa_register 5
	subl	$24, %esp
	movl	8(%ebp), %eax
	movl	(%eax), %eax
	movl	12(%ebp), %edx
	movl	%edx, 4(%esp)
	movl	%eax, (%esp)
	call	__ZStanSt13_Ios_FmtflagsS_
	movl	8(%ebp), %edx
	movl	%eax, (%edx)
	movl	8(%ebp), %eax
	leave
	.cfi_restore 5
	.cfi_def_cfa 4, 4
	ret
	.cfi_endproc
LFE1324:
	.section	.text$_ZNSt8ios_base4setfESt13_Ios_FmtflagsS0_,"x"
	.linkonce discard
	.align 2
	.globl	__ZNSt8ios_base4setfESt13_Ios_FmtflagsS0_
	.def	__ZNSt8ios_base4setfESt13_Ios_FmtflagsS0_;	.scl	2;	.type	32;	.endef
__ZNSt8ios_base4setfESt13_Ios_FmtflagsS0_:
LFB1353:
	.cfi_startproc
	pushl	%ebp
	.cfi_def_cfa_offset 8
	.cfi_offset 5, -8
	movl	%esp, %ebp
	.cfi_def_cfa_register 5
	subl	$56, %esp
	movl	%ecx, -28(%ebp)
	movl	-28(%ebp), %eax
	movl	12(%eax), %eax
	movl	%eax, -12(%ebp)
	movl	12(%ebp), %eax
	movl	%eax, (%esp)
	call	__ZStcoSt13_Ios_Fmtflags
	movl	-28(%ebp), %edx
	addl	$12, %edx
	movl	%eax, 4(%esp)
	movl	%edx, (%esp)
	call	__ZStaNRSt13_Ios_FmtflagsS_
	movl	12(%ebp), %eax
	movl	%eax, 4(%esp)
	movl	8(%ebp), %eax
	movl	%eax, (%esp)
	call	__ZStanSt13_Ios_FmtflagsS_
	movl	-28(%ebp), %edx
	addl	$12, %edx
	movl	%eax, 4(%esp)
	movl	%edx, (%esp)
	call	__ZStoRRSt13_Ios_FmtflagsS_
	movl	-12(%ebp), %eax
	leave
	.cfi_restore 5
	.cfi_def_cfa 4, 4
	ret	$8
	.cfi_endproc
LFE1353:
	.section	.text$_ZSt3hexRSt8ios_base,"x"
	.linkonce discard
	.globl	__ZSt3hexRSt8ios_base
	.def	__ZSt3hexRSt8ios_base;	.scl	2;	.type	32;	.endef
__ZSt3hexRSt8ios_base:
LFB1381:
	.cfi_startproc
	pushl	%ebp
	.cfi_def_cfa_offset 8
	.cfi_offset 5, -8
	movl	%esp, %ebp
	.cfi_def_cfa_register 5
	subl	$24, %esp
	movl	$74, 4(%esp)
	movl	$8, (%esp)
	movl	8(%ebp), %ecx
	call	__ZNSt8ios_base4setfESt13_Ios_FmtflagsS0_
	subl	$8, %esp
	movl	8(%ebp), %eax
	leave
	.cfi_restore 5
	.cfi_def_cfa 4, 4
	ret
	.cfi_endproc
LFE1381:
.lcomm __ZStL8__ioinit,1,1
	.section	.text$_ZNSt8__detail17_List_node_headerC1Ev,"x"
	.linkonce discard
	.align 2
	.globl	__ZNSt8__detail17_List_node_headerC1Ev
	.def	__ZNSt8__detail17_List_node_headerC1Ev;	.scl	2;	.type	32;	.endef
__ZNSt8__detail17_List_node_headerC1Ev:
LFB2597:
	.cfi_startproc
	pushl	%ebp
	.cfi_def_cfa_offset 8
	.cfi_offset 5, -8
	movl	%esp, %ebp
	.cfi_def_cfa_register 5
	subl	$24, %esp
	movl	%ecx, -12(%ebp)
	movl	-12(%ebp), %eax
	movl	%eax, %ecx
	call	__ZNSt8__detail17_List_node_header7_M_initEv
	nop
	leave
	.cfi_restore 5
	.cfi_def_cfa 4, 4
	ret
	.cfi_endproc
LFE2597:
	.section	.text$_ZNSt8__detail17_List_node_header7_M_initEv,"x"
	.linkonce discard
	.align 2
	.globl	__ZNSt8__detail17_List_node_header7_M_initEv
	.def	__ZNSt8__detail17_List_node_header7_M_initEv;	.scl	2;	.type	32;	.endef
__ZNSt8__detail17_List_node_header7_M_initEv:
LFB2602:
	.cfi_startproc
	pushl	%ebp
	.cfi_def_cfa_offset 8
	.cfi_offset 5, -8
	movl	%esp, %ebp
	.cfi_def_cfa_register 5
	subl	$4, %esp
	movl	%ecx, -4(%ebp)
	movl	-4(%ebp), %edx
	movl	-4(%ebp), %eax
	movl	%edx, 4(%eax)
	movl	-4(%ebp), %eax
	movl	4(%eax), %edx
	movl	-4(%ebp), %eax
	movl	%edx, (%eax)
	movl	-4(%ebp), %eax
	movl	$0, 8(%eax)
	nop
	leave
	.cfi_restore 5
	.cfi_def_cfa 4, 4
	ret
	.cfi_endproc
LFE2602:
	.section .rdata,"dr"
__ZStL13allocator_arg:
	.space 1
__ZStL6ignore:
	.space 1
	.section	.text$_ZNSt8__detail15_Hash_node_baseC2Ev,"x"
	.linkonce discard
	.align 2
	.globl	__ZNSt8__detail15_Hash_node_baseC2Ev
	.def	__ZNSt8__detail15_Hash_node_baseC2Ev;	.scl	2;	.type	32;	.endef
__ZNSt8__detail15_Hash_node_baseC2Ev:
LFB3119:
	.cfi_startproc
	pushl	%ebp
	.cfi_def_cfa_offset 8
	.cfi_offset 5, -8
	movl	%esp, %ebp
	.cfi_def_cfa_register 5
	subl	$4, %esp
	movl	%ecx, -4(%ebp)
	movl	-4(%ebp), %eax
	movl	$0, (%eax)
	nop
	leave
	.cfi_restore 5
	.cfi_def_cfa 4, 4
	ret
	.cfi_endproc
LFE3119:
	.section	.text$_ZNSt8__detail15_Hash_node_baseC1Ev,"x"
	.linkonce discard
	.align 2
	.globl	__ZNSt8__detail15_Hash_node_baseC1Ev
	.def	__ZNSt8__detail15_Hash_node_baseC1Ev;	.scl	2;	.type	32;	.endef
__ZNSt8__detail15_Hash_node_baseC1Ev:
LFB3120:
	.cfi_startproc
	pushl	%ebp
	.cfi_def_cfa_offset 8
	.cfi_offset 5, -8
	movl	%esp, %ebp
	.cfi_def_cfa_register 5
	subl	$4, %esp
	movl	%ecx, -4(%ebp)
	movl	-4(%ebp), %eax
	movl	$0, (%eax)
	nop
	leave
	.cfi_restore 5
	.cfi_def_cfa 4, 4
	ret
	.cfi_endproc
LFE3120:
	.section	.text$_ZNKSt8__detail18_Mod_range_hashingclEjj,"x"
	.linkonce discard
	.align 2
	.globl	__ZNKSt8__detail18_Mod_range_hashingclEjj
	.def	__ZNKSt8__detail18_Mod_range_hashingclEjj;	.scl	2;	.type	32;	.endef
__ZNKSt8__detail18_Mod_range_hashingclEjj:
LFB3147:
	.cfi_startproc
	pushl	%ebp
	.cfi_def_cfa_offset 8
	.cfi_offset 5, -8
	movl	%esp, %ebp
	.cfi_def_cfa_register 5
	subl	$4, %esp
	movl	%ecx, -4(%ebp)
	movl	8(%ebp), %eax
	movl	$0, %edx
	divl	12(%ebp)
	movl	%edx, %eax
	leave
	.cfi_restore 5
	.cfi_def_cfa 4, 4
	ret	$8
	.cfi_endproc
LFE3147:
	.section	.text$_ZNSt8__detail20_Prime_rehash_policyC1Ef,"x"
	.linkonce discard
	.align 2
	.globl	__ZNSt8__detail20_Prime_rehash_policyC1Ef
	.def	__ZNSt8__detail20_Prime_rehash_policyC1Ef;	.scl	2;	.type	32;	.endef
__ZNSt8__detail20_Prime_rehash_policyC1Ef:
LFB3150:
	.cfi_startproc
	pushl	%ebp
	.cfi_def_cfa_offset 8
	.cfi_offset 5, -8
	movl	%esp, %ebp
	.cfi_def_cfa_register 5
	subl	$4, %esp
	movl	%ecx, -4(%ebp)
	movl	-4(%ebp), %eax
	flds	8(%ebp)
	fstps	(%eax)
	movl	-4(%ebp), %eax
	movl	$0, 4(%eax)
	nop
	leave
	.cfi_restore 5
	.cfi_def_cfa 4, 4
	ret	$4
	.cfi_endproc
LFE3150:
	.section	.text$_ZNKSt8__detail20_Prime_rehash_policy8_M_stateEv,"x"
	.linkonce discard
	.align 2
	.globl	__ZNKSt8__detail20_Prime_rehash_policy8_M_stateEv
	.def	__ZNKSt8__detail20_Prime_rehash_policy8_M_stateEv;	.scl	2;	.type	32;	.endef
__ZNKSt8__detail20_Prime_rehash_policy8_M_stateEv:
LFB3153:
	.cfi_startproc
	pushl	%ebp
	.cfi_def_cfa_offset 8
	.cfi_offset 5, -8
	movl	%esp, %ebp
	.cfi_def_cfa_register 5
	subl	$4, %esp
	movl	%ecx, -4(%ebp)
	movl	-4(%ebp), %eax
	movl	4(%eax), %eax
	leave
	.cfi_restore 5
	.cfi_def_cfa 4, 4
	ret
	.cfi_endproc
LFE3153:
	.section	.text$_ZNSt8__detail20_Prime_rehash_policy8_M_resetEj,"x"
	.linkonce discard
	.align 2
	.globl	__ZNSt8__detail20_Prime_rehash_policy8_M_resetEj
	.def	__ZNSt8__detail20_Prime_rehash_policy8_M_resetEj;	.scl	2;	.type	32;	.endef
__ZNSt8__detail20_Prime_rehash_policy8_M_resetEj:
LFB3155:
	.cfi_startproc
	pushl	%ebp
	.cfi_def_cfa_offset 8
	.cfi_offset 5, -8
	movl	%esp, %ebp
	.cfi_def_cfa_register 5
	subl	$4, %esp
	movl	%ecx, -4(%ebp)
	movl	-4(%ebp), %eax
	movl	8(%ebp), %edx
	movl	%edx, 4(%eax)
	nop
	leave
	.cfi_restore 5
	.cfi_def_cfa 4, 4
	ret	$4
	.cfi_endproc
LFE3155:
	.section	.text$_ZSt3minIjERKT_S2_S2_,"x"
	.linkonce discard
	.globl	__ZSt3minIjERKT_S2_S2_
	.def	__ZSt3minIjERKT_S2_S2_;	.scl	2;	.type	32;	.endef
__ZSt3minIjERKT_S2_S2_:
LFB3163:
	.cfi_startproc
	pushl	%ebp
	.cfi_def_cfa_offset 8
	.cfi_offset 5, -8
	movl	%esp, %ebp
	.cfi_def_cfa_register 5
	movl	12(%ebp), %eax
	movl	(%eax), %edx
	movl	8(%ebp), %eax
	movl	(%eax), %eax
	cmpl	%eax, %edx
	jnb	L33
	movl	12(%ebp), %eax
	jmp	L34
L33:
	movl	8(%ebp), %eax
L34:
	popl	%ebp
	.cfi_restore 5
	.cfi_def_cfa 4, 4
	ret
	.cfi_endproc
LFE3163:
	.section	.text$_ZN5blockC1Ey,"x"
	.linkonce discard
	.align 2
	.globl	__ZN5blockC1Ey
	.def	__ZN5blockC1Ey;	.scl	2;	.type	32;	.endef
__ZN5blockC1Ey:
LFB3521:
	.cfi_startproc
	pushl	%ebp
	.cfi_def_cfa_offset 8
	.cfi_offset 5, -8
	movl	%esp, %ebp
	.cfi_def_cfa_register 5
	subl	$16, %esp
	movl	%ecx, -4(%ebp)
	movl	8(%ebp), %eax
	movl	%eax, -16(%ebp)
	movl	12(%ebp), %eax
	movl	%eax, -12(%ebp)
	movl	-4(%ebp), %eax
	movb	$0, (%eax)
	movl	-4(%ebp), %ecx
	movl	-16(%ebp), %eax
	movl	-12(%ebp), %edx
	movl	%eax, 8(%ecx)
	movl	%edx, 12(%ecx)
	nop
	leave
	.cfi_restore 5
	.cfi_def_cfa 4, 4
	ret	$8
	.cfi_endproc
LFE3521:
	.section	.text$_ZN5blockD1Ev,"x"
	.linkonce discard
	.align 2
	.globl	__ZN5blockD1Ev
	.def	__ZN5blockD1Ev;	.scl	2;	.type	32;	.endef
__ZN5blockD1Ev:
LFB3524:
	.cfi_startproc
	pushl	%ebp
	.cfi_def_cfa_offset 8
	.cfi_offset 5, -8
	movl	%esp, %ebp
	.cfi_def_cfa_register 5
	subl	$4, %esp
	movl	%ecx, -4(%ebp)
	nop
	leave
	.cfi_restore 5
	.cfi_def_cfa 4, 4
	ret
	.cfi_endproc
LFE3524:
	.section	.text$_ZNSt8__detail21_Hashtable_ebo_helperILi0ESaINS_10_Hash_nodeISt4pairIKiiELb0EEEELb1EEC2Ev,"x"
	.linkonce discard
	.align 2
	.globl	__ZNSt8__detail21_Hashtable_ebo_helperILi0ESaINS_10_Hash_nodeISt4pairIKiiELb0EEEELb1EEC2Ev
	.def	__ZNSt8__detail21_Hashtable_ebo_helperILi0ESaINS_10_Hash_nodeISt4pairIKiiELb0EEEELb1EEC2Ev;	.scl	2;	.type	32;	.endef
__ZNSt8__detail21_Hashtable_ebo_helperILi0ESaINS_10_Hash_nodeISt4pairIKiiELb0EEEELb1EEC2Ev:
LFB3531:
	.cfi_startproc
	pushl	%ebp
	.cfi_def_cfa_offset 8
	.cfi_offset 5, -8
	movl	%esp, %ebp
	.cfi_def_cfa_register 5
	subl	$24, %esp
	movl	%ecx, -12(%ebp)
	movl	-12(%ebp), %eax
	movl	%eax, %ecx
	call	__ZNSaINSt8__detail10_Hash_nodeISt4pairIKiiELb0EEEEC2Ev
	nop
	leave
	.cfi_restore 5
	.cfi_def_cfa 4, 4
	ret
	.cfi_endproc
LFE3531:
	.section	.text$_ZNSt8__detail21_Hashtable_ebo_helperILi0ESaINS_10_Hash_nodeISt4pairIKiiELb0EEEELb1EED2Ev,"x"
	.linkonce discard
	.align 2
	.globl	__ZNSt8__detail21_Hashtable_ebo_helperILi0ESaINS_10_Hash_nodeISt4pairIKiiELb0EEEELb1EED2Ev
	.def	__ZNSt8__detail21_Hashtable_ebo_helperILi0ESaINS_10_Hash_nodeISt4pairIKiiELb0EEEELb1EED2Ev;	.scl	2;	.type	32;	.endef
__ZNSt8__detail21_Hashtable_ebo_helperILi0ESaINS_10_Hash_nodeISt4pairIKiiELb0EEEELb1EED2Ev:
LFB3534:
	.cfi_startproc
	pushl	%ebp
	.cfi_def_cfa_offset 8
	.cfi_offset 5, -8
	movl	%esp, %ebp
	.cfi_def_cfa_register 5
	subl	$24, %esp
	movl	%ecx, -12(%ebp)
	movl	-12(%ebp), %eax
	movl	%eax, %ecx
	call	__ZNSaINSt8__detail10_Hash_nodeISt4pairIKiiELb0EEEED2Ev
	nop
	leave
	.cfi_restore 5
	.cfi_def_cfa 4, 4
	ret
	.cfi_endproc
LFE3534:
	.section	.text$_ZNSt8__detail16_Hashtable_allocISaINS_10_Hash_nodeISt4pairIKiiELb0EEEEEC2Ev,"x"
	.linkonce discard
	.align 2
	.globl	__ZNSt8__detail16_Hashtable_allocISaINS_10_Hash_nodeISt4pairIKiiELb0EEEEEC2Ev
	.def	__ZNSt8__detail16_Hashtable_allocISaINS_10_Hash_nodeISt4pairIKiiELb0EEEEEC2Ev;	.scl	2;	.type	32;	.endef
__ZNSt8__detail16_Hashtable_allocISaINS_10_Hash_nodeISt4pairIKiiELb0EEEEEC2Ev:
LFB3536:
	.cfi_startproc
	pushl	%ebp
	.cfi_def_cfa_offset 8
	.cfi_offset 5, -8
	movl	%esp, %ebp
	.cfi_def_cfa_register 5
	subl	$24, %esp
	movl	%ecx, -12(%ebp)
	movl	-12(%ebp), %eax
	movl	%eax, %ecx
	call	__ZNSt8__detail21_Hashtable_ebo_helperILi0ESaINS_10_Hash_nodeISt4pairIKiiELb0EEEELb1EEC2Ev
	nop
	leave
	.cfi_restore 5
	.cfi_def_cfa 4, 4
	ret
	.cfi_endproc
LFE3536:
	.section	.text$_ZNSt8__detail16_Hashtable_allocISaINS_10_Hash_nodeISt4pairIKiiELb0EEEEED2Ev,"x"
	.linkonce discard
	.align 2
	.globl	__ZNSt8__detail16_Hashtable_allocISaINS_10_Hash_nodeISt4pairIKiiELb0EEEEED2Ev
	.def	__ZNSt8__detail16_Hashtable_allocISaINS_10_Hash_nodeISt4pairIKiiELb0EEEEED2Ev;	.scl	2;	.type	32;	.endef
__ZNSt8__detail16_Hashtable_allocISaINS_10_Hash_nodeISt4pairIKiiELb0EEEEED2Ev:
LFB3539:
	.cfi_startproc
	pushl	%ebp
	.cfi_def_cfa_offset 8
	.cfi_offset 5, -8
	movl	%esp, %ebp
	.cfi_def_cfa_register 5
	subl	$24, %esp
	movl	%ecx, -12(%ebp)
	movl	-12(%ebp), %eax
	movl	%eax, %ecx
	call	__ZNSt8__detail21_Hashtable_ebo_helperILi0ESaINS_10_Hash_nodeISt4pairIKiiELb0EEEELb1EED2Ev
	nop
	leave
	.cfi_restore 5
	.cfi_def_cfa 4, 4
	ret
	.cfi_endproc
LFE3539:
	.section	.text$_ZNSt10_HashtableIiSt4pairIKiiESaIS2_ENSt8__detail10_Select1stESt8equal_toIiESt4hashIiENS4_18_Mod_range_hashingENS4_20_Default_ranged_hashENS4_20_Prime_rehash_policyENS4_17_Hashtable_traitsILb0ELb0ELb1EEEEC1Ev,"x"
	.linkonce discard
	.align 2
	.globl	__ZNSt10_HashtableIiSt4pairIKiiESaIS2_ENSt8__detail10_Select1stESt8equal_toIiESt4hashIiENS4_18_Mod_range_hashingENS4_20_Default_ranged_hashENS4_20_Prime_rehash_policyENS4_17_Hashtable_traitsILb0ELb0ELb1EEEEC1Ev
	.def	__ZNSt10_HashtableIiSt4pairIKiiESaIS2_ENSt8__detail10_Select1stESt8equal_toIiESt4hashIiENS4_18_Mod_range_hashingENS4_20_Default_ranged_hashENS4_20_Prime_rehash_policyENS4_17_Hashtable_traitsILb0ELb0ELb1EEEEC1Ev;	.scl	2;	.type	32;	.endef
__ZNSt10_HashtableIiSt4pairIKiiESaIS2_ENSt8__detail10_Select1stESt8equal_toIiESt4hashIiENS4_18_Mod_range_hashingENS4_20_Default_ranged_hashENS4_20_Prime_rehash_policyENS4_17_Hashtable_traitsILb0ELb0ELb1EEEEC1Ev:
LFB3542:
	.cfi_startproc
	pushl	%ebp
	.cfi_def_cfa_offset 8
	.cfi_offset 5, -8
	movl	%esp, %ebp
	.cfi_def_cfa_register 5
	subl	$40, %esp
	movl	%ecx, -12(%ebp)
	movl	-12(%ebp), %eax
	movl	%eax, %ecx
	call	__ZNSt8__detail16_Hashtable_allocISaINS_10_Hash_nodeISt4pairIKiiELb0EEEEEC2Ev
	movl	-12(%ebp), %eax
	leal	24(%eax), %edx
	movl	-12(%ebp), %eax
	movl	%edx, (%eax)
	movl	-12(%ebp), %eax
	movl	$1, 4(%eax)
	movl	-12(%ebp), %eax
	addl	$8, %eax
	movl	%eax, %ecx
	call	__ZNSt8__detail15_Hash_node_baseC1Ev
	movl	-12(%ebp), %eax
	movl	$0, 12(%eax)
	movl	-12(%ebp), %eax
	addl	$16, %eax
	fld1
	fstps	(%esp)
	movl	%eax, %ecx
	call	__ZNSt8__detail20_Prime_rehash_policyC1Ef
	subl	$4, %esp
	movl	-12(%ebp), %eax
	movl	$0, 24(%eax)
	nop
	leave
	.cfi_restore 5
	.cfi_def_cfa 4, 4
	ret
	.cfi_endproc
LFE3542:
	.section	.text$_ZNSt13unordered_mapIiiSt4hashIiESt8equal_toIiESaISt4pairIKiiEEEC1Ev,"x"
	.linkonce discard
	.align 2
	.globl	__ZNSt13unordered_mapIiiSt4hashIiESt8equal_toIiESaISt4pairIKiiEEEC1Ev
	.def	__ZNSt13unordered_mapIiiSt4hashIiESt8equal_toIiESaISt4pairIKiiEEEC1Ev;	.scl	2;	.type	32;	.endef
__ZNSt13unordered_mapIiiSt4hashIiESt8equal_toIiESaISt4pairIKiiEEEC1Ev:
LFB3544:
	.cfi_startproc
	pushl	%ebp
	.cfi_def_cfa_offset 8
	.cfi_offset 5, -8
	movl	%esp, %ebp
	.cfi_def_cfa_register 5
	subl	$24, %esp
	movl	%ecx, -12(%ebp)
	movl	-12(%ebp), %eax
	movl	%eax, %ecx
	call	__ZNSt10_HashtableIiSt4pairIKiiESaIS2_ENSt8__detail10_Select1stESt8equal_toIiESt4hashIiENS4_18_Mod_range_hashingENS4_20_Default_ranged_hashENS4_20_Prime_rehash_policyENS4_17_Hashtable_traitsILb0ELb0ELb1EEEEC1Ev
	nop
	leave
	.cfi_restore 5
	.cfi_def_cfa 4, 4
	ret
	.cfi_endproc
LFE3544:
	.section	.text$_ZNSt13unordered_mapIiiSt4hashIiESt8equal_toIiESaISt4pairIKiiEEED1Ev,"x"
	.linkonce discard
	.align 2
	.globl	__ZNSt13unordered_mapIiiSt4hashIiESt8equal_toIiESaISt4pairIKiiEEED1Ev
	.def	__ZNSt13unordered_mapIiiSt4hashIiESt8equal_toIiESaISt4pairIKiiEEED1Ev;	.scl	2;	.type	32;	.endef
__ZNSt13unordered_mapIiiSt4hashIiESt8equal_toIiESaISt4pairIKiiEEED1Ev:
LFB3547:
	.cfi_startproc
	pushl	%ebp
	.cfi_def_cfa_offset 8
	.cfi_offset 5, -8
	movl	%esp, %ebp
	.cfi_def_cfa_register 5
	subl	$24, %esp
	movl	%ecx, -12(%ebp)
	movl	-12(%ebp), %eax
	movl	%eax, %ecx
	call	__ZNSt10_HashtableIiSt4pairIKiiESaIS2_ENSt8__detail10_Select1stESt8equal_toIiESt4hashIiENS4_18_Mod_range_hashingENS4_20_Default_ranged_hashENS4_20_Prime_rehash_policyENS4_17_Hashtable_traitsILb0ELb0ELb1EEEED1Ev
	nop
	leave
	.cfi_restore 5
	.cfi_def_cfa 4, 4
	ret
	.cfi_endproc
LFE3547:
	.section	.text$_ZNSt7__cxx1110_List_baseIiSaIiEE10_List_implD1Ev,"x"
	.linkonce discard
	.align 2
	.globl	__ZNSt7__cxx1110_List_baseIiSaIiEE10_List_implD1Ev
	.def	__ZNSt7__cxx1110_List_baseIiSaIiEE10_List_implD1Ev;	.scl	2;	.type	32;	.endef
__ZNSt7__cxx1110_List_baseIiSaIiEE10_List_implD1Ev:
LFB3552:
	.cfi_startproc
	pushl	%ebp
	.cfi_def_cfa_offset 8
	.cfi_offset 5, -8
	movl	%esp, %ebp
	.cfi_def_cfa_register 5
	subl	$24, %esp
	movl	%ecx, -12(%ebp)
	movl	-12(%ebp), %eax
	movl	%eax, %ecx
	call	__ZNSaISt10_List_nodeIiEED2Ev
	nop
	leave
	.cfi_restore 5
	.cfi_def_cfa 4, 4
	ret
	.cfi_endproc
LFE3552:
	.section	.text$_ZNSt7__cxx1110_List_baseIiSaIiEEC2Ev,"x"
	.linkonce discard
	.align 2
	.globl	__ZNSt7__cxx1110_List_baseIiSaIiEEC2Ev
	.def	__ZNSt7__cxx1110_List_baseIiSaIiEEC2Ev;	.scl	2;	.type	32;	.endef
__ZNSt7__cxx1110_List_baseIiSaIiEEC2Ev:
LFB3553:
	.cfi_startproc
	pushl	%ebp
	.cfi_def_cfa_offset 8
	.cfi_offset 5, -8
	movl	%esp, %ebp
	.cfi_def_cfa_register 5
	subl	$24, %esp
	movl	%ecx, -12(%ebp)
	movl	-12(%ebp), %eax
	movl	%eax, %ecx
	call	__ZNSt7__cxx1110_List_baseIiSaIiEE10_List_implC1Ev
	nop
	leave
	.cfi_restore 5
	.cfi_def_cfa 4, 4
	ret
	.cfi_endproc
LFE3553:
	.section	.text$_ZNSt7__cxx114listIiSaIiEEC1Ev,"x"
	.linkonce discard
	.align 2
	.globl	__ZNSt7__cxx114listIiSaIiEEC1Ev
	.def	__ZNSt7__cxx114listIiSaIiEEC1Ev;	.scl	2;	.type	32;	.endef
__ZNSt7__cxx114listIiSaIiEEC1Ev:
LFB3556:
	.cfi_startproc
	pushl	%ebp
	.cfi_def_cfa_offset 8
	.cfi_offset 5, -8
	movl	%esp, %ebp
	.cfi_def_cfa_register 5
	subl	$24, %esp
	movl	%ecx, -12(%ebp)
	movl	-12(%ebp), %eax
	movl	%eax, %ecx
	call	__ZNSt7__cxx1110_List_baseIiSaIiEEC2Ev
	nop
	leave
	.cfi_restore 5
	.cfi_def_cfa 4, 4
	ret
	.cfi_endproc
LFE3556:
	.section	.text$_ZNSt7__cxx114listIiSaIiEED1Ev,"x"
	.linkonce discard
	.align 2
	.globl	__ZNSt7__cxx114listIiSaIiEED1Ev
	.def	__ZNSt7__cxx114listIiSaIiEED1Ev;	.scl	2;	.type	32;	.endef
__ZNSt7__cxx114listIiSaIiEED1Ev:
LFB3559:
	.cfi_startproc
	pushl	%ebp
	.cfi_def_cfa_offset 8
	.cfi_offset 5, -8
	movl	%esp, %ebp
	.cfi_def_cfa_register 5
	subl	$24, %esp
	movl	%ecx, -12(%ebp)
	movl	-12(%ebp), %eax
	movl	%eax, %ecx
	call	__ZNSt7__cxx1110_List_baseIiSaIiEED2Ev
	nop
	leave
	.cfi_restore 5
	.cfi_def_cfa 4, 4
	ret
	.cfi_endproc
LFE3559:
	.section	.text$_ZN9cache_setC1Eii,"x"
	.linkonce discard
	.align 2
	.globl	__ZN9cache_setC1Eii
	.def	__ZN9cache_setC1Eii;	.scl	2;	.type	32;	.endef
__ZN9cache_setC1Eii:
LFB3561:
	.cfi_startproc
	.cfi_personality 0,___gxx_personality_v0
	.cfi_lsda 0,LLSDA3561
	pushl	%ebp
	.cfi_def_cfa_offset 8
	.cfi_offset 5, -8
	movl	%esp, %ebp
	.cfi_def_cfa_register 5
	pushl	%ebx
	subl	$68, %esp
	.cfi_offset 3, -12
	movl	%ecx, -44(%ebp)
	movl	-44(%ebp), %eax
	movl	8(%ebp), %edx
	movl	%edx, (%eax)
	movl	-44(%ebp), %eax
	movl	12(%ebp), %edx
	movl	%edx, 4(%eax)
	movl	-44(%ebp), %eax
	leal	8(%eax), %ebx
	leal	-25(%ebp), %eax
	movl	%eax, %ecx
	call	__ZNSaI5blockEC1Ev
	leal	-24(%ebp), %eax
	movl	$0, (%esp)
	movl	$0, 4(%esp)
	movl	%eax, %ecx
	call	__ZN5blockC1Ey
	subl	$8, %esp
	movl	8(%ebp), %eax
	leal	-25(%ebp), %edx
	movl	%edx, 8(%esp)
	leal	-24(%ebp), %edx
	movl	%edx, 4(%esp)
	movl	%eax, (%esp)
	movl	%ebx, %ecx
LEHB0:
	call	__ZNSt6vectorI5blockSaIS0_EEC1EjRKS0_RKS1_
LEHE0:
	subl	$12, %esp
	leal	-24(%ebp), %eax
	movl	%eax, %ecx
	call	__ZN5blockD1Ev
	leal	-25(%ebp), %eax
	movl	%eax, %ecx
	call	__ZNSaI5blockED1Ev
	movl	-44(%ebp), %eax
	addl	$20, %eax
	movl	%eax, %ecx
	call	__ZNSt13unordered_mapIiiSt4hashIiESt8equal_toIiESaISt4pairIKiiEEEC1Ev
	movl	-44(%ebp), %eax
	addl	$48, %eax
	movl	%eax, %ecx
	call	__ZNSt7__cxx114listIiSaIiEEC1Ev
	jmp	L51
L50:
	movl	%eax, %ebx
	leal	-24(%ebp), %eax
	movl	%eax, %ecx
	call	__ZN5blockD1Ev
	leal	-25(%ebp), %eax
	movl	%eax, %ecx
	call	__ZNSaI5blockED1Ev
	movl	%ebx, %eax
	movl	%eax, (%esp)
LEHB1:
	call	__Unwind_Resume
LEHE1:
L51:
	movl	-4(%ebp), %ebx
	leave
	.cfi_restore 5
	.cfi_restore 3
	.cfi_def_cfa 4, 4
	ret	$8
	.cfi_endproc
LFE3561:
	.def	___gxx_personality_v0;	.scl	2;	.type	32;	.endef
	.section	.gcc_except_table,"w"
LLSDA3561:
	.byte	0xff
	.byte	0xff
	.byte	0x1
	.uleb128 LLSDACSE3561-LLSDACSB3561
LLSDACSB3561:
	.uleb128 LEHB0-LFB3561
	.uleb128 LEHE0-LEHB0
	.uleb128 L50-LFB3561
	.uleb128 0
	.uleb128 LEHB1-LFB3561
	.uleb128 LEHE1-LEHB1
	.uleb128 0
	.uleb128 0
LLSDACSE3561:
	.section	.text$_ZN9cache_setC1Eii,"x"
	.linkonce discard
	.section	.text$_ZN9cache_setD1Ev,"x"
	.linkonce discard
	.align 2
	.globl	__ZN9cache_setD1Ev
	.def	__ZN9cache_setD1Ev;	.scl	2;	.type	32;	.endef
__ZN9cache_setD1Ev:
LFB3564:
	.cfi_startproc
	pushl	%ebp
	.cfi_def_cfa_offset 8
	.cfi_offset 5, -8
	movl	%esp, %ebp
	.cfi_def_cfa_register 5
	subl	$24, %esp
	movl	%ecx, -12(%ebp)
	movl	-12(%ebp), %eax
	addl	$48, %eax
	movl	%eax, %ecx
	call	__ZNSt7__cxx114listIiSaIiEED1Ev
	movl	-12(%ebp), %eax
	addl	$20, %eax
	movl	%eax, %ecx
	call	__ZNSt13unordered_mapIiiSt4hashIiESt8equal_toIiESaISt4pairIKiiEEED1Ev
	movl	-12(%ebp), %eax
	addl	$8, %eax
	movl	%eax, %ecx
	call	__ZNSt6vectorI5blockSaIS0_EED1Ev
	nop
	leave
	.cfi_restore 5
	.cfi_def_cfa 4, 4
	ret
	.cfi_endproc
LFE3564:
	.section	.text$_ZN5cacheC1Eciiiii6cache_,"x"
	.linkonce discard
	.align 2
	.globl	__ZN5cacheC1Eciiiii6cache_
	.def	__ZN5cacheC1Eciiiii6cache_;	.scl	2;	.type	32;	.endef
__ZN5cacheC1Eciiiii6cache_:
LFB3567:
	.cfi_startproc
	.cfi_personality 0,___gxx_personality_v0
	.cfi_lsda 0,LLSDA3567
	pushl	%ebp
	.cfi_def_cfa_offset 8
	.cfi_offset 5, -8
	movl	%esp, %ebp
	.cfi_def_cfa_register 5
	pushl	%ebx
	subl	$116, %esp
	.cfi_offset 3, -12
	movl	%ecx, -76(%ebp)
	movl	8(%ebp), %eax
	movb	%al, -80(%ebp)
	movl	32(%ebp), %eax
	movl	%eax, -104(%ebp)
	movl	36(%ebp), %eax
	movl	%eax, -100(%ebp)
	movl	40(%ebp), %eax
	movl	%eax, -96(%ebp)
	movl	44(%ebp), %eax
	movl	%eax, -92(%ebp)
	movl	48(%ebp), %eax
	movl	%eax, -88(%ebp)
	movl	52(%ebp), %eax
	movl	%eax, -84(%ebp)
	movl	-76(%ebp), %eax
	movzbl	-80(%ebp), %edx
	movb	%dl, (%eax)
	movl	-76(%ebp), %eax
	movl	12(%ebp), %edx
	movl	%edx, 4(%eax)
	movl	-76(%ebp), %eax
	movl	16(%ebp), %edx
	movl	%edx, 8(%eax)
	movl	-76(%ebp), %eax
	movl	20(%ebp), %edx
	movl	%edx, 12(%eax)
	movl	-76(%ebp), %eax
	movl	24(%ebp), %edx
	movl	%edx, 16(%eax)
	movl	-76(%ebp), %eax
	movl	28(%ebp), %edx
	movl	%edx, 20(%eax)
	movl	-76(%ebp), %eax
	movl	$0, 24(%eax)
	movl	$0, 28(%eax)
	movl	-76(%ebp), %eax
	movl	$0, 32(%eax)
	movl	$0, 36(%eax)
	movl	-76(%ebp), %eax
	movl	$0, 40(%eax)
	movl	$0, 44(%eax)
	movl	-76(%ebp), %eax
	movl	$0, 48(%eax)
	movl	$0, 52(%eax)
	movl	-76(%ebp), %eax
	leal	56(%eax), %ebx
	leal	-69(%ebp), %eax
	movl	%eax, %ecx
	call	__ZNSaI9cache_setEC1Ev
	movl	-76(%ebp), %eax
	movl	8(%eax), %ecx
	movl	-76(%ebp), %eax
	movl	16(%eax), %edx
	leal	-68(%ebp), %eax
	movl	%ecx, 4(%esp)
	movl	%edx, (%esp)
	movl	%eax, %ecx
LEHB2:
	call	__ZN9cache_setC1Eii
LEHE2:
	subl	$8, %esp
	movl	-76(%ebp), %eax
	movl	20(%eax), %eax
	movl	%eax, %edx
	leal	-69(%ebp), %eax
	movl	%eax, 8(%esp)
	leal	-68(%ebp), %eax
	movl	%eax, 4(%esp)
	movl	%edx, (%esp)
	movl	%ebx, %ecx
LEHB3:
	call	__ZNSt6vectorI9cache_setSaIS0_EEC1EjRKS0_RKS1_
LEHE3:
	subl	$12, %esp
	leal	-68(%ebp), %eax
	movl	%eax, %ecx
	call	__ZN9cache_setD1Ev
	leal	-69(%ebp), %eax
	movl	%eax, %ecx
	call	__ZNSaI9cache_setED1Ev
	movl	-76(%ebp), %eax
	movl	-104(%ebp), %edx
	movl	%edx, 72(%eax)
	movl	-100(%ebp), %edx
	movl	%edx, 76(%eax)
	movl	-96(%ebp), %edx
	movl	%edx, 80(%eax)
	movl	-92(%ebp), %edx
	movl	%edx, 84(%eax)
	movl	-88(%ebp), %edx
	movl	%edx, 88(%eax)
	movl	-84(%ebp), %edx
	movl	%edx, 92(%eax)
	jmp	L58
L57:
	movl	%eax, %ebx
	leal	-68(%ebp), %eax
	movl	%eax, %ecx
	call	__ZN9cache_setD1Ev
	jmp	L55
L56:
	movl	%eax, %ebx
L55:
	leal	-69(%ebp), %eax
	movl	%eax, %ecx
	call	__ZNSaI9cache_setED1Ev
	movl	%ebx, %eax
	movl	%eax, (%esp)
LEHB4:
	call	__Unwind_Resume
LEHE4:
L58:
	movl	-4(%ebp), %ebx
	leave
	.cfi_restore 5
	.cfi_restore 3
	.cfi_def_cfa 4, 4
	ret	$48
	.cfi_endproc
LFE3567:
	.section	.gcc_except_table,"w"
LLSDA3567:
	.byte	0xff
	.byte	0xff
	.byte	0x1
	.uleb128 LLSDACSE3567-LLSDACSB3567
LLSDACSB3567:
	.uleb128 LEHB2-LFB3567
	.uleb128 LEHE2-LEHB2
	.uleb128 L56-LFB3567
	.uleb128 0
	.uleb128 LEHB3-LFB3567
	.uleb128 LEHE3-LEHB3
	.uleb128 L57-LFB3567
	.uleb128 0
	.uleb128 LEHB4-LFB3567
	.uleb128 LEHE4-LEHB4
	.uleb128 0
	.uleb128 0
LLSDACSE3567:
	.section	.text$_ZN5cacheC1Eciiiii6cache_,"x"
	.linkonce discard
	.section	.text$_ZN5cacheD1Ev,"x"
	.linkonce discard
	.align 2
	.globl	__ZN5cacheD1Ev
	.def	__ZN5cacheD1Ev;	.scl	2;	.type	32;	.endef
__ZN5cacheD1Ev:
LFB3570:
	.cfi_startproc
	pushl	%ebp
	.cfi_def_cfa_offset 8
	.cfi_offset 5, -8
	movl	%esp, %ebp
	.cfi_def_cfa_register 5
	subl	$24, %esp
	movl	%ecx, -12(%ebp)
	movl	-12(%ebp), %eax
	addl	$56, %eax
	movl	%eax, %ecx
	call	__ZNSt6vectorI9cache_setSaIS0_EED1Ev
	nop
	leave
	.cfi_restore 5
	.cfi_def_cfa 4, 4
	ret
	.cfi_endproc
LFE3570:
	.section .rdata,"dr"
LC3:
	.ascii "Errors on Input Loading!\0"
	.text
	.globl	__Z3insRKNSt7__cxx1112basic_stringIcSt11char_traitsIcESaIcEEERcRy
	.def	__Z3insRKNSt7__cxx1112basic_stringIcSt11char_traitsIcESaIcEEERcRy;	.scl	2;	.type	32;	.endef
__Z3insRKNSt7__cxx1112basic_stringIcSt11char_traitsIcESaIcEEERcRy:
LFB3571:
	.cfi_startproc
	.cfi_personality 0,___gxx_personality_v0
	.cfi_lsda 0,LLSDA3571
	pushl	%ebp
	.cfi_def_cfa_offset 8
	.cfi_offset 5, -8
	movl	%esp, %ebp
	.cfi_def_cfa_register 5
	pushl	%ebx
	subl	$260, %esp
	.cfi_offset 3, -12
	movl	8(%ebp), %ecx
	call	__ZNKSt7__cxx1112basic_stringIcSt11char_traitsIcESaIcEE5emptyEv
	xorl	$1, %eax
	testb	%al, %al
	je	L61
	movl	$0, 4(%esp)
	movl	$114, (%esp)
	movl	8(%ebp), %ecx
	call	__ZNKSt7__cxx1112basic_stringIcSt11char_traitsIcESaIcEE4findEcj
	subl	$8, %esp
	cmpl	$-1, %eax
	setne	%al
	testb	%al, %al
	je	L62
	movl	12(%ebp), %eax
	movb	$114, (%eax)
	jmp	L63
L62:
	movl	$0, 4(%esp)
	movl	$119, (%esp)
	movl	8(%ebp), %ecx
	call	__ZNKSt7__cxx1112basic_stringIcSt11char_traitsIcESaIcEE4findEcj
	subl	$8, %esp
	cmpl	$-1, %eax
	setne	%al
	testb	%al, %al
	je	L64
	movl	12(%ebp), %eax
	movb	$119, (%eax)
	jmp	L63
L64:
	movl	$0, %ebx
	jmp	L66
L63:
	leal	-32(%ebp), %eax
	movl	$-1, 8(%esp)
	movl	$2, 4(%esp)
	movl	8(%ebp), %edx
	movl	%edx, (%esp)
	movl	%eax, %ecx
LEHB5:
	call	__ZNKSt7__cxx1112basic_stringIcSt11char_traitsIcESaIcEE6substrEjj
LEHE5:
	subl	$12, %esp
	leal	-236(%ebp), %eax
	movl	$8, 4(%esp)
	leal	-32(%ebp), %edx
	movl	%edx, (%esp)
	movl	%eax, %ecx
LEHB6:
	call	__ZNSt7__cxx1119basic_istringstreamIcSt11char_traitsIcESaIcEEC1ERKNS_12basic_stringIcS2_S3_EESt13_Ios_Openmode
LEHE6:
	subl	$8, %esp
	leal	-236(%ebp), %eax
	movl	$__ZSt3hexRSt8ios_base, (%esp)
	movl	%eax, %ecx
LEHB7:
	call	__ZNSirsEPFRSt8ios_baseS0_E
	subl	$4, %esp
	movl	%eax, %edx
	movl	16(%ebp), %eax
	movl	%eax, (%esp)
	movl	%edx, %ecx
	call	__ZNSirsERy
LEHE7:
	subl	$4, %esp
	movl	$1, %ebx
	leal	-236(%ebp), %eax
	movl	%eax, %ecx
	call	__ZNSt7__cxx1119basic_istringstreamIcSt11char_traitsIcESaIcEED1Ev
	leal	-32(%ebp), %eax
	movl	%eax, %ecx
	call	__ZNSt7__cxx1112basic_stringIcSt11char_traitsIcESaIcEED1Ev
	jmp	L66
L61:
	movl	$LC3, 4(%esp)
	movl	$__ZSt4cout, (%esp)
LEHB8:
	call	__ZStlsISt11char_traitsIcEERSt13basic_ostreamIcT_ES5_PKc
	movl	$__ZSt4endlIcSt11char_traitsIcEERSt13basic_ostreamIT_T0_ES6_, (%esp)
	movl	%eax, %ecx
	call	__ZNSolsEPFRSoS_E
	subl	$4, %esp
	movl	$0, %ebx
L66:
	movl	%ebx, %eax
	jmp	L71
L70:
	movl	%eax, %ebx
	leal	-236(%ebp), %eax
	movl	%eax, %ecx
	call	__ZNSt7__cxx1119basic_istringstreamIcSt11char_traitsIcESaIcEED1Ev
	jmp	L68
L69:
	movl	%eax, %ebx
L68:
	leal	-32(%ebp), %eax
	movl	%eax, %ecx
	call	__ZNSt7__cxx1112basic_stringIcSt11char_traitsIcESaIcEED1Ev
	movl	%ebx, %eax
	movl	%eax, (%esp)
	call	__Unwind_Resume
LEHE8:
L71:
	movl	-4(%ebp), %ebx
	leave
	.cfi_restore 5
	.cfi_restore 3
	.cfi_def_cfa 4, 4
	ret
	.cfi_endproc
LFE3571:
	.section	.gcc_except_table,"w"
LLSDA3571:
	.byte	0xff
	.byte	0xff
	.byte	0x1
	.uleb128 LLSDACSE3571-LLSDACSB3571
LLSDACSB3571:
	.uleb128 LEHB5-LFB3571
	.uleb128 LEHE5-LEHB5
	.uleb128 0
	.uleb128 0
	.uleb128 LEHB6-LFB3571
	.uleb128 LEHE6-LEHB6
	.uleb128 L69-LFB3571
	.uleb128 0
	.uleb128 LEHB7-LFB3571
	.uleb128 LEHE7-LEHB7
	.uleb128 L70-LFB3571
	.uleb128 0
	.uleb128 LEHB8-LFB3571
	.uleb128 LEHE8-LEHB8
	.uleb128 0
	.uleb128 0
LLSDACSE3571:
	.text
	.globl	__Z8fetchingRK6cache_yRS_
	.def	__Z8fetchingRK6cache_yRS_;	.scl	2;	.type	32;	.endef
__Z8fetchingRK6cache_yRS_:
LFB3572:
	.cfi_startproc
	pushl	%ebp
	.cfi_def_cfa_offset 8
	.cfi_offset 5, -8
	movl	%esp, %ebp
	.cfi_def_cfa_register 5
	pushl	%edi
	pushl	%esi
	subl	$24, %esp
	.cfi_offset 7, -12
	.cfi_offset 6, -16
	movl	12(%ebp), %eax
	movl	%eax, -32(%ebp)
	movl	16(%ebp), %eax
	movl	%eax, -28(%ebp)
	movl	$0, -16(%ebp)
	movl	$0, -12(%ebp)
	movl	$0, -24(%ebp)
	movl	$0, -20(%ebp)
	movl	8(%ebp), %eax
	movl	4(%eax), %edx
	movl	(%eax), %eax
	movl	$64, %edx
	movl	%edx, %ecx
	subl	%eax, %ecx
	movl	-32(%ebp), %eax
	movl	-28(%ebp), %edx
	shrdl	%cl, %edx, %eax
	shrl	%cl, %edx
	testb	$32, %cl
	je	L73
	movl	%edx, %eax
	xorl	%edx, %edx
L73:
	movl	%eax, %ecx
	andl	$16777215, %ecx
	movl	%ecx, %esi
	movl	%edx, %eax
	andl	$0, %eax
	movl	%eax, %edi
	movl	20(%ebp), %eax
	movl	%esi, (%eax)
	movl	%edi, 4(%eax)
	movl	8(%ebp), %eax
	movl	4(%eax), %edx
	movl	(%eax), %eax
	movl	%eax, %ecx
	movl	-32(%ebp), %eax
	movl	-28(%ebp), %edx
	shldl	%cl, %eax, %edx
	sall	%cl, %eax
	testb	$32, %cl
	je	L74
	movl	%eax, %edx
	xorl	%eax, %eax
L74:
	movl	%eax, -16(%ebp)
	movl	%edx, -12(%ebp)
	movl	8(%ebp), %eax
	movl	4(%eax), %edx
	movl	(%eax), %eax
	movl	%eax, %ecx
	movl	8(%ebp), %eax
	movl	20(%eax), %edx
	movl	16(%eax), %eax
	addl	%eax, %ecx
	movl	-16(%ebp), %eax
	movl	-12(%ebp), %edx
	shrdl	%cl, %edx, %eax
	shrl	%cl, %edx
	testb	$32, %cl
	je	L75
	movl	%edx, %eax
	xorl	%edx, %edx
L75:
	movl	20(%ebp), %ecx
	movl	%eax, 8(%ecx)
	movl	%edx, 12(%ecx)
	movl	8(%ebp), %eax
	movl	20(%eax), %edx
	movl	16(%eax), %eax
	movl	$64, %edx
	subl	%eax, %edx
	movl	%edx, %ecx
	movl	-32(%ebp), %eax
	movl	-28(%ebp), %edx
	shldl	%cl, %eax, %edx
	sall	%cl, %eax
	testb	$32, %cl
	je	L76
	movl	%eax, %edx
	xorl	%eax, %eax
L76:
	movl	%eax, -24(%ebp)
	movl	%edx, -20(%ebp)
	movl	8(%ebp), %eax
	movl	20(%eax), %edx
	movl	16(%eax), %eax
	movl	$64, %edx
	movl	%edx, %ecx
	subl	%eax, %ecx
	movl	-24(%ebp), %eax
	movl	-20(%ebp), %edx
	shrdl	%cl, %edx, %eax
	shrl	%cl, %edx
	testb	$32, %cl
	je	L77
	movl	%edx, %eax
	xorl	%edx, %edx
L77:
	movl	20(%ebp), %ecx
	movl	%eax, 16(%ecx)
	movl	%edx, 20(%ecx)
	nop
	addl	$24, %esp
	popl	%esi
	.cfi_restore 6
	popl	%edi
	.cfi_restore 7
	popl	%ebp
	.cfi_restore 5
	.cfi_def_cfa 4, 4
	ret
	.cfi_endproc
LFE3572:
	.globl	__Z10addr_validR5cacheRK6cache_
	.def	__Z10addr_validR5cacheRK6cache_;	.scl	2;	.type	32;	.endef
__Z10addr_validR5cacheRK6cache_:
LFB3573:
	.cfi_startproc
	.cfi_personality 0,___gxx_personality_v0
	.cfi_lsda 0,LLSDA3573
	pushl	%ebp
	.cfi_def_cfa_offset 8
	.cfi_offset 5, -8
	movl	%esp, %ebp
	.cfi_def_cfa_register 5
	pushl	%edi
	pushl	%esi
	pushl	%ebx
	subl	$92, %esp
	.cfi_offset 7, -12
	.cfi_offset 6, -16
	.cfi_offset 3, -20
	movl	$0, -52(%ebp)
L87:
	movl	8(%ebp), %eax
	movl	16(%eax), %edx
	movl	-52(%ebp), %eax
	cmpl	%eax, %edx
	jle	L79
	movl	-52(%ebp), %eax
	movl	%eax, %ebx
	movl	12(%ebp), %eax
	movl	12(%eax), %edx
	movl	8(%eax), %eax
	movl	%eax, %edx
	movl	8(%ebp), %eax
	addl	$56, %eax
	movl	%edx, (%esp)
	movl	%eax, %ecx
	call	__ZNSt6vectorI9cache_setSaIS0_EEixEj
	subl	$4, %esp
	addl	$8, %eax
	movl	%ebx, (%esp)
	movl	%eax, %ecx
	call	__ZNSt6vectorI5blockSaIS0_EEixEj
	subl	$4, %esp
	movzbl	(%eax), %eax
	testb	%al, %al
	je	L80
	movl	-52(%ebp), %eax
	movl	%eax, %ebx
	movl	12(%ebp), %eax
	movl	12(%eax), %edx
	movl	8(%eax), %eax
	movl	%eax, %edx
	movl	8(%ebp), %eax
	addl	$56, %eax
	movl	%edx, (%esp)
	movl	%eax, %ecx
	call	__ZNSt6vectorI9cache_setSaIS0_EEixEj
	subl	$4, %esp
	addl	$8, %eax
	movl	%ebx, (%esp)
	movl	%eax, %ecx
	call	__ZNSt6vectorI5blockSaIS0_EEixEj
	subl	$4, %esp
	movl	8(%eax), %ecx
	movl	12(%eax), %ebx
	movl	12(%ebp), %eax
	movl	4(%eax), %edx
	movl	(%eax), %eax
	movl	%eax, -80(%ebp)
	movl	%edx, -76(%ebp)
	movl	%ecx, %eax
	xorl	-80(%ebp), %eax
	movl	%eax, %esi
	movl	%ebx, %eax
	xorl	-76(%ebp), %eax
	movl	%eax, %edi
	movl	%edi, %eax
	orl	%esi, %eax
	testl	%eax, %eax
	jne	L80
	movl	$1, %eax
	jmp	L81
L80:
	movl	$0, %eax
L81:
	testb	%al, %al
	je	L82
	movl	8(%ebp), %eax
	movzbl	(%eax), %eax
	cmpb	$108, %al
	jne	L83
	movl	12(%ebp), %eax
	movl	12(%eax), %edx
	movl	8(%eax), %eax
	movl	%eax, %edx
	movl	8(%ebp), %eax
	addl	$56, %eax
	movl	%edx, (%esp)
	movl	%eax, %ecx
	call	__ZNSt6vectorI9cache_setSaIS0_EEixEj
	subl	$4, %esp
	addl	$20, %eax
	leal	-52(%ebp), %edx
	movl	%edx, (%esp)
	movl	%eax, %ecx
LEHB9:
	call	__ZNSt13unordered_mapIiiSt4hashIiESt8equal_toIiESaISt4pairIKiiEEE4findERS5_
	subl	$4, %esp
	movl	%eax, -56(%ebp)
	movl	12(%ebp), %eax
	movl	12(%eax), %edx
	movl	8(%eax), %eax
	movl	%eax, %edx
	movl	8(%ebp), %eax
	addl	$56, %eax
	movl	%edx, (%esp)
	movl	%eax, %ecx
	call	__ZNSt6vectorI9cache_setSaIS0_EEixEj
	subl	$4, %esp
	addl	$20, %eax
	movl	%eax, %ecx
	call	__ZNSt13unordered_mapIiiSt4hashIiESt8equal_toIiESaISt4pairIKiiEEE3endEv
	movl	%eax, -48(%ebp)
	leal	-48(%ebp), %eax
	movl	%eax, 4(%esp)
	leal	-56(%ebp), %eax
	movl	%eax, (%esp)
	call	__ZNSt8__detailneISt4pairIKiiELb0EEEbRKNS_19_Node_iterator_baseIT_XT0_EEES8_
	testb	%al, %al
	je	L83
	leal	-56(%ebp), %eax
	movl	%eax, %ecx
	call	__ZNKSt8__detail14_Node_iteratorISt4pairIKiiELb0ELb0EEptEv
	movl	4(%eax), %eax
	movl	%eax, -28(%ebp)
	movl	12(%ebp), %eax
	movl	12(%eax), %edx
	movl	8(%eax), %eax
	movl	%eax, %edx
	movl	8(%ebp), %eax
	addl	$56, %eax
	movl	%edx, (%esp)
	movl	%eax, %ecx
	call	__ZNSt6vectorI9cache_setSaIS0_EEixEj
	subl	$4, %esp
	addl	$48, %eax
	movl	%eax, %ecx
	call	__ZNSt7__cxx114listIiSaIiEE3endEv
	movl	%eax, %ebx
	movl	12(%ebp), %eax
	movl	12(%eax), %edx
	movl	8(%eax), %eax
	movl	%eax, %edx
	movl	8(%ebp), %eax
	addl	$56, %eax
	movl	%edx, (%esp)
	movl	%eax, %ecx
	call	__ZNSt6vectorI9cache_setSaIS0_EEixEj
	subl	$4, %esp
	addl	$48, %eax
	movl	%eax, %ecx
	call	__ZNSt7__cxx114listIiSaIiEE5beginEv
	leal	-52(%ebp), %edx
	movl	%edx, 8(%esp)
	movl	%ebx, 4(%esp)
	movl	%eax, (%esp)
	call	__ZSt4findISt14_List_iteratorIiEiET_S2_S2_RKT0_
	movl	%eax, -60(%ebp)
	movl	12(%ebp), %eax
	movl	12(%eax), %edx
	movl	8(%eax), %eax
	movl	%eax, %edx
	movl	8(%ebp), %eax
	addl	$56, %eax
	movl	%edx, (%esp)
	movl	%eax, %ecx
	call	__ZNSt6vectorI9cache_setSaIS0_EEixEj
	subl	$4, %esp
	addl	$48, %eax
	movl	%eax, %ecx
	call	__ZNSt7__cxx114listIiSaIiEE3endEv
	movl	%eax, -44(%ebp)
	leal	-44(%ebp), %eax
	movl	%eax, 4(%esp)
	leal	-60(%ebp), %eax
	movl	%eax, (%esp)
	call	__ZStneRKSt14_List_iteratorIiES2_
	testb	%al, %al
	je	L85
	movl	12(%ebp), %eax
	movl	12(%eax), %edx
	movl	8(%eax), %eax
	movl	%eax, %edx
	movl	8(%ebp), %eax
	addl	$56, %eax
	movl	%edx, (%esp)
	movl	%eax, %ecx
	call	__ZNSt6vectorI9cache_setSaIS0_EEixEj
	subl	$4, %esp
	leal	48(%eax), %ebx
	leal	-40(%ebp), %eax
	leal	-60(%ebp), %edx
	movl	%edx, (%esp)
	movl	%eax, %ecx
	call	__ZNSt20_List_const_iteratorIiEC1ERKSt14_List_iteratorIiE
	subl	$4, %esp
	movl	-40(%ebp), %eax
	movl	%eax, (%esp)
	movl	%ebx, %ecx
	call	__ZNSt7__cxx114listIiSaIiEE5eraseESt20_List_const_iteratorIiE
	subl	$4, %esp
L85:
	movl	12(%ebp), %eax
	movl	12(%eax), %edx
	movl	8(%eax), %eax
	movl	%eax, %edx
	movl	8(%ebp), %eax
	addl	$56, %eax
	movl	%edx, (%esp)
	movl	%eax, %ecx
	call	__ZNSt6vectorI9cache_setSaIS0_EEixEj
	subl	$4, %esp
	addl	$20, %eax
	movl	-56(%ebp), %edx
	movl	%edx, (%esp)
	movl	%eax, %ecx
	call	__ZNSt13unordered_mapIiiSt4hashIiESt8equal_toIiESaISt4pairIKiiEEE5eraseENSt8__detail14_Node_iteratorIS6_Lb0ELb0EEE
	subl	$4, %esp
	movl	12(%ebp), %eax
	movl	12(%eax), %edx
	movl	8(%eax), %eax
	movl	%eax, %edx
	movl	8(%ebp), %eax
	addl	$56, %eax
	movl	%edx, (%esp)
	movl	%eax, %ecx
	call	__ZNSt6vectorI9cache_setSaIS0_EEixEj
	subl	$4, %esp
	addl	$48, %eax
	movl	%eax, %ecx
	call	__ZNKSt7__cxx114listIiSaIiEE4sizeEv
	movl	%eax, -64(%ebp)
	movl	12(%ebp), %eax
	movl	12(%eax), %edx
	movl	8(%eax), %eax
	movl	%eax, %edx
	movl	8(%ebp), %eax
	addl	$56, %eax
	movl	%edx, (%esp)
	movl	%eax, %ecx
	call	__ZNSt6vectorI9cache_setSaIS0_EEixEj
	subl	$4, %esp
	addl	$48, %eax
	leal	-52(%ebp), %edx
	movl	%edx, (%esp)
	movl	%eax, %ecx
	call	__ZNSt7__cxx114listIiSaIiEE9push_backERKi
	subl	$4, %esp
	movl	12(%ebp), %eax
	movl	12(%eax), %edx
	movl	8(%eax), %eax
	movl	%eax, %edx
	movl	8(%ebp), %eax
	addl	$56, %eax
	movl	%edx, (%esp)
	movl	%eax, %ecx
	call	__ZNSt6vectorI9cache_setSaIS0_EEixEj
	subl	$4, %esp
	leal	20(%eax), %ebx
	leal	-64(%ebp), %eax
	movl	%eax, 4(%esp)
	leal	-52(%ebp), %eax
	movl	%eax, (%esp)
	call	__ZSt9make_pairIRiS0_ESt4pairINSt17__decay_and_stripIT_E6__typeENS2_IT0_E6__typeEEOS3_OS6_
	movl	%eax, -36(%ebp)
	movl	%edx, -32(%ebp)
	leal	-36(%ebp), %eax
	movl	%eax, (%esp)
	movl	%ebx, %ecx
	call	__ZNSt13unordered_mapIiiSt4hashIiESt8equal_toIiESaISt4pairIKiiEEE6insertIS4_IiiEEENSt9enable_ifIXsrSt16is_constructibleIS6_JOT_EE5valueES4_INSt8__detail14_Node_iteratorIS6_Lb0ELb0EEEbEE4typeESE_
LEHE9:
	subl	$4, %esp
L83:
	movl	$1, %eax
	jmp	L90
L82:
	movl	-52(%ebp), %eax
	addl	$1, %eax
	movl	%eax, -52(%ebp)
	jmp	L87
L79:
	movl	$0, %eax
	jmp	L90
L89:
	movl	%eax, (%esp)
LEHB10:
	call	__Unwind_Resume
LEHE10:
L90:
	leal	-12(%ebp), %esp
	popl	%ebx
	.cfi_restore 3
	popl	%esi
	.cfi_restore 6
	popl	%edi
	.cfi_restore 7
	popl	%ebp
	.cfi_restore 5
	.cfi_def_cfa 4, 4
	ret
	.cfi_endproc
LFE3573:
	.section	.gcc_except_table,"w"
LLSDA3573:
	.byte	0xff
	.byte	0xff
	.byte	0x1
	.uleb128 LLSDACSE3573-LLSDACSB3573
LLSDACSB3573:
	.uleb128 LEHB9-LFB3573
	.uleb128 LEHE9-LEHB9
	.uleb128 L89-LFB3573
	.uleb128 0
	.uleb128 LEHB10-LFB3573
	.uleb128 LEHE10-LEHB10
	.uleb128 0
	.uleb128 0
LLSDACSE3573:
	.text
	.section .rdata,"dr"
	.align 4
LC4:
	.ascii "Errors on Replacement Declaration!\0"
	.text
	.globl	__Z7replaceR5cacheRK6cache_
	.def	__Z7replaceR5cacheRK6cache_;	.scl	2;	.type	32;	.endef
__Z7replaceR5cacheRK6cache_:
LFB3578:
	.cfi_startproc
	.cfi_personality 0,___gxx_personality_v0
	.cfi_lsda 0,LLSDA3578
	pushl	%ebp
	.cfi_def_cfa_offset 8
	.cfi_offset 5, -8
	movl	%esp, %ebp
	.cfi_def_cfa_register 5
	pushl	%ebx
	subl	$84, %esp
	.cfi_offset 3, -12
	movl	8(%ebp), %eax
	movl	16(%eax), %eax
	movl	%eax, -12(%ebp)
	movl	$0, -48(%ebp)
L94:
	movl	8(%ebp), %eax
	movl	16(%eax), %edx
	movl	-48(%ebp), %eax
	cmpl	%eax, %edx
	jle	L92
	movl	-48(%ebp), %eax
	movl	%eax, %ebx
	movl	12(%ebp), %eax
	movl	12(%eax), %edx
	movl	8(%eax), %eax
	movl	%eax, %edx
	movl	8(%ebp), %eax
	addl	$56, %eax
	movl	%edx, (%esp)
	movl	%eax, %ecx
	call	__ZNSt6vectorI9cache_setSaIS0_EEixEj
	subl	$4, %esp
	addl	$8, %eax
	movl	%ebx, (%esp)
	movl	%eax, %ecx
	call	__ZNSt6vectorI5blockSaIS0_EEixEj
	subl	$4, %esp
	movzbl	(%eax), %eax
	movzbl	%al, %eax
	testl	%eax, %eax
	sete	%al
	testb	%al, %al
	je	L93
	movl	-48(%ebp), %eax
	movl	%eax, %ebx
	movl	12(%ebp), %eax
	movl	12(%eax), %edx
	movl	8(%eax), %eax
	movl	%eax, %edx
	movl	8(%ebp), %eax
	addl	$56, %eax
	movl	%edx, (%esp)
	movl	%eax, %ecx
	call	__ZNSt6vectorI9cache_setSaIS0_EEixEj
	subl	$4, %esp
	addl	$8, %eax
	movl	%ebx, (%esp)
	movl	%eax, %ecx
	call	__ZNSt6vectorI5blockSaIS0_EEixEj
	subl	$4, %esp
	movb	$1, (%eax)
	movl	-48(%ebp), %eax
	movl	%eax, %ebx
	movl	12(%ebp), %eax
	movl	12(%eax), %edx
	movl	8(%eax), %eax
	movl	%eax, %edx
	movl	8(%ebp), %eax
	addl	$56, %eax
	movl	%edx, (%esp)
	movl	%eax, %ecx
	call	__ZNSt6vectorI9cache_setSaIS0_EEixEj
	subl	$4, %esp
	addl	$8, %eax
	movl	%ebx, (%esp)
	movl	%eax, %ecx
	call	__ZNSt6vectorI5blockSaIS0_EEixEj
	subl	$4, %esp
	movl	%eax, %ecx
	movl	12(%ebp), %eax
	movl	4(%eax), %edx
	movl	(%eax), %eax
	movl	%eax, 8(%ecx)
	movl	%edx, 12(%ecx)
	movl	12(%ebp), %eax
	movl	12(%eax), %edx
	movl	8(%eax), %eax
	movl	%eax, %edx
	movl	8(%ebp), %eax
	addl	$56, %eax
	movl	%edx, (%esp)
	movl	%eax, %ecx
	call	__ZNSt6vectorI9cache_setSaIS0_EEixEj
	subl	$4, %esp
	addl	$48, %eax
	movl	%eax, %ecx
	call	__ZNKSt7__cxx114listIiSaIiEE4sizeEv
	movl	%eax, -52(%ebp)
	movl	12(%ebp), %eax
	movl	12(%eax), %edx
	movl	8(%eax), %eax
	movl	%eax, %edx
	movl	8(%ebp), %eax
	addl	$56, %eax
	movl	%edx, (%esp)
	movl	%eax, %ecx
	call	__ZNSt6vectorI9cache_setSaIS0_EEixEj
	subl	$4, %esp
	addl	$48, %eax
	leal	-48(%ebp), %edx
	movl	%edx, (%esp)
	movl	%eax, %ecx
LEHB11:
	call	__ZNSt7__cxx114listIiSaIiEE9push_backERKi
	subl	$4, %esp
	movl	12(%ebp), %eax
	movl	12(%eax), %edx
	movl	8(%eax), %eax
	movl	%eax, %edx
	movl	8(%ebp), %eax
	addl	$56, %eax
	movl	%edx, (%esp)
	movl	%eax, %ecx
	call	__ZNSt6vectorI9cache_setSaIS0_EEixEj
	subl	$4, %esp
	leal	20(%eax), %ebx
	leal	-52(%ebp), %eax
	movl	%eax, 4(%esp)
	leal	-48(%ebp), %eax
	movl	%eax, (%esp)
	call	__ZSt9make_pairIRiS0_ESt4pairINSt17__decay_and_stripIT_E6__typeENS2_IT0_E6__typeEEOS3_OS6_
	movl	%eax, -44(%ebp)
	movl	%edx, -40(%ebp)
	leal	-44(%ebp), %eax
	movl	%eax, (%esp)
	movl	%ebx, %ecx
	call	__ZNSt13unordered_mapIiiSt4hashIiESt8equal_toIiESaISt4pairIKiiEEE6insertIS4_IiiEEENSt9enable_ifIXsrSt16is_constructibleIS6_JOT_EE5valueES4_INSt8__detail14_Node_iteratorIS6_Lb0ELb0EEEbEE4typeESE_
LEHE11:
	subl	$4, %esp
L93:
	movl	-48(%ebp), %eax
	addl	$1, %eax
	movl	%eax, -48(%ebp)
	jmp	L94
L92:
	movl	8(%ebp), %eax
	movzbl	(%eax), %eax
	cmpb	$108, %al
	jne	L95
	movl	12(%ebp), %eax
	movl	12(%eax), %edx
	movl	8(%eax), %eax
	movl	%eax, %edx
	movl	8(%ebp), %eax
	addl	$56, %eax
	movl	%edx, (%esp)
	movl	%eax, %ecx
	call	__ZNSt6vectorI9cache_setSaIS0_EEixEj
	subl	$4, %esp
	addl	$48, %eax
	movl	%eax, %ecx
	call	__ZNSt7__cxx114listIiSaIiEE5frontEv
	movl	(%eax), %eax
	movl	%eax, -56(%ebp)
	movl	12(%ebp), %eax
	movl	12(%eax), %edx
	movl	8(%eax), %eax
	movl	%eax, %edx
	movl	8(%ebp), %eax
	addl	$56, %eax
	movl	%edx, (%esp)
	movl	%eax, %ecx
	call	__ZNSt6vectorI9cache_setSaIS0_EEixEj
	subl	$4, %esp
	leal	48(%eax), %ebx
	movl	12(%ebp), %eax
	movl	12(%eax), %edx
	movl	8(%eax), %eax
	movl	%eax, %edx
	movl	8(%ebp), %eax
	addl	$56, %eax
	movl	%edx, (%esp)
	movl	%eax, %ecx
	call	__ZNSt6vectorI9cache_setSaIS0_EEixEj
	subl	$4, %esp
	addl	$48, %eax
	movl	%eax, %ecx
	call	__ZNSt7__cxx114listIiSaIiEE5beginEv
	movl	%eax, -32(%ebp)
	leal	-36(%ebp), %eax
	leal	-32(%ebp), %edx
	movl	%edx, (%esp)
	movl	%eax, %ecx
	call	__ZNSt20_List_const_iteratorIiEC1ERKSt14_List_iteratorIiE
	subl	$4, %esp
	movl	-36(%ebp), %eax
	movl	%eax, (%esp)
	movl	%ebx, %ecx
	call	__ZNSt7__cxx114listIiSaIiEE5eraseESt20_List_const_iteratorIiE
	subl	$4, %esp
	movl	12(%ebp), %eax
	movl	12(%eax), %edx
	movl	8(%eax), %eax
	movl	%eax, %edx
	movl	8(%ebp), %eax
	addl	$56, %eax
	movl	%edx, (%esp)
	movl	%eax, %ecx
	call	__ZNSt6vectorI9cache_setSaIS0_EEixEj
	subl	$4, %esp
	addl	$20, %eax
	leal	-56(%ebp), %edx
	movl	%edx, (%esp)
	movl	%eax, %ecx
LEHB12:
	call	__ZNSt13unordered_mapIiiSt4hashIiESt8equal_toIiESaISt4pairIKiiEEE4findERS5_
	subl	$4, %esp
	movl	%eax, -60(%ebp)
	movl	12(%ebp), %eax
	movl	12(%eax), %edx
	movl	8(%eax), %eax
	movl	%eax, %edx
	movl	8(%ebp), %eax
	addl	$56, %eax
	movl	%edx, (%esp)
	movl	%eax, %ecx
	call	__ZNSt6vectorI9cache_setSaIS0_EEixEj
	subl	$4, %esp
	addl	$20, %eax
	movl	%eax, %ecx
	call	__ZNSt13unordered_mapIiiSt4hashIiESt8equal_toIiESaISt4pairIKiiEEE3endEv
	movl	%eax, -28(%ebp)
	leal	-28(%ebp), %eax
	movl	%eax, 4(%esp)
	leal	-60(%ebp), %eax
	movl	%eax, (%esp)
	call	__ZNSt8__detailneISt4pairIKiiELb0EEEbRKNS_19_Node_iterator_baseIT_XT0_EEES8_
	testb	%al, %al
	je	L102
	movl	12(%ebp), %eax
	movl	12(%eax), %edx
	movl	8(%eax), %eax
	movl	%eax, %edx
	movl	8(%ebp), %eax
	addl	$56, %eax
	movl	%edx, (%esp)
	movl	%eax, %ecx
	call	__ZNSt6vectorI9cache_setSaIS0_EEixEj
	subl	$4, %esp
	addl	$20, %eax
	movl	-60(%ebp), %edx
	movl	%edx, (%esp)
	movl	%eax, %ecx
	call	__ZNSt13unordered_mapIiiSt4hashIiESt8equal_toIiESaISt4pairIKiiEEE5eraseENSt8__detail14_Node_iteratorIS6_Lb0ELb0EEE
	subl	$4, %esp
	movl	12(%ebp), %eax
	movl	12(%eax), %edx
	movl	8(%eax), %eax
	movl	%eax, %edx
	movl	8(%ebp), %eax
	addl	$56, %eax
	movl	%edx, (%esp)
	movl	%eax, %ecx
	call	__ZNSt6vectorI9cache_setSaIS0_EEixEj
	subl	$4, %esp
	addl	$48, %eax
	movl	%eax, %ecx
	call	__ZNKSt7__cxx114listIiSaIiEE4sizeEv
	movl	%eax, -64(%ebp)
	movl	12(%ebp), %eax
	movl	12(%eax), %edx
	movl	8(%eax), %eax
	movl	%eax, %edx
	movl	8(%ebp), %eax
	addl	$56, %eax
	movl	%edx, (%esp)
	movl	%eax, %ecx
	call	__ZNSt6vectorI9cache_setSaIS0_EEixEj
	subl	$4, %esp
	addl	$48, %eax
	leal	-56(%ebp), %edx
	movl	%edx, (%esp)
	movl	%eax, %ecx
	call	__ZNSt7__cxx114listIiSaIiEE9push_backERKi
	subl	$4, %esp
	movl	12(%ebp), %eax
	movl	12(%eax), %edx
	movl	8(%eax), %eax
	movl	%eax, %edx
	movl	8(%ebp), %eax
	addl	$56, %eax
	movl	%edx, (%esp)
	movl	%eax, %ecx
	call	__ZNSt6vectorI9cache_setSaIS0_EEixEj
	subl	$4, %esp
	leal	20(%eax), %ebx
	leal	-64(%ebp), %eax
	movl	%eax, 4(%esp)
	leal	-56(%ebp), %eax
	movl	%eax, (%esp)
	call	__ZSt9make_pairIRiS0_ESt4pairINSt17__decay_and_stripIT_E6__typeENS2_IT0_E6__typeEEOS3_OS6_
	movl	%eax, -24(%ebp)
	movl	%edx, -20(%ebp)
	leal	-24(%ebp), %eax
	movl	%eax, (%esp)
	movl	%ebx, %ecx
	call	__ZNSt13unordered_mapIiiSt4hashIiESt8equal_toIiESaISt4pairIKiiEEE6insertIS4_IiiEEENSt9enable_ifIXsrSt16is_constructibleIS6_JOT_EE5valueES4_INSt8__detail14_Node_iteratorIS6_Lb0ELb0EEEbEE4typeESE_
	subl	$4, %esp
	movl	-56(%ebp), %eax
	movl	%eax, %ebx
	movl	12(%ebp), %eax
	movl	12(%eax), %edx
	movl	8(%eax), %eax
	movl	%eax, %edx
	movl	8(%ebp), %eax
	addl	$56, %eax
	movl	%edx, (%esp)
	movl	%eax, %ecx
	call	__ZNSt6vectorI9cache_setSaIS0_EEixEj
	subl	$4, %esp
	addl	$8, %eax
	movl	%ebx, (%esp)
	movl	%eax, %ecx
	call	__ZNSt6vectorI5blockSaIS0_EEixEj
	subl	$4, %esp
	movl	%eax, %ecx
	movl	12(%ebp), %eax
	movl	4(%eax), %edx
	movl	(%eax), %eax
	movl	%eax, 8(%ecx)
	movl	%edx, 12(%ecx)
	jmp	L102
L95:
	movl	8(%ebp), %eax
	movzbl	(%eax), %eax
	cmpb	$114, %al
	jne	L98
	movl	$0, (%esp)
	call	_time
	movl	%eax, (%esp)
	call	_srand
	movl	8(%ebp), %eax
	movl	16(%eax), %eax
	cmpl	$1, %eax
	jle	L99
	subl	$1, -12(%ebp)
L99:
	call	_rand
	cltd
	idivl	-12(%ebp)
	movl	%edx, -16(%ebp)
	movl	-16(%ebp), %ebx
	movl	12(%ebp), %eax
	movl	12(%eax), %edx
	movl	8(%eax), %eax
	movl	%eax, %edx
	movl	8(%ebp), %eax
	addl	$56, %eax
	movl	%edx, (%esp)
	movl	%eax, %ecx
	call	__ZNSt6vectorI9cache_setSaIS0_EEixEj
	subl	$4, %esp
	addl	$8, %eax
	movl	%ebx, (%esp)
	movl	%eax, %ecx
	call	__ZNSt6vectorI5blockSaIS0_EEixEj
	subl	$4, %esp
	movl	%eax, %ecx
	movl	12(%ebp), %eax
	movl	4(%eax), %edx
	movl	(%eax), %eax
	movl	%eax, 8(%ecx)
	movl	%edx, 12(%ecx)
	jmp	L102
L98:
	movl	$LC4, 4(%esp)
	movl	$__ZSt4cout, (%esp)
	call	__ZStlsISt11char_traitsIcEERSt13basic_ostreamIcT_ES5_PKc
	movl	$__ZSt4endlIcSt11char_traitsIcEERSt13basic_ostreamIT_T0_ES6_, (%esp)
	movl	%eax, %ecx
	call	__ZNSolsEPFRSoS_E
	subl	$4, %esp
	jmp	L102
L101:
	movl	%eax, (%esp)
	call	__Unwind_Resume
LEHE12:
L102:
	nop
	movl	-4(%ebp), %ebx
	leave
	.cfi_restore 5
	.cfi_restore 3
	.cfi_def_cfa 4, 4
	ret
	.cfi_endproc
LFE3578:
	.section	.gcc_except_table,"w"
LLSDA3578:
	.byte	0xff
	.byte	0xff
	.byte	0x1
	.uleb128 LLSDACSE3578-LLSDACSB3578
LLSDACSB3578:
	.uleb128 LEHB11-LFB3578
	.uleb128 LEHE11-LEHB11
	.uleb128 L101-LFB3578
	.uleb128 0
	.uleb128 LEHB12-LFB3578
	.uleb128 LEHE12-LEHB12
	.uleb128 0
	.uleb128 0
LLSDACSE3578:
	.text
	.def	___main;	.scl	2;	.type	32;	.endef
	.section .rdata,"dr"
LC5:
	.ascii "Input Error!!\0"
	.align 4
LC8:
	.ascii "Errors on fetching instructions!\0"
LC9:
	.ascii "Error!\0"
LC12:
	.ascii " \0"
LC13:
	.ascii "% \0"
LC14:
	.ascii "%\0"
	.text
	.globl	_main
	.def	_main;	.scl	2;	.type	32;	.endef
_main:
LFB3579:
	.cfi_startproc
	.cfi_personality 0,___gxx_personality_v0
	.cfi_lsda 0,LLSDA3579
	leal	4(%esp), %ecx
	.cfi_def_cfa 1, 0
	andl	$-16, %esp
	pushl	-4(%ecx)
	pushl	%ebp
	.cfi_escape 0x10,0x5,0x2,0x75,0
	movl	%esp, %ebp
	pushl	%edi
	pushl	%esi
	pushl	%ebx
	pushl	%ecx
	.cfi_escape 0xf,0x3,0x75,0x70,0x6
	.cfi_escape 0x10,0x7,0x2,0x75,0x7c
	.cfi_escape 0x10,0x6,0x2,0x75,0x78
	.cfi_escape 0x10,0x3,0x2,0x75,0x74
	subl	$440, %esp
	movl	%ecx, %ebx
	call	___main
	cmpl	$5, (%ebx)
	je	L104
	movl	$LC5, 4(%esp)
	movl	$__ZSt4cout, (%esp)
LEHB13:
	call	__ZStlsISt11char_traitsIcEERSt13basic_ostreamIcT_ES5_PKc
	movl	$__ZSt4endlIcSt11char_traitsIcEERSt13basic_ostreamIT_T0_ES6_, (%esp)
	movl	%eax, %ecx
	call	__ZNSolsEPFRSoS_E
LEHE13:
	subl	$4, %esp
	jmp	L105
L104:
	leal	-161(%ebp), %eax
	movl	%eax, %ecx
	call	__ZNSaIcEC1Ev
	movl	4(%ebx), %eax
	addl	$4, %eax
	movl	(%eax), %ecx
	leal	-188(%ebp), %edx
	leal	-161(%ebp), %eax
	movl	%eax, 4(%esp)
	movl	%ecx, (%esp)
	movl	%edx, %ecx
LEHB14:
	call	__ZNSt7__cxx1112basic_stringIcSt11char_traitsIcESaIcEEC1EPKcRKS3_
LEHE14:
	subl	$8, %esp
	movl	$10, 8(%esp)
	movl	$0, 4(%esp)
	leal	-188(%ebp), %eax
	movl	%eax, (%esp)
LEHB15:
	call	__ZNSt7__cxx114stoiERKNS_12basic_stringIcSt11char_traitsIcESaIcEEEPji
LEHE15:
	movl	%eax, -28(%ebp)
	leal	-188(%ebp), %eax
	movl	%eax, %ecx
	call	__ZNSt7__cxx1112basic_stringIcSt11char_traitsIcESaIcEED1Ev
	leal	-161(%ebp), %eax
	movl	%eax, %ecx
	call	__ZNSaIcED1Ev
	leal	-133(%ebp), %eax
	movl	%eax, %ecx
	call	__ZNSaIcEC1Ev
	movl	4(%ebx), %eax
	addl	$8, %eax
	movl	(%eax), %ecx
	leal	-160(%ebp), %edx
	leal	-133(%ebp), %eax
	movl	%eax, 4(%esp)
	movl	%ecx, (%esp)
	movl	%edx, %ecx
LEHB16:
	call	__ZNSt7__cxx1112basic_stringIcSt11char_traitsIcESaIcEEC1EPKcRKS3_
LEHE16:
	subl	$8, %esp
	movl	$10, 8(%esp)
	movl	$0, 4(%esp)
	leal	-160(%ebp), %eax
	movl	%eax, (%esp)
LEHB17:
	call	__ZNSt7__cxx114stoiERKNS_12basic_stringIcSt11char_traitsIcESaIcEEEPji
LEHE17:
	movl	%eax, -32(%ebp)
	leal	-160(%ebp), %eax
	movl	%eax, %ecx
	call	__ZNSt7__cxx1112basic_stringIcSt11char_traitsIcESaIcEED1Ev
	leal	-133(%ebp), %eax
	movl	%eax, %ecx
	call	__ZNSaIcED1Ev
	leal	-105(%ebp), %eax
	movl	%eax, %ecx
	call	__ZNSaIcEC1Ev
	movl	4(%ebx), %eax
	addl	$12, %eax
	movl	(%eax), %ecx
	leal	-132(%ebp), %edx
	leal	-105(%ebp), %eax
	movl	%eax, 4(%esp)
	movl	%ecx, (%esp)
	movl	%edx, %ecx
LEHB18:
	call	__ZNSt7__cxx1112basic_stringIcSt11char_traitsIcESaIcEEC1EPKcRKS3_
LEHE18:
	subl	$8, %esp
	movl	$10, 8(%esp)
	movl	$0, 4(%esp)
	leal	-132(%ebp), %eax
	movl	%eax, (%esp)
LEHB19:
	call	__ZNSt7__cxx114stoiERKNS_12basic_stringIcSt11char_traitsIcESaIcEEEPji
LEHE19:
	movl	%eax, -36(%ebp)
	leal	-132(%ebp), %eax
	movl	%eax, %ecx
	call	__ZNSt7__cxx1112basic_stringIcSt11char_traitsIcESaIcEED1Ev
	leal	-105(%ebp), %eax
	movl	%eax, %ecx
	call	__ZNSaIcED1Ev
	movl	4(%ebx), %eax
	addl	$16, %eax
	movl	(%eax), %eax
	movzbl	(%eax), %eax
	movb	%al, -37(%ebp)
L105:
	movl	-32(%ebp), %eax
	imull	-36(%ebp), %eax
	movl	%eax, -48(%ebp)
	movl	-28(%ebp), %eax
	sall	$10, %eax
	cltd
	idivl	-48(%ebp)
	movl	%eax, -52(%ebp)
	movl	-52(%ebp), %eax
	movl	%eax, (%esp)
	call	__ZSt4log2IiEN9__gnu_cxx11__enable_ifIXsrSt12__is_integerIT_E7__valueEdE6__typeES3_
	fldl	LC6
	fsubp	%st, %st(1)
	fstpl	-408(%ebp)
	movl	-36(%ebp), %eax
	movl	%eax, (%esp)
	call	__ZSt4log2IiEN9__gnu_cxx11__enable_ifIXsrSt12__is_integerIT_E7__valueEdE6__typeES3_
	fsubrl	-408(%ebp)
	fcoml	LC7
	fnstsw	%ax
	sahf
	jnb	L106
	fnstcw	-378(%ebp)
	movzwl	-378(%ebp), %eax
	orb	$12, %ah
	movw	%ax, -380(%ebp)
	fldcw	-380(%ebp)
	fistpq	-408(%ebp)
	fldcw	-378(%ebp)
	movl	-408(%ebp), %eax
	movl	-404(%ebp), %edx
	jmp	L107
L106:
	fldl	LC7
	fsubrp	%st, %st(1)
	fnstcw	-378(%ebp)
	movzwl	-378(%ebp), %eax
	orb	$12, %ah
	movw	%ax, -380(%ebp)
	fldcw	-380(%ebp)
	fistpq	-408(%ebp)
	fldcw	-378(%ebp)
	movl	-408(%ebp), %eax
	movl	-404(%ebp), %edx
	movl	%eax, %ebx
	xorb	$0, %bh
	movl	%ebx, %esi
	movl	%edx, %eax
	xorl	$-2147483648, %eax
	movl	%eax, %edi
	movl	%esi, %eax
	movl	%edi, %edx
L107:
	movl	%eax, -216(%ebp)
	movl	%edx, -212(%ebp)
	movl	-52(%ebp), %eax
	movl	%eax, (%esp)
	call	__ZSt4log2IiEN9__gnu_cxx11__enable_ifIXsrSt12__is_integerIT_E7__valueEdE6__typeES3_
	fcoml	LC7
	fnstsw	%ax
	sahf
	jnb	L108
	fnstcw	-378(%ebp)
	movzwl	-378(%ebp), %eax
	orb	$12, %ah
	movw	%ax, -380(%ebp)
	fldcw	-380(%ebp)
	fistpq	-392(%ebp)
	fldcw	-378(%ebp)
	movl	-392(%ebp), %eax
	movl	-388(%ebp), %edx
	jmp	L109
L108:
	fldl	LC7
	fsubrp	%st, %st(1)
	fnstcw	-378(%ebp)
	movzwl	-378(%ebp), %eax
	orb	$12, %ah
	movw	%ax, -380(%ebp)
	fldcw	-380(%ebp)
	fistpq	-408(%ebp)
	fldcw	-378(%ebp)
	movl	-408(%ebp), %eax
	movl	-404(%ebp), %edx
	movl	%eax, %edi
	xorl	$0, %edi
	movl	%edi, -392(%ebp)
	movl	%edx, %eax
	xorl	$-2147483648, %eax
	movl	%eax, -388(%ebp)
	movl	-392(%ebp), %eax
	movl	-388(%ebp), %edx
L109:
	movl	%eax, -208(%ebp)
	movl	%edx, -204(%ebp)
	movl	-36(%ebp), %eax
	movl	%eax, (%esp)
	call	__ZSt4log2IiEN9__gnu_cxx11__enable_ifIXsrSt12__is_integerIT_E7__valueEdE6__typeES3_
	fcoml	LC7
	fnstsw	%ax
	sahf
	jnb	L110
	fnstcw	-378(%ebp)
	movzwl	-378(%ebp), %eax
	orb	$12, %ah
	movw	%ax, -380(%ebp)
	fldcw	-380(%ebp)
	fistpq	-392(%ebp)
	fldcw	-378(%ebp)
	movl	-392(%ebp), %eax
	movl	-388(%ebp), %edx
	jmp	L111
L110:
	fldl	LC7
	fsubrp	%st, %st(1)
	fnstcw	-378(%ebp)
	movzwl	-378(%ebp), %eax
	orb	$12, %ah
	movw	%ax, -380(%ebp)
	fldcw	-380(%ebp)
	fistpq	-392(%ebp)
	fldcw	-378(%ebp)
	movl	-392(%ebp), %eax
	movl	-388(%ebp), %edx
	movl	%eax, %esi
	xorl	$0, %esi
	movl	%esi, -400(%ebp)
	movl	%edx, %eax
	xorl	$-2147483648, %eax
	movl	%eax, -396(%ebp)
	movl	-400(%ebp), %eax
	movl	-396(%ebp), %edx
L111:
	movl	%eax, -200(%ebp)
	movl	%edx, -196(%ebp)
	movsbl	-37(%ebp), %edx
	leal	-312(%ebp), %eax
	movl	-216(%ebp), %ecx
	movl	%ecx, 24(%esp)
	movl	-212(%ebp), %ecx
	movl	%ecx, 28(%esp)
	movl	-208(%ebp), %ecx
	movl	%ecx, 32(%esp)
	movl	-204(%ebp), %ecx
	movl	%ecx, 36(%esp)
	movl	-200(%ebp), %ecx
	movl	%ecx, 40(%esp)
	movl	-196(%ebp), %ecx
	movl	%ecx, 44(%esp)
	movl	-52(%ebp), %ecx
	movl	%ecx, 20(%esp)
	movl	-32(%ebp), %ecx
	movl	%ecx, 16(%esp)
	movl	-48(%ebp), %ecx
	movl	%ecx, 12(%esp)
	movl	-36(%ebp), %ecx
	movl	%ecx, 8(%esp)
	movl	-28(%ebp), %ecx
	movl	%ecx, 4(%esp)
	movl	%edx, (%esp)
	movl	%eax, %ecx
LEHB20:
	call	__ZN5cacheC1Eciiiii6cache_
LEHE20:
	subl	$48, %esp
	leal	-336(%ebp), %eax
	movl	%eax, %ecx
	call	__ZNSt7__cxx1112basic_stringIcSt11char_traitsIcESaIcEEC1Ev
	movl	$0, -44(%ebp)
L121:
	leal	-336(%ebp), %eax
	movl	%eax, 4(%esp)
	movl	$__ZSt3cin, (%esp)
LEHB21:
	call	__ZSt7getlineIcSt11char_traitsIcESaIcEERSt13basic_istreamIT_T0_ES7_RNSt7__cxx1112basic_stringIS4_S5_T1_EE
	movl	(%eax), %edx
	subl	$12, %edx
	movl	(%edx), %edx
	addl	%edx, %eax
	movl	%eax, %ecx
	call	__ZNKSt9basic_iosIcSt11char_traitsIcEEcvbEv
	testb	%al, %al
	je	L112
	addl	$1, -44(%ebp)
	movl	$0, -352(%ebp)
	movl	$0, -348(%ebp)
	leal	-352(%ebp), %eax
	movl	%eax, 8(%esp)
	leal	-337(%ebp), %eax
	movl	%eax, 4(%esp)
	leal	-336(%ebp), %eax
	movl	%eax, (%esp)
	call	__Z3insRKNSt7__cxx1112basic_stringIcSt11char_traitsIcESaIcEEERcRy
	testb	%al, %al
	je	L113
	movl	-352(%ebp), %eax
	movl	-348(%ebp), %edx
	leal	-376(%ebp), %ecx
	movl	%ecx, 12(%esp)
	movl	%eax, 4(%esp)
	movl	%edx, 8(%esp)
	leal	-216(%ebp), %eax
	movl	%eax, (%esp)
	call	__Z8fetchingRK6cache_yRS_
	movzbl	-337(%ebp), %eax
	cmpb	$114, %al
	jne	L116
	jmp	L147
L113:
	movl	$LC8, 4(%esp)
	movl	$__ZSt4cout, (%esp)
	call	__ZStlsISt11char_traitsIcEERSt13basic_ostreamIcT_ES5_PKc
	movl	$__ZSt4endlIcSt11char_traitsIcEERSt13basic_ostreamIT_T0_ES6_, (%esp)
	movl	%eax, %ecx
	call	__ZNSolsEPFRSoS_E
	subl	$4, %esp
	movl	$0, -384(%ebp)
	jmp	L115
L147:
	movl	-288(%ebp), %eax
	movl	-284(%ebp), %edx
	addl	$1, %eax
	adcl	$0, %edx
	movl	%eax, -288(%ebp)
	movl	%edx, -284(%ebp)
	leal	-376(%ebp), %eax
	movl	%eax, 4(%esp)
	leal	-312(%ebp), %eax
	movl	%eax, (%esp)
	call	__Z10addr_validR5cacheRK6cache_
	testb	%al, %al
	je	L117
	movl	-280(%ebp), %eax
	movl	-276(%ebp), %edx
	addl	$1, %eax
	adcl	$0, %edx
	movl	%eax, -280(%ebp)
	movl	%edx, -276(%ebp)
	jmp	L121
L117:
	leal	-376(%ebp), %eax
	movl	%eax, 4(%esp)
	leal	-312(%ebp), %eax
	movl	%eax, (%esp)
	call	__Z7replaceR5cacheRK6cache_
	jmp	L118
L116:
	movzbl	-337(%ebp), %eax
	cmpb	$119, %al
	jne	L119
	movl	-272(%ebp), %eax
	movl	-268(%ebp), %edx
	addl	$1, %eax
	adcl	$0, %edx
	movl	%eax, -272(%ebp)
	movl	%edx, -268(%ebp)
	leal	-376(%ebp), %eax
	movl	%eax, 4(%esp)
	leal	-312(%ebp), %eax
	movl	%eax, (%esp)
	call	__Z10addr_validR5cacheRK6cache_
	testb	%al, %al
	je	L120
	movl	-264(%ebp), %eax
	movl	-260(%ebp), %edx
	addl	$1, %eax
	adcl	$0, %edx
	movl	%eax, -264(%ebp)
	movl	%edx, -260(%ebp)
	jmp	L121
L120:
	leal	-376(%ebp), %eax
	movl	%eax, 4(%esp)
	leal	-312(%ebp), %eax
	movl	%eax, (%esp)
	call	__Z7replaceR5cacheRK6cache_
	jmp	L118
L119:
	movl	$LC9, 4(%esp)
	movl	$__ZSt4cout, (%esp)
	call	__ZStlsISt11char_traitsIcEERSt13basic_ostreamIcT_ES5_PKc
	movl	$__ZSt4endlIcSt11char_traitsIcEERSt13basic_ostreamIT_T0_ES6_, (%esp)
	movl	%eax, %ecx
	call	__ZNSolsEPFRSoS_E
	subl	$4, %esp
	movl	$0, -384(%ebp)
	jmp	L115
L118:
	jmp	L121
L115:
	movl	$0, %ebx
	jmp	L122
L112:
	movl	-288(%ebp), %ecx
	movl	-284(%ebp), %ebx
	movl	-280(%ebp), %eax
	movl	-276(%ebp), %edx
	subl	%eax, %ecx
	sbbl	%edx, %ebx
	movl	%ecx, %eax
	movl	%ebx, %edx
	movl	%eax, -64(%ebp)
	movl	%edx, -60(%ebp)
	movl	-272(%ebp), %ecx
	movl	-268(%ebp), %ebx
	movl	-264(%ebp), %eax
	movl	-260(%ebp), %edx
	subl	%eax, %ecx
	sbbl	%edx, %ebx
	movl	%ecx, %eax
	movl	%ebx, %edx
	movl	%eax, -72(%ebp)
	movl	%edx, -68(%ebp)
	fildq	-64(%ebp)
	cmpl	$0, -60(%ebp)
	jns	L123
	fldt	LC10
	faddp	%st, %st(1)
L123:
	fstpl	-392(%ebp)
	fldl	-392(%ebp)
	fldl	LC11
	fmulp	%st, %st(1)
	movl	-288(%ebp), %eax
	movl	-284(%ebp), %edx
	movl	%eax, -392(%ebp)
	movl	%edx, -388(%ebp)
	fildq	-392(%ebp)
	testl	%edx, %edx
	jns	L124
	fldt	LC10
	faddp	%st, %st(1)
L124:
	fstpl	-392(%ebp)
	fldl	-392(%ebp)
	fdivrp	%st, %st(1)
	fstpl	-80(%ebp)
	fildq	-72(%ebp)
	cmpl	$0, -68(%ebp)
	jns	L125
	fldt	LC10
	faddp	%st, %st(1)
L125:
	fstpl	-392(%ebp)
	fldl	-392(%ebp)
	fldl	LC11
	fmulp	%st, %st(1)
	movl	-272(%ebp), %eax
	movl	-268(%ebp), %edx
	movl	%eax, -392(%ebp)
	movl	%edx, -388(%ebp)
	fildq	-392(%ebp)
	testl	%edx, %edx
	jns	L126
	fldt	LC10
	faddp	%st, %st(1)
L126:
	fstpl	-392(%ebp)
	fldl	-392(%ebp)
	fdivrp	%st, %st(1)
	fstpl	-88(%ebp)
	movl	-64(%ebp), %ecx
	movl	-60(%ebp), %ebx
	movl	-72(%ebp), %eax
	movl	-68(%ebp), %edx
	addl	%ecx, %eax
	adcl	%ebx, %edx
	movl	%eax, -96(%ebp)
	movl	%edx, -92(%ebp)
	fildq	-96(%ebp)
	cmpl	$0, -92(%ebp)
	jns	L127
	fldt	LC10
	faddp	%st, %st(1)
L127:
	fstpl	-392(%ebp)
	fldl	-392(%ebp)
	fldl	LC11
	fmulp	%st, %st(1)
	movl	-288(%ebp), %ecx
	movl	-284(%ebp), %ebx
	movl	-272(%ebp), %eax
	movl	-268(%ebp), %edx
	addl	%eax, %ecx
	adcl	%edx, %ebx
	movl	%ecx, -392(%ebp)
	movl	%ebx, -388(%ebp)
	fildq	-392(%ebp)
	cmpl	$0, -388(%ebp)
	jns	L128
	fldt	LC10
	faddp	%st, %st(1)
L128:
	fstpl	-392(%ebp)
	fldl	-392(%ebp)
	fdivrp	%st, %st(1)
	fstpl	-104(%ebp)
	movl	-96(%ebp), %eax
	movl	-92(%ebp), %edx
	movl	%eax, (%esp)
	movl	%edx, 4(%esp)
	movl	$__ZSt4cout, %ecx
	call	__ZNSolsEy
	subl	$8, %esp
	movl	$LC12, 4(%esp)
	movl	%eax, (%esp)
	call	__ZStlsISt11char_traitsIcEERSt13basic_ostreamIcT_ES5_PKc
	fldl	-104(%ebp)
	fstpl	(%esp)
	movl	%eax, %ecx
	call	__ZNSolsEd
	subl	$8, %esp
	movl	$LC13, 4(%esp)
	movl	%eax, (%esp)
	call	__ZStlsISt11char_traitsIcEERSt13basic_ostreamIcT_ES5_PKc
	movl	%eax, %ecx
	movl	-64(%ebp), %eax
	movl	-60(%ebp), %edx
	movl	%eax, (%esp)
	movl	%edx, 4(%esp)
	call	__ZNSolsEy
	subl	$8, %esp
	movl	$LC12, 4(%esp)
	movl	%eax, (%esp)
	call	__ZStlsISt11char_traitsIcEERSt13basic_ostreamIcT_ES5_PKc
	fldl	-80(%ebp)
	fstpl	(%esp)
	movl	%eax, %ecx
	call	__ZNSolsEd
	subl	$8, %esp
	movl	$LC13, 4(%esp)
	movl	%eax, (%esp)
	call	__ZStlsISt11char_traitsIcEERSt13basic_ostreamIcT_ES5_PKc
	movl	%eax, %ecx
	movl	-72(%ebp), %eax
	movl	-68(%ebp), %edx
	movl	%eax, (%esp)
	movl	%edx, 4(%esp)
	call	__ZNSolsEy
	subl	$8, %esp
	movl	$LC12, 4(%esp)
	movl	%eax, (%esp)
	call	__ZStlsISt11char_traitsIcEERSt13basic_ostreamIcT_ES5_PKc
	fldl	-88(%ebp)
	fstpl	(%esp)
	movl	%eax, %ecx
	call	__ZNSolsEd
	subl	$8, %esp
	movl	$LC14, 4(%esp)
	movl	%eax, (%esp)
	call	__ZStlsISt11char_traitsIcEERSt13basic_ostreamIcT_ES5_PKc
	movl	$__ZSt4endlIcSt11char_traitsIcEERSt13basic_ostreamIT_T0_ES6_, (%esp)
	movl	%eax, %ecx
	call	__ZNSolsEPFRSoS_E
LEHE21:
	subl	$4, %esp
	movl	$1, %ebx
L122:
	leal	-336(%ebp), %eax
	movl	%eax, %ecx
	call	__ZNSt7__cxx1112basic_stringIcSt11char_traitsIcESaIcEED1Ev
	cmpl	$1, %ebx
	je	L129
	movl	$0, %ebx
	jmp	L130
L129:
	movl	$1, %ebx
L130:
	leal	-312(%ebp), %eax
	movl	%eax, %ecx
	call	__ZN5cacheD1Ev
	cmpl	$1, %ebx
	jne	L132
	movl	$0, -384(%ebp)
L132:
	movl	-384(%ebp), %eax
	jmp	L149
L141:
	movl	%eax, %ebx
	leal	-188(%ebp), %eax
	movl	%eax, %ecx
	call	__ZNSt7__cxx1112basic_stringIcSt11char_traitsIcESaIcEED1Ev
	jmp	L134
L140:
	movl	%eax, %ebx
L134:
	leal	-161(%ebp), %eax
	movl	%eax, %ecx
	call	__ZNSaIcED1Ev
	movl	%ebx, %eax
	movl	%eax, (%esp)
LEHB22:
	call	__Unwind_Resume
L143:
	movl	%eax, %ebx
	leal	-160(%ebp), %eax
	movl	%eax, %ecx
	call	__ZNSt7__cxx1112basic_stringIcSt11char_traitsIcESaIcEED1Ev
	jmp	L136
L142:
	movl	%eax, %ebx
L136:
	leal	-133(%ebp), %eax
	movl	%eax, %ecx
	call	__ZNSaIcED1Ev
	movl	%ebx, %eax
	movl	%eax, (%esp)
	call	__Unwind_Resume
L145:
	movl	%eax, %ebx
	leal	-132(%ebp), %eax
	movl	%eax, %ecx
	call	__ZNSt7__cxx1112basic_stringIcSt11char_traitsIcESaIcEED1Ev
	jmp	L138
L144:
	movl	%eax, %ebx
L138:
	leal	-105(%ebp), %eax
	movl	%eax, %ecx
	call	__ZNSaIcED1Ev
	movl	%ebx, %eax
	movl	%eax, (%esp)
	call	__Unwind_Resume
L146:
	movl	%eax, %ebx
	leal	-336(%ebp), %eax
	movl	%eax, %ecx
	call	__ZNSt7__cxx1112basic_stringIcSt11char_traitsIcESaIcEED1Ev
	leal	-312(%ebp), %eax
	movl	%eax, %ecx
	call	__ZN5cacheD1Ev
	movl	%ebx, %eax
	movl	%eax, (%esp)
	call	__Unwind_Resume
LEHE22:
L149:
	leal	-16(%ebp), %esp
	popl	%ecx
	.cfi_restore 1
	.cfi_def_cfa 1, 0
	popl	%ebx
	.cfi_restore 3
	popl	%esi
	.cfi_restore 6
	popl	%edi
	.cfi_restore 7
	popl	%ebp
	.cfi_restore 5
	leal	-4(%ecx), %esp
	.cfi_def_cfa 4, 4
	ret
	.cfi_endproc
LFE3579:
	.section	.gcc_except_table,"w"
LLSDA3579:
	.byte	0xff
	.byte	0xff
	.byte	0x1
	.uleb128 LLSDACSE3579-LLSDACSB3579
LLSDACSB3579:
	.uleb128 LEHB13-LFB3579
	.uleb128 LEHE13-LEHB13
	.uleb128 0
	.uleb128 0
	.uleb128 LEHB14-LFB3579
	.uleb128 LEHE14-LEHB14
	.uleb128 L140-LFB3579
	.uleb128 0
	.uleb128 LEHB15-LFB3579
	.uleb128 LEHE15-LEHB15
	.uleb128 L141-LFB3579
	.uleb128 0
	.uleb128 LEHB16-LFB3579
	.uleb128 LEHE16-LEHB16
	.uleb128 L142-LFB3579
	.uleb128 0
	.uleb128 LEHB17-LFB3579
	.uleb128 LEHE17-LEHB17
	.uleb128 L143-LFB3579
	.uleb128 0
	.uleb128 LEHB18-LFB3579
	.uleb128 LEHE18-LEHB18
	.uleb128 L144-LFB3579
	.uleb128 0
	.uleb128 LEHB19-LFB3579
	.uleb128 LEHE19-LEHB19
	.uleb128 L145-LFB3579
	.uleb128 0
	.uleb128 LEHB20-LFB3579
	.uleb128 LEHE20-LEHB20
	.uleb128 0
	.uleb128 0
	.uleb128 LEHB21-LFB3579
	.uleb128 LEHE21-LEHB21
	.uleb128 L146-LFB3579
	.uleb128 0
	.uleb128 LEHB22-LFB3579
	.uleb128 LEHE22-LEHB22
	.uleb128 0
	.uleb128 0
LLSDACSE3579:
	.text
	.section	.text$_ZZN9__gnu_cxx6__stoaIlicJiEEET0_PFT_PKT1_PPS3_DpT2_EPKcS5_PjS9_EN11_Save_errnoC1Ev,"x"
	.linkonce discard
	.align 2
	.globl	__ZZN9__gnu_cxx6__stoaIlicJiEEET0_PFT_PKT1_PPS3_DpT2_EPKcS5_PjS9_EN11_Save_errnoC1Ev
	.def	__ZZN9__gnu_cxx6__stoaIlicJiEEET0_PFT_PKT1_PPS3_DpT2_EPKcS5_PjS9_EN11_Save_errnoC1Ev;	.scl	2;	.type	32;	.endef
__ZZN9__gnu_cxx6__stoaIlicJiEEET0_PFT_PKT1_PPS3_DpT2_EPKcS5_PjS9_EN11_Save_errnoC1Ev:
LFB3587:
	.cfi_startproc
	pushl	%ebp
	.cfi_def_cfa_offset 8
	.cfi_offset 5, -8
	movl	%esp, %ebp
	.cfi_def_cfa_register 5
	subl	$24, %esp
	movl	%ecx, -12(%ebp)
	call	__errno
	movl	(%eax), %edx
	movl	-12(%ebp), %eax
	movl	%edx, (%eax)
	call	__errno
	movl	$0, (%eax)
	nop
	leave
	.cfi_restore 5
	.cfi_def_cfa 4, 4
	ret
	.cfi_endproc
LFE3587:
	.section	.text$_ZZN9__gnu_cxx6__stoaIlicJiEEET0_PFT_PKT1_PPS3_DpT2_EPKcS5_PjS9_EN11_Save_errnoD1Ev,"x"
	.linkonce discard
	.align 2
	.globl	__ZZN9__gnu_cxx6__stoaIlicJiEEET0_PFT_PKT1_PPS3_DpT2_EPKcS5_PjS9_EN11_Save_errnoD1Ev
	.def	__ZZN9__gnu_cxx6__stoaIlicJiEEET0_PFT_PKT1_PPS3_DpT2_EPKcS5_PjS9_EN11_Save_errnoD1Ev;	.scl	2;	.type	32;	.endef
__ZZN9__gnu_cxx6__stoaIlicJiEEET0_PFT_PKT1_PPS3_DpT2_EPKcS5_PjS9_EN11_Save_errnoD1Ev:
LFB3590:
	.cfi_startproc
	pushl	%ebp
	.cfi_def_cfa_offset 8
	.cfi_offset 5, -8
	movl	%esp, %ebp
	.cfi_def_cfa_register 5
	subl	$24, %esp
	movl	%ecx, -12(%ebp)
	call	__errno
	movl	(%eax), %eax
	testl	%eax, %eax
	sete	%al
	testb	%al, %al
	je	L153
	call	__errno
	movl	-12(%ebp), %edx
	movl	(%edx), %edx
	movl	%edx, (%eax)
L153:
	nop
	leave
	.cfi_restore 5
	.cfi_def_cfa 4, 4
	ret
	.cfi_endproc
LFE3590:
	.section	.text$_ZZN9__gnu_cxx6__stoaIlicJiEEET0_PFT_PKT1_PPS3_DpT2_EPKcS5_PjS9_EN10_Range_chk6_S_chkElSt17integral_constantIbLb1EE,"x"
	.linkonce discard
	.globl	__ZZN9__gnu_cxx6__stoaIlicJiEEET0_PFT_PKT1_PPS3_DpT2_EPKcS5_PjS9_EN10_Range_chk6_S_chkElSt17integral_constantIbLb1EE
	.def	__ZZN9__gnu_cxx6__stoaIlicJiEEET0_PFT_PKT1_PPS3_DpT2_EPKcS5_PjS9_EN10_Range_chk6_S_chkElSt17integral_constantIbLb1EE;	.scl	2;	.type	32;	.endef
__ZZN9__gnu_cxx6__stoaIlicJiEEET0_PFT_PKT1_PPS3_DpT2_EPKcS5_PjS9_EN10_Range_chk6_S_chkElSt17integral_constantIbLb1EE:
LFB3592:
	.cfi_startproc
	pushl	%ebp
	.cfi_def_cfa_offset 8
	.cfi_offset 5, -8
	movl	%esp, %ebp
	.cfi_def_cfa_register 5
	movl	$0, %eax
	popl	%ebp
	.cfi_restore 5
	.cfi_def_cfa 4, 4
	ret
	.cfi_endproc
LFE3592:
	.section	.text$_ZN9__gnu_cxx6__stoaIlicJiEEET0_PFT_PKT1_PPS3_DpT2_EPKcS5_PjS9_,"x"
	.linkonce discard
	.globl	__ZN9__gnu_cxx6__stoaIlicJiEEET0_PFT_PKT1_PPS3_DpT2_EPKcS5_PjS9_
	.def	__ZN9__gnu_cxx6__stoaIlicJiEEET0_PFT_PKT1_PPS3_DpT2_EPKcS5_PjS9_;	.scl	2;	.type	32;	.endef
__ZN9__gnu_cxx6__stoaIlicJiEEET0_PFT_PKT1_PPS3_DpT2_EPKcS5_PjS9_:
LFB3584:
	.cfi_startproc
	.cfi_personality 0,___gxx_personality_v0
	.cfi_lsda 0,LLSDA3584
	pushl	%ebp
	.cfi_def_cfa_offset 8
	.cfi_offset 5, -8
	movl	%esp, %ebp
	.cfi_def_cfa_register 5
	pushl	%ebx
	subl	$52, %esp
	.cfi_offset 3, -12
	leal	-28(%ebp), %eax
	movl	%eax, %ecx
	call	__ZZN9__gnu_cxx6__stoaIlicJiEEET0_PFT_PKT1_PPS3_DpT2_EPKcS5_PjS9_EN11_Save_errnoC1Ev
	movl	24(%ebp), %eax
	movl	%eax, 8(%esp)
	leal	-24(%ebp), %eax
	movl	%eax, 4(%esp)
	movl	16(%ebp), %eax
	movl	%eax, (%esp)
	movl	8(%ebp), %eax
LEHB23:
	call	*%eax
	movl	%eax, -12(%ebp)
	movl	-24(%ebp), %eax
	cmpl	%eax, 16(%ebp)
	jne	L157
	movl	12(%ebp), %eax
	movl	%eax, (%esp)
	call	__ZSt24__throw_invalid_argumentPKc
L157:
	call	__errno
	movl	(%eax), %eax
	cmpl	$34, %eax
	je	L158
	movb	%bl, 4(%esp)
	movl	-12(%ebp), %eax
	movl	%eax, (%esp)
	call	__ZZN9__gnu_cxx6__stoaIlicJiEEET0_PFT_PKT1_PPS3_DpT2_EPKcS5_PjS9_EN10_Range_chk6_S_chkElSt17integral_constantIbLb1EE
	testb	%al, %al
	je	L159
L158:
	movl	$1, %eax
	jmp	L160
L159:
	movl	$0, %eax
L160:
	testb	%al, %al
	je	L161
	movl	12(%ebp), %eax
	movl	%eax, (%esp)
	call	__ZSt20__throw_out_of_rangePKc
LEHE23:
L161:
	movl	-12(%ebp), %eax
	movl	%eax, -16(%ebp)
	cmpl	$0, 20(%ebp)
	je	L162
	movl	-24(%ebp), %eax
	subl	16(%ebp), %eax
	movl	%eax, %edx
	movl	20(%ebp), %eax
	movl	%edx, (%eax)
L162:
	movl	-16(%ebp), %ebx
	leal	-28(%ebp), %eax
	movl	%eax, %ecx
	call	__ZZN9__gnu_cxx6__stoaIlicJiEEET0_PFT_PKT1_PPS3_DpT2_EPKcS5_PjS9_EN11_Save_errnoD1Ev
	movl	%ebx, %eax
	jmp	L166
L165:
	movl	%eax, %ebx
	leal	-28(%ebp), %eax
	movl	%eax, %ecx
	call	__ZZN9__gnu_cxx6__stoaIlicJiEEET0_PFT_PKT1_PPS3_DpT2_EPKcS5_PjS9_EN11_Save_errnoD1Ev
	movl	%ebx, %eax
	movl	%eax, (%esp)
LEHB24:
	call	__Unwind_Resume
LEHE24:
L166:
	addl	$52, %esp
	popl	%ebx
	.cfi_restore 3
	popl	%ebp
	.cfi_restore 5
	.cfi_def_cfa 4, 4
	ret
	.cfi_endproc
LFE3584:
	.section	.gcc_except_table,"w"
LLSDA3584:
	.byte	0xff
	.byte	0xff
	.byte	0x1
	.uleb128 LLSDACSE3584-LLSDACSB3584
LLSDACSB3584:
	.uleb128 LEHB23-LFB3584
	.uleb128 LEHE23-LEHB23
	.uleb128 L165-LFB3584
	.uleb128 0
	.uleb128 LEHB24-LFB3584
	.uleb128 LEHE24-LEHB24
	.uleb128 0
	.uleb128 0
LLSDACSE3584:
	.section	.text$_ZN9__gnu_cxx6__stoaIlicJiEEET0_PFT_PKT1_PPS3_DpT2_EPKcS5_PjS9_,"x"
	.linkonce discard
	.section	.text$_ZSt7forwardIiEOT_RNSt16remove_referenceIS0_E4typeE,"x"
	.linkonce discard
	.globl	__ZSt7forwardIiEOT_RNSt16remove_referenceIS0_E4typeE
	.def	__ZSt7forwardIiEOT_RNSt16remove_referenceIS0_E4typeE;	.scl	2;	.type	32;	.endef
__ZSt7forwardIiEOT_RNSt16remove_referenceIS0_E4typeE:
LFB3860:
	.cfi_startproc
	pushl	%ebp
	.cfi_def_cfa_offset 8
	.cfi_offset 5, -8
	movl	%esp, %ebp
	.cfi_def_cfa_register 5
	movl	8(%ebp), %eax
	popl	%ebp
	.cfi_restore 5
	.cfi_def_cfa 4, 4
	ret
	.cfi_endproc
LFE3860:
	.section	.text$_ZNSaI5blockEC1Ev,"x"
	.linkonce discard
	.align 2
	.globl	__ZNSaI5blockEC1Ev
	.def	__ZNSaI5blockEC1Ev;	.scl	2;	.type	32;	.endef
__ZNSaI5blockEC1Ev:
LFB3865:
	.cfi_startproc
	pushl	%ebp
	.cfi_def_cfa_offset 8
	.cfi_offset 5, -8
	movl	%esp, %ebp
	.cfi_def_cfa_register 5
	subl	$24, %esp
	movl	%ecx, -12(%ebp)
	movl	-12(%ebp), %eax
	movl	%eax, %ecx
	call	__ZN9__gnu_cxx13new_allocatorI5blockEC2Ev
	nop
	leave
	.cfi_restore 5
	.cfi_def_cfa 4, 4
	ret
	.cfi_endproc
LFE3865:
	.section	.text$_ZNSaI5blockED2Ev,"x"
	.linkonce discard
	.align 2
	.globl	__ZNSaI5blockED2Ev
	.def	__ZNSaI5blockED2Ev;	.scl	2;	.type	32;	.endef
__ZNSaI5blockED2Ev:
LFB3867:
	.cfi_startproc
	pushl	%ebp
	.cfi_def_cfa_offset 8
	.cfi_offset 5, -8
	movl	%esp, %ebp
	.cfi_def_cfa_register 5
	subl	$24, %esp
	movl	%ecx, -12(%ebp)
	movl	-12(%ebp), %eax
	movl	%eax, %ecx
	call	__ZN9__gnu_cxx13new_allocatorI5blockED2Ev
	nop
	leave
	.cfi_restore 5
	.cfi_def_cfa 4, 4
	ret
	.cfi_endproc
LFE3867:
	.section	.text$_ZNSaI5blockED1Ev,"x"
	.linkonce discard
	.align 2
	.globl	__ZNSaI5blockED1Ev
	.def	__ZNSaI5blockED1Ev;	.scl	2;	.type	32;	.endef
__ZNSaI5blockED1Ev:
LFB3868:
	.cfi_startproc
	pushl	%ebp
	.cfi_def_cfa_offset 8
	.cfi_offset 5, -8
	movl	%esp, %ebp
	.cfi_def_cfa_register 5
	subl	$24, %esp
	movl	%ecx, -12(%ebp)
	movl	-12(%ebp), %eax
	movl	%eax, %ecx
	call	__ZN9__gnu_cxx13new_allocatorI5blockED2Ev
	nop
	leave
	.cfi_restore 5
	.cfi_def_cfa 4, 4
	ret
	.cfi_endproc
LFE3868:
	.section	.text$_ZNSt6vectorI5blockSaIS0_EEC1EjRKS0_RKS1_,"x"
	.linkonce discard
	.align 2
	.globl	__ZNSt6vectorI5blockSaIS0_EEC1EjRKS0_RKS1_
	.def	__ZNSt6vectorI5blockSaIS0_EEC1EjRKS0_RKS1_;	.scl	2;	.type	32;	.endef
__ZNSt6vectorI5blockSaIS0_EEC1EjRKS0_RKS1_:
LFB3871:
	.cfi_startproc
	.cfi_personality 0,___gxx_personality_v0
	.cfi_lsda 0,LLSDA3871
	pushl	%ebp
	.cfi_def_cfa_offset 8
	.cfi_offset 5, -8
	movl	%esp, %ebp
	.cfi_def_cfa_register 5
	pushl	%ebx
	subl	$36, %esp
	.cfi_offset 3, -12
	movl	%ecx, -12(%ebp)
	movl	-12(%ebp), %ebx
	movl	16(%ebp), %eax
	movl	%eax, 4(%esp)
	movl	8(%ebp), %eax
	movl	%eax, (%esp)
LEHB25:
	call	__ZNSt6vectorI5blockSaIS0_EE17_S_check_init_lenEjRKS1_
	movl	16(%ebp), %edx
	movl	%edx, 4(%esp)
	movl	%eax, (%esp)
	movl	%ebx, %ecx
	call	__ZNSt12_Vector_baseI5blockSaIS0_EEC2EjRKS1_
LEHE25:
	subl	$8, %esp
	movl	-12(%ebp), %eax
	movl	12(%ebp), %edx
	movl	%edx, 4(%esp)
	movl	8(%ebp), %edx
	movl	%edx, (%esp)
	movl	%eax, %ecx
LEHB26:
	call	__ZNSt6vectorI5blockSaIS0_EE18_M_fill_initializeEjRKS0_
LEHE26:
	subl	$8, %esp
	jmp	L175
L174:
	movl	%eax, %ebx
	movl	-12(%ebp), %eax
	movl	%eax, %ecx
	call	__ZNSt12_Vector_baseI5blockSaIS0_EED2Ev
	movl	%ebx, %eax
	movl	%eax, (%esp)
LEHB27:
	call	__Unwind_Resume
LEHE27:
L175:
	movl	-4(%ebp), %ebx
	leave
	.cfi_restore 5
	.cfi_restore 3
	.cfi_def_cfa 4, 4
	ret	$12
	.cfi_endproc
LFE3871:
	.section	.gcc_except_table,"w"
LLSDA3871:
	.byte	0xff
	.byte	0xff
	.byte	0x1
	.uleb128 LLSDACSE3871-LLSDACSB3871
LLSDACSB3871:
	.uleb128 LEHB25-LFB3871
	.uleb128 LEHE25-LEHB25
	.uleb128 0
	.uleb128 0
	.uleb128 LEHB26-LFB3871
	.uleb128 LEHE26-LEHB26
	.uleb128 L174-LFB3871
	.uleb128 0
	.uleb128 LEHB27-LFB3871
	.uleb128 LEHE27-LEHB27
	.uleb128 0
	.uleb128 0
LLSDACSE3871:
	.section	.text$_ZNSt6vectorI5blockSaIS0_EEC1EjRKS0_RKS1_,"x"
	.linkonce discard
	.section	.text$_ZNSt6vectorI5blockSaIS0_EED1Ev,"x"
	.linkonce discard
	.align 2
	.globl	__ZNSt6vectorI5blockSaIS0_EED1Ev
	.def	__ZNSt6vectorI5blockSaIS0_EED1Ev;	.scl	2;	.type	32;	.endef
__ZNSt6vectorI5blockSaIS0_EED1Ev:
LFB3874:
	.cfi_startproc
	.cfi_personality 0,___gxx_personality_v0
	.cfi_lsda 0,LLSDA3874
	pushl	%ebp
	.cfi_def_cfa_offset 8
	.cfi_offset 5, -8
	movl	%esp, %ebp
	.cfi_def_cfa_register 5
	subl	$40, %esp
	movl	%ecx, -12(%ebp)
	movl	-12(%ebp), %eax
	movl	%eax, %ecx
	call	__ZNSt12_Vector_baseI5blockSaIS0_EE19_M_get_Tp_allocatorEv
	movl	-12(%ebp), %edx
	movl	4(%edx), %ecx
	movl	-12(%ebp), %edx
	movl	(%edx), %edx
	movl	%eax, 8(%esp)
	movl	%ecx, 4(%esp)
	movl	%edx, (%esp)
	call	__ZSt8_DestroyIP5blockS0_EvT_S2_RSaIT0_E
	movl	-12(%ebp), %eax
	movl	%eax, %ecx
	call	__ZNSt12_Vector_baseI5blockSaIS0_EED2Ev
	nop
	leave
	.cfi_restore 5
	.cfi_def_cfa 4, 4
	ret
	.cfi_endproc
LFE3874:
	.section	.gcc_except_table,"w"
LLSDA3874:
	.byte	0xff
	.byte	0xff
	.byte	0x1
	.uleb128 LLSDACSE3874-LLSDACSB3874
LLSDACSB3874:
LLSDACSE3874:
	.section	.text$_ZNSt6vectorI5blockSaIS0_EED1Ev,"x"
	.linkonce discard
	.section	.text$_ZNSaINSt8__detail10_Hash_nodeISt4pairIKiiELb0EEEEC2Ev,"x"
	.linkonce discard
	.align 2
	.globl	__ZNSaINSt8__detail10_Hash_nodeISt4pairIKiiELb0EEEEC2Ev
	.def	__ZNSaINSt8__detail10_Hash_nodeISt4pairIKiiELb0EEEEC2Ev;	.scl	2;	.type	32;	.endef
__ZNSaINSt8__detail10_Hash_nodeISt4pairIKiiELb0EEEEC2Ev:
LFB3876:
	.cfi_startproc
	pushl	%ebp
	.cfi_def_cfa_offset 8
	.cfi_offset 5, -8
	movl	%esp, %ebp
	.cfi_def_cfa_register 5
	subl	$24, %esp
	movl	%ecx, -12(%ebp)
	movl	-12(%ebp), %eax
	movl	%eax, %ecx
	call	__ZN9__gnu_cxx13new_allocatorINSt8__detail10_Hash_nodeISt4pairIKiiELb0EEEEC2Ev
	nop
	leave
	.cfi_restore 5
	.cfi_def_cfa 4, 4
	ret
	.cfi_endproc
LFE3876:
	.section	.text$_ZNSaINSt8__detail10_Hash_nodeISt4pairIKiiELb0EEEED2Ev,"x"
	.linkonce discard
	.align 2
	.globl	__ZNSaINSt8__detail10_Hash_nodeISt4pairIKiiELb0EEEED2Ev
	.def	__ZNSaINSt8__detail10_Hash_nodeISt4pairIKiiELb0EEEED2Ev;	.scl	2;	.type	32;	.endef
__ZNSaINSt8__detail10_Hash_nodeISt4pairIKiiELb0EEEED2Ev:
LFB3879:
	.cfi_startproc
	pushl	%ebp
	.cfi_def_cfa_offset 8
	.cfi_offset 5, -8
	movl	%esp, %ebp
	.cfi_def_cfa_register 5
	subl	$24, %esp
	movl	%ecx, -12(%ebp)
	movl	-12(%ebp), %eax
	movl	%eax, %ecx
	call	__ZN9__gnu_cxx13new_allocatorINSt8__detail10_Hash_nodeISt4pairIKiiELb0EEEED2Ev
	nop
	leave
	.cfi_restore 5
	.cfi_def_cfa 4, 4
	ret
	.cfi_endproc
LFE3879:
	.section	.text$_ZNSaINSt8__detail10_Hash_nodeISt4pairIKiiELb0EEEED1Ev,"x"
	.linkonce discard
	.align 2
	.globl	__ZNSaINSt8__detail10_Hash_nodeISt4pairIKiiELb0EEEED1Ev
	.def	__ZNSaINSt8__detail10_Hash_nodeISt4pairIKiiELb0EEEED1Ev;	.scl	2;	.type	32;	.endef
__ZNSaINSt8__detail10_Hash_nodeISt4pairIKiiELb0EEEED1Ev:
LFB3880:
	.cfi_startproc
	pushl	%ebp
	.cfi_def_cfa_offset 8
	.cfi_offset 5, -8
	movl	%esp, %ebp
	.cfi_def_cfa_register 5
	subl	$24, %esp
	movl	%ecx, -12(%ebp)
	movl	-12(%ebp), %eax
	movl	%eax, %ecx
	call	__ZN9__gnu_cxx13new_allocatorINSt8__detail10_Hash_nodeISt4pairIKiiELb0EEEED2Ev
	nop
	leave
	.cfi_restore 5
	.cfi_def_cfa 4, 4
	ret
	.cfi_endproc
LFE3880:
	.section	.text$_ZNSt10_HashtableIiSt4pairIKiiESaIS2_ENSt8__detail10_Select1stESt8equal_toIiESt4hashIiENS4_18_Mod_range_hashingENS4_20_Default_ranged_hashENS4_20_Prime_rehash_policyENS4_17_Hashtable_traitsILb0ELb0ELb1EEEED1Ev,"x"
	.linkonce discard
	.align 2
	.globl	__ZNSt10_HashtableIiSt4pairIKiiESaIS2_ENSt8__detail10_Select1stESt8equal_toIiESt4hashIiENS4_18_Mod_range_hashingENS4_20_Default_ranged_hashENS4_20_Prime_rehash_policyENS4_17_Hashtable_traitsILb0ELb0ELb1EEEED1Ev
	.def	__ZNSt10_HashtableIiSt4pairIKiiESaIS2_ENSt8__detail10_Select1stESt8equal_toIiESt4hashIiENS4_18_Mod_range_hashingENS4_20_Default_ranged_hashENS4_20_Prime_rehash_policyENS4_17_Hashtable_traitsILb0ELb0ELb1EEEED1Ev;	.scl	2;	.type	32;	.endef
__ZNSt10_HashtableIiSt4pairIKiiESaIS2_ENSt8__detail10_Select1stESt8equal_toIiESt4hashIiENS4_18_Mod_range_hashingENS4_20_Default_ranged_hashENS4_20_Prime_rehash_policyENS4_17_Hashtable_traitsILb0ELb0ELb1EEEED1Ev:
LFB3883:
	.cfi_startproc
	.cfi_personality 0,___gxx_personality_v0
	.cfi_lsda 0,LLSDA3883
	pushl	%ebp
	.cfi_def_cfa_offset 8
	.cfi_offset 5, -8
	movl	%esp, %ebp
	.cfi_def_cfa_register 5
	subl	$24, %esp
	movl	%ecx, -12(%ebp)
	movl	-12(%ebp), %eax
	movl	%eax, %ecx
	call	__ZNSt10_HashtableIiSt4pairIKiiESaIS2_ENSt8__detail10_Select1stESt8equal_toIiESt4hashIiENS4_18_Mod_range_hashingENS4_20_Default_ranged_hashENS4_20_Prime_rehash_policyENS4_17_Hashtable_traitsILb0ELb0ELb1EEEE5clearEv
	movl	-12(%ebp), %eax
	movl	%eax, %ecx
	call	__ZNSt10_HashtableIiSt4pairIKiiESaIS2_ENSt8__detail10_Select1stESt8equal_toIiESt4hashIiENS4_18_Mod_range_hashingENS4_20_Default_ranged_hashENS4_20_Prime_rehash_policyENS4_17_Hashtable_traitsILb0ELb0ELb1EEEE21_M_deallocate_bucketsEv
	movl	-12(%ebp), %eax
	movl	%eax, %ecx
	call	__ZNSt8__detail16_Hashtable_allocISaINS_10_Hash_nodeISt4pairIKiiELb0EEEEED2Ev
	nop
	leave
	.cfi_restore 5
	.cfi_def_cfa 4, 4
	ret
	.cfi_endproc
LFE3883:
	.section	.gcc_except_table,"w"
LLSDA3883:
	.byte	0xff
	.byte	0xff
	.byte	0x1
	.uleb128 LLSDACSE3883-LLSDACSB3883
LLSDACSB3883:
LLSDACSE3883:
	.section	.text$_ZNSt10_HashtableIiSt4pairIKiiESaIS2_ENSt8__detail10_Select1stESt8equal_toIiESt4hashIiENS4_18_Mod_range_hashingENS4_20_Default_ranged_hashENS4_20_Prime_rehash_policyENS4_17_Hashtable_traitsILb0ELb0ELb1EEEED1Ev,"x"
	.linkonce discard
	.section	.text$_ZNSt7__cxx1110_List_baseIiSaIiEE10_List_implC1Ev,"x"
	.linkonce discard
	.align 2
	.globl	__ZNSt7__cxx1110_List_baseIiSaIiEE10_List_implC1Ev
	.def	__ZNSt7__cxx1110_List_baseIiSaIiEE10_List_implC1Ev;	.scl	2;	.type	32;	.endef
__ZNSt7__cxx1110_List_baseIiSaIiEE10_List_implC1Ev:
LFB3886:
	.cfi_startproc
	pushl	%ebp
	.cfi_def_cfa_offset 8
	.cfi_offset 5, -8
	movl	%esp, %ebp
	.cfi_def_cfa_register 5
	subl	$24, %esp
	movl	%ecx, -12(%ebp)
	movl	-12(%ebp), %eax
	movl	%eax, %ecx
	call	__ZNSaISt10_List_nodeIiEEC2Ev
	movl	-12(%ebp), %eax
	movl	%eax, %ecx
	call	__ZNSt8__detail17_List_node_headerC1Ev
	nop
	leave
	.cfi_restore 5
	.cfi_def_cfa 4, 4
	ret
	.cfi_endproc
LFE3886:
	.section	.text$_ZNSaISt10_List_nodeIiEED2Ev,"x"
	.linkonce discard
	.align 2
	.globl	__ZNSaISt10_List_nodeIiEED2Ev
	.def	__ZNSaISt10_List_nodeIiEED2Ev;	.scl	2;	.type	32;	.endef
__ZNSaISt10_List_nodeIiEED2Ev:
LFB3888:
	.cfi_startproc
	pushl	%ebp
	.cfi_def_cfa_offset 8
	.cfi_offset 5, -8
	movl	%esp, %ebp
	.cfi_def_cfa_register 5
	subl	$24, %esp
	movl	%ecx, -12(%ebp)
	movl	-12(%ebp), %eax
	movl	%eax, %ecx
	call	__ZN9__gnu_cxx13new_allocatorISt10_List_nodeIiEED2Ev
	nop
	leave
	.cfi_restore 5
	.cfi_def_cfa 4, 4
	ret
	.cfi_endproc
LFE3888:
	.section	.text$_ZNSaISt10_List_nodeIiEED1Ev,"x"
	.linkonce discard
	.align 2
	.globl	__ZNSaISt10_List_nodeIiEED1Ev
	.def	__ZNSaISt10_List_nodeIiEED1Ev;	.scl	2;	.type	32;	.endef
__ZNSaISt10_List_nodeIiEED1Ev:
LFB3889:
	.cfi_startproc
	pushl	%ebp
	.cfi_def_cfa_offset 8
	.cfi_offset 5, -8
	movl	%esp, %ebp
	.cfi_def_cfa_register 5
	subl	$24, %esp
	movl	%ecx, -12(%ebp)
	movl	-12(%ebp), %eax
	movl	%eax, %ecx
	call	__ZN9__gnu_cxx13new_allocatorISt10_List_nodeIiEED2Ev
	nop
	leave
	.cfi_restore 5
	.cfi_def_cfa 4, 4
	ret
	.cfi_endproc
LFE3889:
	.section	.text$_ZNSt7__cxx1110_List_baseIiSaIiEED2Ev,"x"
	.linkonce discard
	.align 2
	.globl	__ZNSt7__cxx1110_List_baseIiSaIiEED2Ev
	.def	__ZNSt7__cxx1110_List_baseIiSaIiEED2Ev;	.scl	2;	.type	32;	.endef
__ZNSt7__cxx1110_List_baseIiSaIiEED2Ev:
LFB3891:
	.cfi_startproc
	pushl	%ebp
	.cfi_def_cfa_offset 8
	.cfi_offset 5, -8
	movl	%esp, %ebp
	.cfi_def_cfa_register 5
	subl	$24, %esp
	movl	%ecx, -12(%ebp)
	movl	-12(%ebp), %eax
	movl	%eax, %ecx
	call	__ZNSt7__cxx1110_List_baseIiSaIiEE8_M_clearEv
	movl	-12(%ebp), %eax
	movl	%eax, %ecx
	call	__ZNSt7__cxx1110_List_baseIiSaIiEE10_List_implD1Ev
	nop
	leave
	.cfi_restore 5
	.cfi_def_cfa 4, 4
	ret
	.cfi_endproc
LFE3891:
	.section	.text$_ZNSaI9cache_setEC1Ev,"x"
	.linkonce discard
	.align 2
	.globl	__ZNSaI9cache_setEC1Ev
	.def	__ZNSaI9cache_setEC1Ev;	.scl	2;	.type	32;	.endef
__ZNSaI9cache_setEC1Ev:
LFB3895:
	.cfi_startproc
	pushl	%ebp
	.cfi_def_cfa_offset 8
	.cfi_offset 5, -8
	movl	%esp, %ebp
	.cfi_def_cfa_register 5
	subl	$24, %esp
	movl	%ecx, -12(%ebp)
	movl	-12(%ebp), %eax
	movl	%eax, %ecx
	call	__ZN9__gnu_cxx13new_allocatorI9cache_setEC2Ev
	nop
	leave
	.cfi_restore 5
	.cfi_def_cfa 4, 4
	ret
	.cfi_endproc
LFE3895:
	.section	.text$_ZNSaI9cache_setED2Ev,"x"
	.linkonce discard
	.align 2
	.globl	__ZNSaI9cache_setED2Ev
	.def	__ZNSaI9cache_setED2Ev;	.scl	2;	.type	32;	.endef
__ZNSaI9cache_setED2Ev:
LFB3897:
	.cfi_startproc
	pushl	%ebp
	.cfi_def_cfa_offset 8
	.cfi_offset 5, -8
	movl	%esp, %ebp
	.cfi_def_cfa_register 5
	subl	$24, %esp
	movl	%ecx, -12(%ebp)
	movl	-12(%ebp), %eax
	movl	%eax, %ecx
	call	__ZN9__gnu_cxx13new_allocatorI9cache_setED2Ev
	nop
	leave
	.cfi_restore 5
	.cfi_def_cfa 4, 4
	ret
	.cfi_endproc
LFE3897:
	.section	.text$_ZNSaI9cache_setED1Ev,"x"
	.linkonce discard
	.align 2
	.globl	__ZNSaI9cache_setED1Ev
	.def	__ZNSaI9cache_setED1Ev;	.scl	2;	.type	32;	.endef
__ZNSaI9cache_setED1Ev:
LFB3898:
	.cfi_startproc
	pushl	%ebp
	.cfi_def_cfa_offset 8
	.cfi_offset 5, -8
	movl	%esp, %ebp
	.cfi_def_cfa_register 5
	subl	$24, %esp
	movl	%ecx, -12(%ebp)
	movl	-12(%ebp), %eax
	movl	%eax, %ecx
	call	__ZN9__gnu_cxx13new_allocatorI9cache_setED2Ev
	nop
	leave
	.cfi_restore 5
	.cfi_def_cfa 4, 4
	ret
	.cfi_endproc
LFE3898:
	.section	.text$_ZNSt6vectorI9cache_setSaIS0_EEC1EjRKS0_RKS1_,"x"
	.linkonce discard
	.align 2
	.globl	__ZNSt6vectorI9cache_setSaIS0_EEC1EjRKS0_RKS1_
	.def	__ZNSt6vectorI9cache_setSaIS0_EEC1EjRKS0_RKS1_;	.scl	2;	.type	32;	.endef
__ZNSt6vectorI9cache_setSaIS0_EEC1EjRKS0_RKS1_:
LFB3901:
	.cfi_startproc
	.cfi_personality 0,___gxx_personality_v0
	.cfi_lsda 0,LLSDA3901
	pushl	%ebp
	.cfi_def_cfa_offset 8
	.cfi_offset 5, -8
	movl	%esp, %ebp
	.cfi_def_cfa_register 5
	pushl	%ebx
	subl	$36, %esp
	.cfi_offset 3, -12
	movl	%ecx, -12(%ebp)
	movl	-12(%ebp), %ebx
	movl	16(%ebp), %eax
	movl	%eax, 4(%esp)
	movl	8(%ebp), %eax
	movl	%eax, (%esp)
LEHB28:
	call	__ZNSt6vectorI9cache_setSaIS0_EE17_S_check_init_lenEjRKS1_
	movl	16(%ebp), %edx
	movl	%edx, 4(%esp)
	movl	%eax, (%esp)
	movl	%ebx, %ecx
	call	__ZNSt12_Vector_baseI9cache_setSaIS0_EEC2EjRKS1_
LEHE28:
	subl	$8, %esp
	movl	-12(%ebp), %eax
	movl	12(%ebp), %edx
	movl	%edx, 4(%esp)
	movl	8(%ebp), %edx
	movl	%edx, (%esp)
	movl	%eax, %ecx
LEHB29:
	call	__ZNSt6vectorI9cache_setSaIS0_EE18_M_fill_initializeEjRKS0_
LEHE29:
	subl	$8, %esp
	jmp	L191
L190:
	movl	%eax, %ebx
	movl	-12(%ebp), %eax
	movl	%eax, %ecx
	call	__ZNSt12_Vector_baseI9cache_setSaIS0_EED2Ev
	movl	%ebx, %eax
	movl	%eax, (%esp)
LEHB30:
	call	__Unwind_Resume
LEHE30:
L191:
	movl	-4(%ebp), %ebx
	leave
	.cfi_restore 5
	.cfi_restore 3
	.cfi_def_cfa 4, 4
	ret	$12
	.cfi_endproc
LFE3901:
	.section	.gcc_except_table,"w"
LLSDA3901:
	.byte	0xff
	.byte	0xff
	.byte	0x1
	.uleb128 LLSDACSE3901-LLSDACSB3901
LLSDACSB3901:
	.uleb128 LEHB28-LFB3901
	.uleb128 LEHE28-LEHB28
	.uleb128 0
	.uleb128 0
	.uleb128 LEHB29-LFB3901
	.uleb128 LEHE29-LEHB29
	.uleb128 L190-LFB3901
	.uleb128 0
	.uleb128 LEHB30-LFB3901
	.uleb128 LEHE30-LEHB30
	.uleb128 0
	.uleb128 0
LLSDACSE3901:
	.section	.text$_ZNSt6vectorI9cache_setSaIS0_EEC1EjRKS0_RKS1_,"x"
	.linkonce discard
	.section	.text$_ZNSt6vectorI9cache_setSaIS0_EED1Ev,"x"
	.linkonce discard
	.align 2
	.globl	__ZNSt6vectorI9cache_setSaIS0_EED1Ev
	.def	__ZNSt6vectorI9cache_setSaIS0_EED1Ev;	.scl	2;	.type	32;	.endef
__ZNSt6vectorI9cache_setSaIS0_EED1Ev:
LFB3904:
	.cfi_startproc
	.cfi_personality 0,___gxx_personality_v0
	.cfi_lsda 0,LLSDA3904
	pushl	%ebp
	.cfi_def_cfa_offset 8
	.cfi_offset 5, -8
	movl	%esp, %ebp
	.cfi_def_cfa_register 5
	subl	$40, %esp
	movl	%ecx, -12(%ebp)
	movl	-12(%ebp), %eax
	movl	%eax, %ecx
	call	__ZNSt12_Vector_baseI9cache_setSaIS0_EE19_M_get_Tp_allocatorEv
	movl	-12(%ebp), %edx
	movl	4(%edx), %ecx
	movl	-12(%ebp), %edx
	movl	(%edx), %edx
	movl	%eax, 8(%esp)
	movl	%ecx, 4(%esp)
	movl	%edx, (%esp)
	call	__ZSt8_DestroyIP9cache_setS0_EvT_S2_RSaIT0_E
	movl	-12(%ebp), %eax
	movl	%eax, %ecx
	call	__ZNSt12_Vector_baseI9cache_setSaIS0_EED2Ev
	nop
	leave
	.cfi_restore 5
	.cfi_def_cfa 4, 4
	ret
	.cfi_endproc
LFE3904:
	.section	.gcc_except_table,"w"
LLSDA3904:
	.byte	0xff
	.byte	0xff
	.byte	0x1
	.uleb128 LLSDACSE3904-LLSDACSB3904
LLSDACSB3904:
LLSDACSE3904:
	.section	.text$_ZNSt6vectorI9cache_setSaIS0_EED1Ev,"x"
	.linkonce discard
	.section	.text$_ZNSt6vectorI9cache_setSaIS0_EEixEj,"x"
	.linkonce discard
	.align 2
	.globl	__ZNSt6vectorI9cache_setSaIS0_EEixEj
	.def	__ZNSt6vectorI9cache_setSaIS0_EEixEj;	.scl	2;	.type	32;	.endef
__ZNSt6vectorI9cache_setSaIS0_EEixEj:
LFB3923:
	.cfi_startproc
	pushl	%ebp
	.cfi_def_cfa_offset 8
	.cfi_offset 5, -8
	movl	%esp, %ebp
	.cfi_def_cfa_register 5
	subl	$4, %esp
	movl	%ecx, -4(%ebp)
	movl	-4(%ebp), %eax
	movl	(%eax), %edx
	movl	8(%ebp), %eax
	imull	$60, %eax, %eax
	addl	%edx, %eax
	leave
	.cfi_restore 5
	.cfi_def_cfa 4, 4
	ret	$4
	.cfi_endproc
LFE3923:
	.section	.text$_ZNSt6vectorI5blockSaIS0_EEixEj,"x"
	.linkonce discard
	.align 2
	.globl	__ZNSt6vectorI5blockSaIS0_EEixEj
	.def	__ZNSt6vectorI5blockSaIS0_EEixEj;	.scl	2;	.type	32;	.endef
__ZNSt6vectorI5blockSaIS0_EEixEj:
LFB3924:
	.cfi_startproc
	pushl	%ebp
	.cfi_def_cfa_offset 8
	.cfi_offset 5, -8
	movl	%esp, %ebp
	.cfi_def_cfa_register 5
	subl	$4, %esp
	movl	%ecx, -4(%ebp)
	movl	-4(%ebp), %eax
	movl	(%eax), %eax
	movl	8(%ebp), %edx
	sall	$4, %edx
	addl	%edx, %eax
	leave
	.cfi_restore 5
	.cfi_def_cfa 4, 4
	ret	$4
	.cfi_endproc
LFE3924:
	.section	.text$_ZNSt13unordered_mapIiiSt4hashIiESt8equal_toIiESaISt4pairIKiiEEE4findERS5_,"x"
	.linkonce discard
	.align 2
	.globl	__ZNSt13unordered_mapIiiSt4hashIiESt8equal_toIiESaISt4pairIKiiEEE4findERS5_
	.def	__ZNSt13unordered_mapIiiSt4hashIiESt8equal_toIiESaISt4pairIKiiEEE4findERS5_;	.scl	2;	.type	32;	.endef
__ZNSt13unordered_mapIiiSt4hashIiESt8equal_toIiESaISt4pairIKiiEEE4findERS5_:
LFB3925:
	.cfi_startproc
	pushl	%ebp
	.cfi_def_cfa_offset 8
	.cfi_offset 5, -8
	movl	%esp, %ebp
	.cfi_def_cfa_register 5
	subl	$40, %esp
	movl	%ecx, -12(%ebp)
	movl	-12(%ebp), %eax
	movl	8(%ebp), %edx
	movl	%edx, (%esp)
	movl	%eax, %ecx
	call	__ZNSt10_HashtableIiSt4pairIKiiESaIS2_ENSt8__detail10_Select1stESt8equal_toIiESt4hashIiENS4_18_Mod_range_hashingENS4_20_Default_ranged_hashENS4_20_Prime_rehash_policyENS4_17_Hashtable_traitsILb0ELb0ELb1EEEE4findERS1_
	subl	$4, %esp
	leave
	.cfi_restore 5
	.cfi_def_cfa 4, 4
	ret	$4
	.cfi_endproc
LFE3925:
	.section	.text$_ZNSt13unordered_mapIiiSt4hashIiESt8equal_toIiESaISt4pairIKiiEEE3endEv,"x"
	.linkonce discard
	.align 2
	.globl	__ZNSt13unordered_mapIiiSt4hashIiESt8equal_toIiESaISt4pairIKiiEEE3endEv
	.def	__ZNSt13unordered_mapIiiSt4hashIiESt8equal_toIiESaISt4pairIKiiEEE3endEv;	.scl	2;	.type	32;	.endef
__ZNSt13unordered_mapIiiSt4hashIiESt8equal_toIiESaISt4pairIKiiEEE3endEv:
LFB3926:
	.cfi_startproc
	pushl	%ebp
	.cfi_def_cfa_offset 8
	.cfi_offset 5, -8
	movl	%esp, %ebp
	.cfi_def_cfa_register 5
	subl	$24, %esp
	movl	%ecx, -12(%ebp)
	movl	-12(%ebp), %eax
	movl	%eax, %ecx
	call	__ZNSt10_HashtableIiSt4pairIKiiESaIS2_ENSt8__detail10_Select1stESt8equal_toIiESt4hashIiENS4_18_Mod_range_hashingENS4_20_Default_ranged_hashENS4_20_Prime_rehash_policyENS4_17_Hashtable_traitsILb0ELb0ELb1EEEE3endEv
	leave
	.cfi_restore 5
	.cfi_def_cfa 4, 4
	ret
	.cfi_endproc
LFE3926:
	.section	.text$_ZNSt8__detailneISt4pairIKiiELb0EEEbRKNS_19_Node_iterator_baseIT_XT0_EEES8_,"x"
	.linkonce discard
	.globl	__ZNSt8__detailneISt4pairIKiiELb0EEEbRKNS_19_Node_iterator_baseIT_XT0_EEES8_
	.def	__ZNSt8__detailneISt4pairIKiiELb0EEEbRKNS_19_Node_iterator_baseIT_XT0_EEES8_;	.scl	2;	.type	32;	.endef
__ZNSt8__detailneISt4pairIKiiELb0EEEbRKNS_19_Node_iterator_baseIT_XT0_EEES8_:
LFB3927:
	.cfi_startproc
	pushl	%ebp
	.cfi_def_cfa_offset 8
	.cfi_offset 5, -8
	movl	%esp, %ebp
	.cfi_def_cfa_register 5
	movl	8(%ebp), %eax
	movl	(%eax), %edx
	movl	12(%ebp), %eax
	movl	(%eax), %eax
	cmpl	%eax, %edx
	setne	%al
	popl	%ebp
	.cfi_restore 5
	.cfi_def_cfa 4, 4
	ret
	.cfi_endproc
LFE3927:
	.section	.text$_ZNKSt8__detail14_Node_iteratorISt4pairIKiiELb0ELb0EEptEv,"x"
	.linkonce discard
	.align 2
	.globl	__ZNKSt8__detail14_Node_iteratorISt4pairIKiiELb0ELb0EEptEv
	.def	__ZNKSt8__detail14_Node_iteratorISt4pairIKiiELb0ELb0EEptEv;	.scl	2;	.type	32;	.endef
__ZNKSt8__detail14_Node_iteratorISt4pairIKiiELb0ELb0EEptEv:
LFB3928:
	.cfi_startproc
	pushl	%ebp
	.cfi_def_cfa_offset 8
	.cfi_offset 5, -8
	movl	%esp, %ebp
	.cfi_def_cfa_register 5
	subl	$24, %esp
	movl	%ecx, -12(%ebp)
	movl	-12(%ebp), %eax
	movl	(%eax), %eax
	movl	%eax, %ecx
	call	__ZNSt8__detail21_Hash_node_value_baseISt4pairIKiiEE9_M_valptrEv
	leave
	.cfi_restore 5
	.cfi_def_cfa 4, 4
	ret
	.cfi_endproc
LFE3928:
	.section	.text$_ZNSt7__cxx114listIiSaIiEE5beginEv,"x"
	.linkonce discard
	.align 2
	.globl	__ZNSt7__cxx114listIiSaIiEE5beginEv
	.def	__ZNSt7__cxx114listIiSaIiEE5beginEv;	.scl	2;	.type	32;	.endef
__ZNSt7__cxx114listIiSaIiEE5beginEv:
LFB3929:
	.cfi_startproc
	pushl	%ebp
	.cfi_def_cfa_offset 8
	.cfi_offset 5, -8
	movl	%esp, %ebp
	.cfi_def_cfa_register 5
	subl	$56, %esp
	movl	%ecx, -28(%ebp)
	movl	-28(%ebp), %eax
	movl	(%eax), %edx
	leal	-12(%ebp), %eax
	movl	%edx, (%esp)
	movl	%eax, %ecx
	call	__ZNSt14_List_iteratorIiEC1EPNSt8__detail15_List_node_baseE
	subl	$4, %esp
	movl	-12(%ebp), %eax
	leave
	.cfi_restore 5
	.cfi_def_cfa 4, 4
	ret
	.cfi_endproc
LFE3929:
	.section	.text$_ZNSt7__cxx114listIiSaIiEE3endEv,"x"
	.linkonce discard
	.align 2
	.globl	__ZNSt7__cxx114listIiSaIiEE3endEv
	.def	__ZNSt7__cxx114listIiSaIiEE3endEv;	.scl	2;	.type	32;	.endef
__ZNSt7__cxx114listIiSaIiEE3endEv:
LFB3930:
	.cfi_startproc
	pushl	%ebp
	.cfi_def_cfa_offset 8
	.cfi_offset 5, -8
	movl	%esp, %ebp
	.cfi_def_cfa_register 5
	subl	$56, %esp
	movl	%ecx, -28(%ebp)
	movl	-28(%ebp), %edx
	leal	-12(%ebp), %eax
	movl	%edx, (%esp)
	movl	%eax, %ecx
	call	__ZNSt14_List_iteratorIiEC1EPNSt8__detail15_List_node_baseE
	subl	$4, %esp
	movl	-12(%ebp), %eax
	leave
	.cfi_restore 5
	.cfi_def_cfa 4, 4
	ret
	.cfi_endproc
LFE3930:
	.section	.text$_ZSt4findISt14_List_iteratorIiEiET_S2_S2_RKT0_,"x"
	.linkonce discard
	.globl	__ZSt4findISt14_List_iteratorIiEiET_S2_S2_RKT0_
	.def	__ZSt4findISt14_List_iteratorIiEiET_S2_S2_RKT0_;	.scl	2;	.type	32;	.endef
__ZSt4findISt14_List_iteratorIiEiET_S2_S2_RKT0_:
LFB3931:
	.cfi_startproc
	pushl	%ebp
	.cfi_def_cfa_offset 8
	.cfi_offset 5, -8
	movl	%esp, %ebp
	.cfi_def_cfa_register 5
	subl	$24, %esp
	movl	16(%ebp), %eax
	movl	%eax, (%esp)
	call	__ZN9__gnu_cxx5__ops17__iter_equals_valIKiEENS0_16_Iter_equals_valIT_EERS4_
	movl	%eax, 8(%esp)
	movl	12(%ebp), %eax
	movl	%eax, 4(%esp)
	movl	8(%ebp), %eax
	movl	%eax, (%esp)
	call	__ZSt9__find_ifISt14_List_iteratorIiEN9__gnu_cxx5__ops16_Iter_equals_valIKiEEET_S7_S7_T0_
	leave
	.cfi_restore 5
	.cfi_def_cfa 4, 4
	ret
	.cfi_endproc
LFE3931:
	.section	.text$_ZStneRKSt14_List_iteratorIiES2_,"x"
	.linkonce discard
	.globl	__ZStneRKSt14_List_iteratorIiES2_
	.def	__ZStneRKSt14_List_iteratorIiES2_;	.scl	2;	.type	32;	.endef
__ZStneRKSt14_List_iteratorIiES2_:
LFB3932:
	.cfi_startproc
	pushl	%ebp
	.cfi_def_cfa_offset 8
	.cfi_offset 5, -8
	movl	%esp, %ebp
	.cfi_def_cfa_register 5
	movl	8(%ebp), %eax
	movl	(%eax), %edx
	movl	12(%ebp), %eax
	movl	(%eax), %eax
	cmpl	%eax, %edx
	setne	%al
	popl	%ebp
	.cfi_restore 5
	.cfi_def_cfa 4, 4
	ret
	.cfi_endproc
LFE3932:
	.section	.text$_ZNSt20_List_const_iteratorIiEC1ERKSt14_List_iteratorIiE,"x"
	.linkonce discard
	.align 2
	.globl	__ZNSt20_List_const_iteratorIiEC1ERKSt14_List_iteratorIiE
	.def	__ZNSt20_List_const_iteratorIiEC1ERKSt14_List_iteratorIiE;	.scl	2;	.type	32;	.endef
__ZNSt20_List_const_iteratorIiEC1ERKSt14_List_iteratorIiE:
LFB3935:
	.cfi_startproc
	pushl	%ebp
	.cfi_def_cfa_offset 8
	.cfi_offset 5, -8
	movl	%esp, %ebp
	.cfi_def_cfa_register 5
	subl	$4, %esp
	movl	%ecx, -4(%ebp)
	movl	8(%ebp), %eax
	movl	(%eax), %edx
	movl	-4(%ebp), %eax
	movl	%edx, (%eax)
	nop
	leave
	.cfi_restore 5
	.cfi_def_cfa 4, 4
	ret	$4
	.cfi_endproc
LFE3935:
	.section	.text$_ZNSt7__cxx114listIiSaIiEE5eraseESt20_List_const_iteratorIiE,"x"
	.linkonce discard
	.align 2
	.globl	__ZNSt7__cxx114listIiSaIiEE5eraseESt20_List_const_iteratorIiE
	.def	__ZNSt7__cxx114listIiSaIiEE5eraseESt20_List_const_iteratorIiE;	.scl	2;	.type	32;	.endef
__ZNSt7__cxx114listIiSaIiEE5eraseESt20_List_const_iteratorIiE:
LFB3936:
	.cfi_startproc
	pushl	%ebp
	.cfi_def_cfa_offset 8
	.cfi_offset 5, -8
	movl	%esp, %ebp
	.cfi_def_cfa_register 5
	subl	$56, %esp
	movl	%ecx, -28(%ebp)
	movl	8(%ebp), %eax
	movl	(%eax), %edx
	leal	-12(%ebp), %eax
	movl	%edx, (%esp)
	movl	%eax, %ecx
	call	__ZNSt14_List_iteratorIiEC1EPNSt8__detail15_List_node_baseE
	subl	$4, %esp
	leal	8(%ebp), %ecx
	call	__ZNKSt20_List_const_iteratorIiE13_M_const_castEv
	movl	%eax, %edx
	movl	-28(%ebp), %eax
	movl	%edx, (%esp)
	movl	%eax, %ecx
	call	__ZNSt7__cxx114listIiSaIiEE8_M_eraseESt14_List_iteratorIiE
	subl	$4, %esp
	movl	-12(%ebp), %eax
	leave
	.cfi_restore 5
	.cfi_def_cfa 4, 4
	ret	$4
	.cfi_endproc
LFE3936:
	.section	.text$_ZNSt13unordered_mapIiiSt4hashIiESt8equal_toIiESaISt4pairIKiiEEE5eraseENSt8__detail14_Node_iteratorIS6_Lb0ELb0EEE,"x"
	.linkonce discard
	.align 2
	.globl	__ZNSt13unordered_mapIiiSt4hashIiESt8equal_toIiESaISt4pairIKiiEEE5eraseENSt8__detail14_Node_iteratorIS6_Lb0ELb0EEE
	.def	__ZNSt13unordered_mapIiiSt4hashIiESt8equal_toIiESaISt4pairIKiiEEE5eraseENSt8__detail14_Node_iteratorIS6_Lb0ELb0EEE;	.scl	2;	.type	32;	.endef
__ZNSt13unordered_mapIiiSt4hashIiESt8equal_toIiESaISt4pairIKiiEEE5eraseENSt8__detail14_Node_iteratorIS6_Lb0ELb0EEE:
LFB3937:
	.cfi_startproc
	pushl	%ebp
	.cfi_def_cfa_offset 8
	.cfi_offset 5, -8
	movl	%esp, %ebp
	.cfi_def_cfa_register 5
	subl	$40, %esp
	movl	%ecx, -12(%ebp)
	movl	-12(%ebp), %eax
	movl	8(%ebp), %edx
	movl	%edx, (%esp)
	movl	%eax, %ecx
	call	__ZNSt10_HashtableIiSt4pairIKiiESaIS2_ENSt8__detail10_Select1stESt8equal_toIiESt4hashIiENS4_18_Mod_range_hashingENS4_20_Default_ranged_hashENS4_20_Prime_rehash_policyENS4_17_Hashtable_traitsILb0ELb0ELb1EEEE5eraseENS4_14_Node_iteratorIS2_Lb0ELb0EEE
	subl	$4, %esp
	leave
	.cfi_restore 5
	.cfi_def_cfa 4, 4
	ret	$4
	.cfi_endproc
LFE3937:
	.section	.text$_ZNKSt7__cxx114listIiSaIiEE4sizeEv,"x"
	.linkonce discard
	.align 2
	.globl	__ZNKSt7__cxx114listIiSaIiEE4sizeEv
	.def	__ZNKSt7__cxx114listIiSaIiEE4sizeEv;	.scl	2;	.type	32;	.endef
__ZNKSt7__cxx114listIiSaIiEE4sizeEv:
LFB3938:
	.cfi_startproc
	.cfi_personality 0,___gxx_personality_v0
	.cfi_lsda 0,LLSDA3938
	pushl	%ebp
	.cfi_def_cfa_offset 8
	.cfi_offset 5, -8
	movl	%esp, %ebp
	.cfi_def_cfa_register 5
	subl	$24, %esp
	movl	%ecx, -12(%ebp)
	movl	-12(%ebp), %eax
	movl	%eax, %ecx
	call	__ZNKSt7__cxx114listIiSaIiEE13_M_node_countEv
	leave
	.cfi_restore 5
	.cfi_def_cfa 4, 4
	ret
	.cfi_endproc
LFE3938:
	.section	.gcc_except_table,"w"
LLSDA3938:
	.byte	0xff
	.byte	0xff
	.byte	0x1
	.uleb128 LLSDACSE3938-LLSDACSB3938
LLSDACSB3938:
LLSDACSE3938:
	.section	.text$_ZNKSt7__cxx114listIiSaIiEE4sizeEv,"x"
	.linkonce discard
	.section	.text$_ZNSt7__cxx114listIiSaIiEE9push_backERKi,"x"
	.linkonce discard
	.align 2
	.globl	__ZNSt7__cxx114listIiSaIiEE9push_backERKi
	.def	__ZNSt7__cxx114listIiSaIiEE9push_backERKi;	.scl	2;	.type	32;	.endef
__ZNSt7__cxx114listIiSaIiEE9push_backERKi:
LFB3939:
	.cfi_startproc
	pushl	%ebp
	.cfi_def_cfa_offset 8
	.cfi_offset 5, -8
	movl	%esp, %ebp
	.cfi_def_cfa_register 5
	subl	$40, %esp
	movl	%ecx, -12(%ebp)
	movl	-12(%ebp), %eax
	movl	%eax, %ecx
	call	__ZNSt7__cxx114listIiSaIiEE3endEv
	movl	%eax, %edx
	movl	-12(%ebp), %eax
	movl	8(%ebp), %ecx
	movl	%ecx, 4(%esp)
	movl	%edx, (%esp)
	movl	%eax, %ecx
	call	__ZNSt7__cxx114listIiSaIiEE9_M_insertIJRKiEEEvSt14_List_iteratorIiEDpOT_
	subl	$8, %esp
	nop
	leave
	.cfi_restore 5
	.cfi_def_cfa 4, 4
	ret	$4
	.cfi_endproc
LFE3939:
	.section	.text$_ZSt9make_pairIRiS0_ESt4pairINSt17__decay_and_stripIT_E6__typeENS2_IT0_E6__typeEEOS3_OS6_,"x"
	.linkonce discard
	.globl	__ZSt9make_pairIRiS0_ESt4pairINSt17__decay_and_stripIT_E6__typeENS2_IT0_E6__typeEEOS3_OS6_
	.def	__ZSt9make_pairIRiS0_ESt4pairINSt17__decay_and_stripIT_E6__typeENS2_IT0_E6__typeEEOS3_OS6_;	.scl	2;	.type	32;	.endef
__ZSt9make_pairIRiS0_ESt4pairINSt17__decay_and_stripIT_E6__typeENS2_IT0_E6__typeEEOS3_OS6_:
LFB3940:
	.cfi_startproc
	pushl	%ebp
	.cfi_def_cfa_offset 8
	.cfi_offset 5, -8
	movl	%esp, %ebp
	.cfi_def_cfa_register 5
	pushl	%ebx
	subl	$36, %esp
	.cfi_offset 3, -12
	movl	12(%ebp), %eax
	movl	%eax, (%esp)
	call	__ZSt7forwardIRiEOT_RNSt16remove_referenceIS1_E4typeE
	movl	%eax, %ebx
	movl	8(%ebp), %eax
	movl	%eax, (%esp)
	call	__ZSt7forwardIRiEOT_RNSt16remove_referenceIS1_E4typeE
	movl	%eax, %edx
	leal	-16(%ebp), %eax
	movl	%ebx, 4(%esp)
	movl	%edx, (%esp)
	movl	%eax, %ecx
	call	__ZNSt4pairIiiEC1IRiS2_Lb1EEEOT_OT0_
	subl	$8, %esp
	movl	-16(%ebp), %eax
	movl	-12(%ebp), %edx
	movl	-4(%ebp), %ebx
	leave
	.cfi_restore 5
	.cfi_restore 3
	.cfi_def_cfa 4, 4
	ret
	.cfi_endproc
LFE3940:
	.section	.text$_ZNSt13unordered_mapIiiSt4hashIiESt8equal_toIiESaISt4pairIKiiEEE6insertIS4_IiiEEENSt9enable_ifIXsrSt16is_constructibleIS6_JOT_EE5valueES4_INSt8__detail14_Node_iteratorIS6_Lb0ELb0EEEbEE4typeESE_,"x"
	.linkonce discard
	.align 2
	.globl	__ZNSt13unordered_mapIiiSt4hashIiESt8equal_toIiESaISt4pairIKiiEEE6insertIS4_IiiEEENSt9enable_ifIXsrSt16is_constructibleIS6_JOT_EE5valueES4_INSt8__detail14_Node_iteratorIS6_Lb0ELb0EEEbEE4typeESE_
	.def	__ZNSt13unordered_mapIiiSt4hashIiESt8equal_toIiESaISt4pairIKiiEEE6insertIS4_IiiEEENSt9enable_ifIXsrSt16is_constructibleIS6_JOT_EE5valueES4_INSt8__detail14_Node_iteratorIS6_Lb0ELb0EEEbEE4typeESE_;	.scl	2;	.type	32;	.endef
__ZNSt13unordered_mapIiiSt4hashIiESt8equal_toIiESaISt4pairIKiiEEE6insertIS4_IiiEEENSt9enable_ifIXsrSt16is_constructibleIS6_JOT_EE5valueES4_INSt8__detail14_Node_iteratorIS6_Lb0ELb0EEEbEE4typeESE_:
LFB3953:
	.cfi_startproc
	pushl	%ebp
	.cfi_def_cfa_offset 8
	.cfi_offset 5, -8
	movl	%esp, %ebp
	.cfi_def_cfa_register 5
	pushl	%ebx
	subl	$36, %esp
	.cfi_offset 3, -12
	movl	%ecx, -12(%ebp)
	movl	-12(%ebp), %ebx
	movl	8(%ebp), %eax
	movl	%eax, (%esp)
	call	__ZSt7forwardISt4pairIiiEEOT_RNSt16remove_referenceIS2_E4typeE
	movl	%eax, (%esp)
	movl	%ebx, %ecx
	call	__ZNSt10_HashtableIiSt4pairIKiiESaIS2_ENSt8__detail10_Select1stESt8equal_toIiESt4hashIiENS4_18_Mod_range_hashingENS4_20_Default_ranged_hashENS4_20_Prime_rehash_policyENS4_17_Hashtable_traitsILb0ELb0ELb1EEEE7emplaceIJS0_IiiEEEES0_INS4_14_Node_iteratorIS2_Lb0ELb0EEEbEDpOT_
	subl	$4, %esp
	movl	-4(%ebp), %ebx
	leave
	.cfi_restore 5
	.cfi_restore 3
	.cfi_def_cfa 4, 4
	ret	$4
	.cfi_endproc
LFE3953:
	.section	.text$_ZNSt7__cxx114listIiSaIiEE5frontEv,"x"
	.linkonce discard
	.align 2
	.globl	__ZNSt7__cxx114listIiSaIiEE5frontEv
	.def	__ZNSt7__cxx114listIiSaIiEE5frontEv;	.scl	2;	.type	32;	.endef
__ZNSt7__cxx114listIiSaIiEE5frontEv:
LFB3958:
	.cfi_startproc
	pushl	%ebp
	.cfi_def_cfa_offset 8
	.cfi_offset 5, -8
	movl	%esp, %ebp
	.cfi_def_cfa_register 5
	subl	$40, %esp
	movl	%ecx, -28(%ebp)
	movl	-28(%ebp), %eax
	movl	%eax, %ecx
	call	__ZNSt7__cxx114listIiSaIiEE5beginEv
	movl	%eax, -12(%ebp)
	leal	-12(%ebp), %eax
	movl	%eax, %ecx
	call	__ZNKSt14_List_iteratorIiEdeEv
	leave
	.cfi_restore 5
	.cfi_def_cfa 4, 4
	ret
	.cfi_endproc
LFE3958:
	.section	.text$_ZSt4log2IiEN9__gnu_cxx11__enable_ifIXsrSt12__is_integerIT_E7__valueEdE6__typeES3_,"x"
	.linkonce discard
	.globl	__ZSt4log2IiEN9__gnu_cxx11__enable_ifIXsrSt12__is_integerIT_E7__valueEdE6__typeES3_
	.def	__ZSt4log2IiEN9__gnu_cxx11__enable_ifIXsrSt12__is_integerIT_E7__valueEdE6__typeES3_;	.scl	2;	.type	32;	.endef
__ZSt4log2IiEN9__gnu_cxx11__enable_ifIXsrSt12__is_integerIT_E7__valueEdE6__typeES3_:
LFB3962:
	.cfi_startproc
	pushl	%ebp
	.cfi_def_cfa_offset 8
	.cfi_offset 5, -8
	movl	%esp, %ebp
	.cfi_def_cfa_register 5
	subl	$24, %esp
	fildl	8(%ebp)
	fstpl	(%esp)
	call	_log2
	leave
	.cfi_restore 5
	.cfi_def_cfa 4, 4
	ret
	.cfi_endproc
LFE3962:
	.section	.text$_ZSt7forwardIbEOT_RNSt16remove_referenceIS0_E4typeE,"x"
	.linkonce discard
	.globl	__ZSt7forwardIbEOT_RNSt16remove_referenceIS0_E4typeE
	.def	__ZSt7forwardIbEOT_RNSt16remove_referenceIS0_E4typeE;	.scl	2;	.type	32;	.endef
__ZSt7forwardIbEOT_RNSt16remove_referenceIS0_E4typeE:
LFB4078:
	.cfi_startproc
	pushl	%ebp
	.cfi_def_cfa_offset 8
	.cfi_offset 5, -8
	movl	%esp, %ebp
	.cfi_def_cfa_register 5
	movl	8(%ebp), %eax
	popl	%ebp
	.cfi_restore 5
	.cfi_def_cfa 4, 4
	ret
	.cfi_endproc
LFE4078:
	.section	.text$_ZN9__gnu_cxx13new_allocatorI5blockEC2Ev,"x"
	.linkonce discard
	.align 2
	.globl	__ZN9__gnu_cxx13new_allocatorI5blockEC2Ev
	.def	__ZN9__gnu_cxx13new_allocatorI5blockEC2Ev;	.scl	2;	.type	32;	.endef
__ZN9__gnu_cxx13new_allocatorI5blockEC2Ev:
LFB4087:
	.cfi_startproc
	pushl	%ebp
	.cfi_def_cfa_offset 8
	.cfi_offset 5, -8
	movl	%esp, %ebp
	.cfi_def_cfa_register 5
	subl	$4, %esp
	movl	%ecx, -4(%ebp)
	nop
	leave
	.cfi_restore 5
	.cfi_def_cfa 4, 4
	ret
	.cfi_endproc
LFE4087:
	.section	.text$_ZN9__gnu_cxx13new_allocatorI5blockED2Ev,"x"
	.linkonce discard
	.align 2
	.globl	__ZN9__gnu_cxx13new_allocatorI5blockED2Ev
	.def	__ZN9__gnu_cxx13new_allocatorI5blockED2Ev;	.scl	2;	.type	32;	.endef
__ZN9__gnu_cxx13new_allocatorI5blockED2Ev:
LFB4090:
	.cfi_startproc
	pushl	%ebp
	.cfi_def_cfa_offset 8
	.cfi_offset 5, -8
	movl	%esp, %ebp
	.cfi_def_cfa_register 5
	subl	$4, %esp
	movl	%ecx, -4(%ebp)
	nop
	leave
	.cfi_restore 5
	.cfi_def_cfa 4, 4
	ret
	.cfi_endproc
LFE4090:
	.section .rdata,"dr"
	.align 4
LC15:
	.ascii "cannot create std::vector larger than max_size()\0"
	.section	.text$_ZNSt6vectorI5blockSaIS0_EE17_S_check_init_lenEjRKS1_,"x"
	.linkonce discard
	.globl	__ZNSt6vectorI5blockSaIS0_EE17_S_check_init_lenEjRKS1_
	.def	__ZNSt6vectorI5blockSaIS0_EE17_S_check_init_lenEjRKS1_;	.scl	2;	.type	32;	.endef
__ZNSt6vectorI5blockSaIS0_EE17_S_check_init_lenEjRKS1_:
LFB4092:
	.cfi_startproc
	pushl	%ebp
	.cfi_def_cfa_offset 8
	.cfi_offset 5, -8
	movl	%esp, %ebp
	.cfi_def_cfa_register 5
	pushl	%ebx
	subl	$36, %esp
	.cfi_offset 3, -12
	leal	-9(%ebp), %eax
	movl	12(%ebp), %edx
	movl	%edx, (%esp)
	movl	%eax, %ecx
	call	__ZNSaI5blockEC1ERKS0_
	subl	$4, %esp
	leal	-9(%ebp), %eax
	movl	%eax, (%esp)
	call	__ZNSt6vectorI5blockSaIS0_EE11_S_max_sizeERKS1_
	cmpl	%eax, 8(%ebp)
	seta	%bl
	leal	-9(%ebp), %eax
	movl	%eax, %ecx
	call	__ZNSaI5blockED1Ev
	testb	%bl, %bl
	je	L234
	movl	$LC15, (%esp)
	call	__ZSt20__throw_length_errorPKc
L234:
	movl	8(%ebp), %eax
	movl	-4(%ebp), %ebx
	leave
	.cfi_restore 5
	.cfi_restore 3
	.cfi_def_cfa 4, 4
	ret
	.cfi_endproc
LFE4092:
	.section	.text$_ZNSt12_Vector_baseI5blockSaIS0_EE12_Vector_implD1Ev,"x"
	.linkonce discard
	.align 2
	.globl	__ZNSt12_Vector_baseI5blockSaIS0_EE12_Vector_implD1Ev
	.def	__ZNSt12_Vector_baseI5blockSaIS0_EE12_Vector_implD1Ev;	.scl	2;	.type	32;	.endef
__ZNSt12_Vector_baseI5blockSaIS0_EE12_Vector_implD1Ev:
LFB4096:
	.cfi_startproc
	pushl	%ebp
	.cfi_def_cfa_offset 8
	.cfi_offset 5, -8
	movl	%esp, %ebp
	.cfi_def_cfa_register 5
	subl	$24, %esp
	movl	%ecx, -12(%ebp)
	movl	-12(%ebp), %eax
	movl	%eax, %ecx
	call	__ZNSaI5blockED2Ev
	nop
	leave
	.cfi_restore 5
	.cfi_def_cfa 4, 4
	ret
	.cfi_endproc
LFE4096:
	.section	.text$_ZNSt12_Vector_baseI5blockSaIS0_EEC2EjRKS1_,"x"
	.linkonce discard
	.align 2
	.globl	__ZNSt12_Vector_baseI5blockSaIS0_EEC2EjRKS1_
	.def	__ZNSt12_Vector_baseI5blockSaIS0_EEC2EjRKS1_;	.scl	2;	.type	32;	.endef
__ZNSt12_Vector_baseI5blockSaIS0_EEC2EjRKS1_:
LFB4097:
	.cfi_startproc
	.cfi_personality 0,___gxx_personality_v0
	.cfi_lsda 0,LLSDA4097
	pushl	%ebp
	.cfi_def_cfa_offset 8
	.cfi_offset 5, -8
	movl	%esp, %ebp
	.cfi_def_cfa_register 5
	pushl	%ebx
	subl	$36, %esp
	.cfi_offset 3, -12
	movl	%ecx, -12(%ebp)
	movl	-12(%ebp), %eax
	movl	12(%ebp), %edx
	movl	%edx, (%esp)
	movl	%eax, %ecx
	call	__ZNSt12_Vector_baseI5blockSaIS0_EE12_Vector_implC1ERKS1_
	subl	$4, %esp
	movl	-12(%ebp), %eax
	movl	8(%ebp), %edx
	movl	%edx, (%esp)
	movl	%eax, %ecx
LEHB31:
	call	__ZNSt12_Vector_baseI5blockSaIS0_EE17_M_create_storageEj
LEHE31:
	subl	$4, %esp
	jmp	L240
L239:
	movl	%eax, %ebx
	movl	-12(%ebp), %eax
	movl	%eax, %ecx
	call	__ZNSt12_Vector_baseI5blockSaIS0_EE12_Vector_implD1Ev
	movl	%ebx, %eax
	movl	%eax, (%esp)
LEHB32:
	call	__Unwind_Resume
LEHE32:
L240:
	movl	-4(%ebp), %ebx
	leave
	.cfi_restore 5
	.cfi_restore 3
	.cfi_def_cfa 4, 4
	ret	$8
	.cfi_endproc
LFE4097:
	.section	.gcc_except_table,"w"
LLSDA4097:
	.byte	0xff
	.byte	0xff
	.byte	0x1
	.uleb128 LLSDACSE4097-LLSDACSB4097
LLSDACSB4097:
	.uleb128 LEHB31-LFB4097
	.uleb128 LEHE31-LEHB31
	.uleb128 L239-LFB4097
	.uleb128 0
	.uleb128 LEHB32-LFB4097
	.uleb128 LEHE32-LEHB32
	.uleb128 0
	.uleb128 0
LLSDACSE4097:
	.section	.text$_ZNSt12_Vector_baseI5blockSaIS0_EEC2EjRKS1_,"x"
	.linkonce discard
	.section	.text$_ZNSt12_Vector_baseI5blockSaIS0_EED2Ev,"x"
	.linkonce discard
	.align 2
	.globl	__ZNSt12_Vector_baseI5blockSaIS0_EED2Ev
	.def	__ZNSt12_Vector_baseI5blockSaIS0_EED2Ev;	.scl	2;	.type	32;	.endef
__ZNSt12_Vector_baseI5blockSaIS0_EED2Ev:
LFB4100:
	.cfi_startproc
	.cfi_personality 0,___gxx_personality_v0
	.cfi_lsda 0,LLSDA4100
	pushl	%ebp
	.cfi_def_cfa_offset 8
	.cfi_offset 5, -8
	movl	%esp, %ebp
	.cfi_def_cfa_register 5
	subl	$40, %esp
	movl	%ecx, -12(%ebp)
	movl	-12(%ebp), %eax
	movl	8(%eax), %edx
	movl	-12(%ebp), %eax
	movl	(%eax), %eax
	subl	%eax, %edx
	movl	%edx, %eax
	sarl	$4, %eax
	movl	%eax, %ecx
	movl	-12(%ebp), %eax
	movl	(%eax), %edx
	movl	-12(%ebp), %eax
	movl	%ecx, 4(%esp)
	movl	%edx, (%esp)
	movl	%eax, %ecx
	call	__ZNSt12_Vector_baseI5blockSaIS0_EE13_M_deallocateEPS0_j
	subl	$8, %esp
	movl	-12(%ebp), %eax
	movl	%eax, %ecx
	call	__ZNSt12_Vector_baseI5blockSaIS0_EE12_Vector_implD1Ev
	nop
	leave
	.cfi_restore 5
	.cfi_def_cfa 4, 4
	ret
	.cfi_endproc
LFE4100:
	.section	.gcc_except_table,"w"
LLSDA4100:
	.byte	0xff
	.byte	0xff
	.byte	0x1
	.uleb128 LLSDACSE4100-LLSDACSB4100
LLSDACSB4100:
LLSDACSE4100:
	.section	.text$_ZNSt12_Vector_baseI5blockSaIS0_EED2Ev,"x"
	.linkonce discard
	.section	.text$_ZNSt6vectorI5blockSaIS0_EE18_M_fill_initializeEjRKS0_,"x"
	.linkonce discard
	.align 2
	.globl	__ZNSt6vectorI5blockSaIS0_EE18_M_fill_initializeEjRKS0_
	.def	__ZNSt6vectorI5blockSaIS0_EE18_M_fill_initializeEjRKS0_;	.scl	2;	.type	32;	.endef
__ZNSt6vectorI5blockSaIS0_EE18_M_fill_initializeEjRKS0_:
LFB4102:
	.cfi_startproc
	pushl	%ebp
	.cfi_def_cfa_offset 8
	.cfi_offset 5, -8
	movl	%esp, %ebp
	.cfi_def_cfa_register 5
	subl	$40, %esp
	movl	%ecx, -12(%ebp)
	movl	-12(%ebp), %eax
	movl	%eax, %ecx
	call	__ZNSt12_Vector_baseI5blockSaIS0_EE19_M_get_Tp_allocatorEv
	movl	-12(%ebp), %edx
	movl	(%edx), %edx
	movl	%eax, 12(%esp)
	movl	12(%ebp), %eax
	movl	%eax, 8(%esp)
	movl	8(%ebp), %eax
	movl	%eax, 4(%esp)
	movl	%edx, (%esp)
	call	__ZSt24__uninitialized_fill_n_aIP5blockjS0_S0_ET_S2_T0_RKT1_RSaIT2_E
	movl	-12(%ebp), %edx
	movl	%eax, 4(%edx)
	nop
	leave
	.cfi_restore 5
	.cfi_def_cfa 4, 4
	ret	$8
	.cfi_endproc
LFE4102:
	.section	.text$_ZNSt12_Vector_baseI5blockSaIS0_EE19_M_get_Tp_allocatorEv,"x"
	.linkonce discard
	.align 2
	.globl	__ZNSt12_Vector_baseI5blockSaIS0_EE19_M_get_Tp_allocatorEv
	.def	__ZNSt12_Vector_baseI5blockSaIS0_EE19_M_get_Tp_allocatorEv;	.scl	2;	.type	32;	.endef
__ZNSt12_Vector_baseI5blockSaIS0_EE19_M_get_Tp_allocatorEv:
LFB4103:
	.cfi_startproc
	pushl	%ebp
	.cfi_def_cfa_offset 8
	.cfi_offset 5, -8
	movl	%esp, %ebp
	.cfi_def_cfa_register 5
	subl	$4, %esp
	movl	%ecx, -4(%ebp)
	movl	-4(%ebp), %eax
	leave
	.cfi_restore 5
	.cfi_def_cfa 4, 4
	ret
	.cfi_endproc
LFE4103:
	.section	.text$_ZSt8_DestroyIP5blockS0_EvT_S2_RSaIT0_E,"x"
	.linkonce discard
	.globl	__ZSt8_DestroyIP5blockS0_EvT_S2_RSaIT0_E
	.def	__ZSt8_DestroyIP5blockS0_EvT_S2_RSaIT0_E;	.scl	2;	.type	32;	.endef
__ZSt8_DestroyIP5blockS0_EvT_S2_RSaIT0_E:
LFB4104:
	.cfi_startproc
	pushl	%ebp
	.cfi_def_cfa_offset 8
	.cfi_offset 5, -8
	movl	%esp, %ebp
	.cfi_def_cfa_register 5
	subl	$24, %esp
	movl	12(%ebp), %eax
	movl	%eax, 4(%esp)
	movl	8(%ebp), %eax
	movl	%eax, (%esp)
	call	__ZSt8_DestroyIP5blockEvT_S2_
	nop
	leave
	.cfi_restore 5
	.cfi_def_cfa 4, 4
	ret
	.cfi_endproc
LFE4104:
	.section	.text$_ZN9__gnu_cxx13new_allocatorINSt8__detail10_Hash_nodeISt4pairIKiiELb0EEEEC2Ev,"x"
	.linkonce discard
	.align 2
	.globl	__ZN9__gnu_cxx13new_allocatorINSt8__detail10_Hash_nodeISt4pairIKiiELb0EEEEC2Ev
	.def	__ZN9__gnu_cxx13new_allocatorINSt8__detail10_Hash_nodeISt4pairIKiiELb0EEEEC2Ev;	.scl	2;	.type	32;	.endef
__ZN9__gnu_cxx13new_allocatorINSt8__detail10_Hash_nodeISt4pairIKiiELb0EEEEC2Ev:
LFB4106:
	.cfi_startproc
	pushl	%ebp
	.cfi_def_cfa_offset 8
	.cfi_offset 5, -8
	movl	%esp, %ebp
	.cfi_def_cfa_register 5
	subl	$4, %esp
	movl	%ecx, -4(%ebp)
	nop
	leave
	.cfi_restore 5
	.cfi_def_cfa 4, 4
	ret
	.cfi_endproc
LFE4106:
	.section	.text$_ZN9__gnu_cxx13new_allocatorINSt8__detail10_Hash_nodeISt4pairIKiiELb0EEEED2Ev,"x"
	.linkonce discard
	.align 2
	.globl	__ZN9__gnu_cxx13new_allocatorINSt8__detail10_Hash_nodeISt4pairIKiiELb0EEEED2Ev
	.def	__ZN9__gnu_cxx13new_allocatorINSt8__detail10_Hash_nodeISt4pairIKiiELb0EEEED2Ev;	.scl	2;	.type	32;	.endef
__ZN9__gnu_cxx13new_allocatorINSt8__detail10_Hash_nodeISt4pairIKiiELb0EEEED2Ev:
LFB4109:
	.cfi_startproc
	pushl	%ebp
	.cfi_def_cfa_offset 8
	.cfi_offset 5, -8
	movl	%esp, %ebp
	.cfi_def_cfa_register 5
	subl	$4, %esp
	movl	%ecx, -4(%ebp)
	nop
	leave
	.cfi_restore 5
	.cfi_def_cfa 4, 4
	ret
	.cfi_endproc
LFE4109:
	.section	.text$_ZNSt10_HashtableIiSt4pairIKiiESaIS2_ENSt8__detail10_Select1stESt8equal_toIiESt4hashIiENS4_18_Mod_range_hashingENS4_20_Default_ranged_hashENS4_20_Prime_rehash_policyENS4_17_Hashtable_traitsILb0ELb0ELb1EEEE5clearEv,"x"
	.linkonce discard
	.align 2
	.globl	__ZNSt10_HashtableIiSt4pairIKiiESaIS2_ENSt8__detail10_Select1stESt8equal_toIiESt4hashIiENS4_18_Mod_range_hashingENS4_20_Default_ranged_hashENS4_20_Prime_rehash_policyENS4_17_Hashtable_traitsILb0ELb0ELb1EEEE5clearEv
	.def	__ZNSt10_HashtableIiSt4pairIKiiESaIS2_ENSt8__detail10_Select1stESt8equal_toIiESt4hashIiENS4_18_Mod_range_hashingENS4_20_Default_ranged_hashENS4_20_Prime_rehash_policyENS4_17_Hashtable_traitsILb0ELb0ELb1EEEE5clearEv;	.scl	2;	.type	32;	.endef
__ZNSt10_HashtableIiSt4pairIKiiESaIS2_ENSt8__detail10_Select1stESt8equal_toIiESt4hashIiENS4_18_Mod_range_hashingENS4_20_Default_ranged_hashENS4_20_Prime_rehash_policyENS4_17_Hashtable_traitsILb0ELb0ELb1EEEE5clearEv:
LFB4111:
	.cfi_startproc
	.cfi_personality 0,___gxx_personality_v0
	.cfi_lsda 0,LLSDA4111
	pushl	%ebp
	.cfi_def_cfa_offset 8
	.cfi_offset 5, -8
	movl	%esp, %ebp
	.cfi_def_cfa_register 5
	subl	$40, %esp
	movl	%ecx, -12(%ebp)
	movl	-12(%ebp), %eax
	movl	%eax, %ecx
	call	__ZNKSt10_HashtableIiSt4pairIKiiESaIS2_ENSt8__detail10_Select1stESt8equal_toIiESt4hashIiENS4_18_Mod_range_hashingENS4_20_Default_ranged_hashENS4_20_Prime_rehash_policyENS4_17_Hashtable_traitsILb0ELb0ELb1EEEE8_M_beginEv
	movl	%eax, %edx
	movl	-12(%ebp), %eax
	movl	%edx, (%esp)
	movl	%eax, %ecx
	call	__ZNSt8__detail16_Hashtable_allocISaINS_10_Hash_nodeISt4pairIKiiELb0EEEEE19_M_deallocate_nodesEPS5_
	subl	$4, %esp
	movl	-12(%ebp), %eax
	movl	4(%eax), %eax
	leal	0(,%eax,4), %edx
	movl	-12(%ebp), %eax
	movl	(%eax), %eax
	movl	%edx, 8(%esp)
	movl	$0, 4(%esp)
	movl	%eax, (%esp)
	call	_memset
	movl	-12(%ebp), %eax
	movl	$0, 12(%eax)
	movl	-12(%ebp), %eax
	movl	$0, 8(%eax)
	nop
	leave
	.cfi_restore 5
	.cfi_def_cfa 4, 4
	ret
	.cfi_endproc
LFE4111:
	.section	.gcc_except_table,"w"
LLSDA4111:
	.byte	0xff
	.byte	0xff
	.byte	0x1
	.uleb128 LLSDACSE4111-LLSDACSB4111
LLSDACSB4111:
LLSDACSE4111:
	.section	.text$_ZNSt10_HashtableIiSt4pairIKiiESaIS2_ENSt8__detail10_Select1stESt8equal_toIiESt4hashIiENS4_18_Mod_range_hashingENS4_20_Default_ranged_hashENS4_20_Prime_rehash_policyENS4_17_Hashtable_traitsILb0ELb0ELb1EEEE5clearEv,"x"
	.linkonce discard
	.section	.text$_ZNSt10_HashtableIiSt4pairIKiiESaIS2_ENSt8__detail10_Select1stESt8equal_toIiESt4hashIiENS4_18_Mod_range_hashingENS4_20_Default_ranged_hashENS4_20_Prime_rehash_policyENS4_17_Hashtable_traitsILb0ELb0ELb1EEEE21_M_deallocate_bucketsEv,"x"
	.linkonce discard
	.align 2
	.globl	__ZNSt10_HashtableIiSt4pairIKiiESaIS2_ENSt8__detail10_Select1stESt8equal_toIiESt4hashIiENS4_18_Mod_range_hashingENS4_20_Default_ranged_hashENS4_20_Prime_rehash_policyENS4_17_Hashtable_traitsILb0ELb0ELb1EEEE21_M_deallocate_bucketsEv
	.def	__ZNSt10_HashtableIiSt4pairIKiiESaIS2_ENSt8__detail10_Select1stESt8equal_toIiESt4hashIiENS4_18_Mod_range_hashingENS4_20_Default_ranged_hashENS4_20_Prime_rehash_policyENS4_17_Hashtable_traitsILb0ELb0ELb1EEEE21_M_deallocate_bucketsEv;	.scl	2;	.type	32;	.endef
__ZNSt10_HashtableIiSt4pairIKiiESaIS2_ENSt8__detail10_Select1stESt8equal_toIiESt4hashIiENS4_18_Mod_range_hashingENS4_20_Default_ranged_hashENS4_20_Prime_rehash_policyENS4_17_Hashtable_traitsILb0ELb0ELb1EEEE21_M_deallocate_bucketsEv:
LFB4112:
	.cfi_startproc
	pushl	%ebp
	.cfi_def_cfa_offset 8
	.cfi_offset 5, -8
	movl	%esp, %ebp
	.cfi_def_cfa_register 5
	subl	$40, %esp
	movl	%ecx, -12(%ebp)
	movl	-12(%ebp), %eax
	movl	4(%eax), %ecx
	movl	-12(%ebp), %eax
	movl	(%eax), %edx
	movl	-12(%ebp), %eax
	movl	%ecx, 4(%esp)
	movl	%edx, (%esp)
	movl	%eax, %ecx
	call	__ZNSt10_HashtableIiSt4pairIKiiESaIS2_ENSt8__detail10_Select1stESt8equal_toIiESt4hashIiENS4_18_Mod_range_hashingENS4_20_Default_ranged_hashENS4_20_Prime_rehash_policyENS4_17_Hashtable_traitsILb0ELb0ELb1EEEE21_M_deallocate_bucketsEPPNS4_15_Hash_node_baseEj
	subl	$8, %esp
	nop
	leave
	.cfi_restore 5
	.cfi_def_cfa 4, 4
	ret
	.cfi_endproc
LFE4112:
	.section	.text$_ZNSaISt10_List_nodeIiEEC2Ev,"x"
	.linkonce discard
	.align 2
	.globl	__ZNSaISt10_List_nodeIiEEC2Ev
	.def	__ZNSaISt10_List_nodeIiEEC2Ev;	.scl	2;	.type	32;	.endef
__ZNSaISt10_List_nodeIiEEC2Ev:
LFB4114:
	.cfi_startproc
	pushl	%ebp
	.cfi_def_cfa_offset 8
	.cfi_offset 5, -8
	movl	%esp, %ebp
	.cfi_def_cfa_register 5
	subl	$24, %esp
	movl	%ecx, -12(%ebp)
	movl	-12(%ebp), %eax
	movl	%eax, %ecx
	call	__ZN9__gnu_cxx13new_allocatorISt10_List_nodeIiEEC2Ev
	nop
	leave
	.cfi_restore 5
	.cfi_def_cfa 4, 4
	ret
	.cfi_endproc
LFE4114:
	.section	.text$_ZN9__gnu_cxx13new_allocatorISt10_List_nodeIiEED2Ev,"x"
	.linkonce discard
	.align 2
	.globl	__ZN9__gnu_cxx13new_allocatorISt10_List_nodeIiEED2Ev
	.def	__ZN9__gnu_cxx13new_allocatorISt10_List_nodeIiEED2Ev;	.scl	2;	.type	32;	.endef
__ZN9__gnu_cxx13new_allocatorISt10_List_nodeIiEED2Ev:
LFB4117:
	.cfi_startproc
	pushl	%ebp
	.cfi_def_cfa_offset 8
	.cfi_offset 5, -8
	movl	%esp, %ebp
	.cfi_def_cfa_register 5
	subl	$4, %esp
	movl	%ecx, -4(%ebp)
	nop
	leave
	.cfi_restore 5
	.cfi_def_cfa 4, 4
	ret
	.cfi_endproc
LFE4117:
	.section	.text$_ZNSt7__cxx1110_List_baseIiSaIiEE8_M_clearEv,"x"
	.linkonce discard
	.align 2
	.globl	__ZNSt7__cxx1110_List_baseIiSaIiEE8_M_clearEv
	.def	__ZNSt7__cxx1110_List_baseIiSaIiEE8_M_clearEv;	.scl	2;	.type	32;	.endef
__ZNSt7__cxx1110_List_baseIiSaIiEE8_M_clearEv:
LFB4119:
	.cfi_startproc
	pushl	%ebp
	.cfi_def_cfa_offset 8
	.cfi_offset 5, -8
	movl	%esp, %ebp
	.cfi_def_cfa_register 5
	subl	$56, %esp
	movl	%ecx, -28(%ebp)
	movl	-28(%ebp), %eax
	movl	(%eax), %eax
	movl	%eax, -12(%ebp)
L254:
	movl	-28(%ebp), %eax
	cmpl	%eax, -12(%ebp)
	je	L255
	movl	-12(%ebp), %eax
	movl	%eax, -16(%ebp)
	movl	-16(%ebp), %eax
	movl	(%eax), %eax
	movl	%eax, -12(%ebp)
	movl	-16(%ebp), %eax
	movl	%eax, %ecx
	call	__ZNSt10_List_nodeIiE9_M_valptrEv
	movl	%eax, -20(%ebp)
	movl	-28(%ebp), %eax
	movl	%eax, %ecx
	call	__ZNSt7__cxx1110_List_baseIiSaIiEE21_M_get_Node_allocatorEv
	movl	-20(%ebp), %edx
	movl	%edx, 4(%esp)
	movl	%eax, (%esp)
	call	__ZNSt16allocator_traitsISaISt10_List_nodeIiEEE7destroyIiEEvRS2_PT_
	movl	-28(%ebp), %eax
	movl	-16(%ebp), %edx
	movl	%edx, (%esp)
	movl	%eax, %ecx
	call	__ZNSt7__cxx1110_List_baseIiSaIiEE11_M_put_nodeEPSt10_List_nodeIiE
	subl	$4, %esp
	jmp	L254
L255:
	nop
	leave
	.cfi_restore 5
	.cfi_def_cfa 4, 4
	ret
	.cfi_endproc
LFE4119:
	.section	.text$_ZN9__gnu_cxx13new_allocatorI9cache_setEC2Ev,"x"
	.linkonce discard
	.align 2
	.globl	__ZN9__gnu_cxx13new_allocatorI9cache_setEC2Ev
	.def	__ZN9__gnu_cxx13new_allocatorI9cache_setEC2Ev;	.scl	2;	.type	32;	.endef
__ZN9__gnu_cxx13new_allocatorI9cache_setEC2Ev:
LFB4121:
	.cfi_startproc
	pushl	%ebp
	.cfi_def_cfa_offset 8
	.cfi_offset 5, -8
	movl	%esp, %ebp
	.cfi_def_cfa_register 5
	subl	$4, %esp
	movl	%ecx, -4(%ebp)
	nop
	leave
	.cfi_restore 5
	.cfi_def_cfa 4, 4
	ret
	.cfi_endproc
LFE4121:
	.section	.text$_ZN9__gnu_cxx13new_allocatorI9cache_setED2Ev,"x"
	.linkonce discard
	.align 2
	.globl	__ZN9__gnu_cxx13new_allocatorI9cache_setED2Ev
	.def	__ZN9__gnu_cxx13new_allocatorI9cache_setED2Ev;	.scl	2;	.type	32;	.endef
__ZN9__gnu_cxx13new_allocatorI9cache_setED2Ev:
LFB4124:
	.cfi_startproc
	pushl	%ebp
	.cfi_def_cfa_offset 8
	.cfi_offset 5, -8
	movl	%esp, %ebp
	.cfi_def_cfa_register 5
	subl	$4, %esp
	movl	%ecx, -4(%ebp)
	nop
	leave
	.cfi_restore 5
	.cfi_def_cfa 4, 4
	ret
	.cfi_endproc
LFE4124:
	.section	.text$_ZNSt6vectorI9cache_setSaIS0_EE17_S_check_init_lenEjRKS1_,"x"
	.linkonce discard
	.globl	__ZNSt6vectorI9cache_setSaIS0_EE17_S_check_init_lenEjRKS1_
	.def	__ZNSt6vectorI9cache_setSaIS0_EE17_S_check_init_lenEjRKS1_;	.scl	2;	.type	32;	.endef
__ZNSt6vectorI9cache_setSaIS0_EE17_S_check_init_lenEjRKS1_:
LFB4126:
	.cfi_startproc
	pushl	%ebp
	.cfi_def_cfa_offset 8
	.cfi_offset 5, -8
	movl	%esp, %ebp
	.cfi_def_cfa_register 5
	pushl	%ebx
	subl	$36, %esp
	.cfi_offset 3, -12
	leal	-9(%ebp), %eax
	movl	12(%ebp), %edx
	movl	%edx, (%esp)
	movl	%eax, %ecx
	call	__ZNSaI9cache_setEC1ERKS0_
	subl	$4, %esp
	leal	-9(%ebp), %eax
	movl	%eax, (%esp)
	call	__ZNSt6vectorI9cache_setSaIS0_EE11_S_max_sizeERKS1_
	cmpl	%eax, 8(%ebp)
	seta	%bl
	leal	-9(%ebp), %eax
	movl	%eax, %ecx
	call	__ZNSaI9cache_setED1Ev
	testb	%bl, %bl
	je	L259
	movl	$LC15, (%esp)
	call	__ZSt20__throw_length_errorPKc
L259:
	movl	8(%ebp), %eax
	movl	-4(%ebp), %ebx
	leave
	.cfi_restore 5
	.cfi_restore 3
	.cfi_def_cfa 4, 4
	ret
	.cfi_endproc
LFE4126:
	.section	.text$_ZNSt12_Vector_baseI9cache_setSaIS0_EE12_Vector_implD1Ev,"x"
	.linkonce discard
	.align 2
	.globl	__ZNSt12_Vector_baseI9cache_setSaIS0_EE12_Vector_implD1Ev
	.def	__ZNSt12_Vector_baseI9cache_setSaIS0_EE12_Vector_implD1Ev;	.scl	2;	.type	32;	.endef
__ZNSt12_Vector_baseI9cache_setSaIS0_EE12_Vector_implD1Ev:
LFB4130:
	.cfi_startproc
	pushl	%ebp
	.cfi_def_cfa_offset 8
	.cfi_offset 5, -8
	movl	%esp, %ebp
	.cfi_def_cfa_register 5
	subl	$24, %esp
	movl	%ecx, -12(%ebp)
	movl	-12(%ebp), %eax
	movl	%eax, %ecx
	call	__ZNSaI9cache_setED2Ev
	nop
	leave
	.cfi_restore 5
	.cfi_def_cfa 4, 4
	ret
	.cfi_endproc
LFE4130:
	.section	.text$_ZNSt12_Vector_baseI9cache_setSaIS0_EEC2EjRKS1_,"x"
	.linkonce discard
	.align 2
	.globl	__ZNSt12_Vector_baseI9cache_setSaIS0_EEC2EjRKS1_
	.def	__ZNSt12_Vector_baseI9cache_setSaIS0_EEC2EjRKS1_;	.scl	2;	.type	32;	.endef
__ZNSt12_Vector_baseI9cache_setSaIS0_EEC2EjRKS1_:
LFB4131:
	.cfi_startproc
	.cfi_personality 0,___gxx_personality_v0
	.cfi_lsda 0,LLSDA4131
	pushl	%ebp
	.cfi_def_cfa_offset 8
	.cfi_offset 5, -8
	movl	%esp, %ebp
	.cfi_def_cfa_register 5
	pushl	%ebx
	subl	$36, %esp
	.cfi_offset 3, -12
	movl	%ecx, -12(%ebp)
	movl	-12(%ebp), %eax
	movl	12(%ebp), %edx
	movl	%edx, (%esp)
	movl	%eax, %ecx
	call	__ZNSt12_Vector_baseI9cache_setSaIS0_EE12_Vector_implC1ERKS1_
	subl	$4, %esp
	movl	-12(%ebp), %eax
	movl	8(%ebp), %edx
	movl	%edx, (%esp)
	movl	%eax, %ecx
LEHB33:
	call	__ZNSt12_Vector_baseI9cache_setSaIS0_EE17_M_create_storageEj
LEHE33:
	subl	$4, %esp
	jmp	L265
L264:
	movl	%eax, %ebx
	movl	-12(%ebp), %eax
	movl	%eax, %ecx
	call	__ZNSt12_Vector_baseI9cache_setSaIS0_EE12_Vector_implD1Ev
	movl	%ebx, %eax
	movl	%eax, (%esp)
LEHB34:
	call	__Unwind_Resume
LEHE34:
L265:
	movl	-4(%ebp), %ebx
	leave
	.cfi_restore 5
	.cfi_restore 3
	.cfi_def_cfa 4, 4
	ret	$8
	.cfi_endproc
LFE4131:
	.section	.gcc_except_table,"w"
LLSDA4131:
	.byte	0xff
	.byte	0xff
	.byte	0x1
	.uleb128 LLSDACSE4131-LLSDACSB4131
LLSDACSB4131:
	.uleb128 LEHB33-LFB4131
	.uleb128 LEHE33-LEHB33
	.uleb128 L264-LFB4131
	.uleb128 0
	.uleb128 LEHB34-LFB4131
	.uleb128 LEHE34-LEHB34
	.uleb128 0
	.uleb128 0
LLSDACSE4131:
	.section	.text$_ZNSt12_Vector_baseI9cache_setSaIS0_EEC2EjRKS1_,"x"
	.linkonce discard
	.section	.text$_ZNSt12_Vector_baseI9cache_setSaIS0_EED2Ev,"x"
	.linkonce discard
	.align 2
	.globl	__ZNSt12_Vector_baseI9cache_setSaIS0_EED2Ev
	.def	__ZNSt12_Vector_baseI9cache_setSaIS0_EED2Ev;	.scl	2;	.type	32;	.endef
__ZNSt12_Vector_baseI9cache_setSaIS0_EED2Ev:
LFB4134:
	.cfi_startproc
	.cfi_personality 0,___gxx_personality_v0
	.cfi_lsda 0,LLSDA4134
	pushl	%ebp
	.cfi_def_cfa_offset 8
	.cfi_offset 5, -8
	movl	%esp, %ebp
	.cfi_def_cfa_register 5
	subl	$40, %esp
	movl	%ecx, -12(%ebp)
	movl	-12(%ebp), %eax
	movl	8(%eax), %edx
	movl	-12(%ebp), %eax
	movl	(%eax), %eax
	subl	%eax, %edx
	movl	%edx, %eax
	sarl	$2, %eax
	imull	$-286331153, %eax, %eax
	movl	%eax, %ecx
	movl	-12(%ebp), %eax
	movl	(%eax), %edx
	movl	-12(%ebp), %eax
	movl	%ecx, 4(%esp)
	movl	%edx, (%esp)
	movl	%eax, %ecx
	call	__ZNSt12_Vector_baseI9cache_setSaIS0_EE13_M_deallocateEPS0_j
	subl	$8, %esp
	movl	-12(%ebp), %eax
	movl	%eax, %ecx
	call	__ZNSt12_Vector_baseI9cache_setSaIS0_EE12_Vector_implD1Ev
	nop
	leave
	.cfi_restore 5
	.cfi_def_cfa 4, 4
	ret
	.cfi_endproc
LFE4134:
	.section	.gcc_except_table,"w"
LLSDA4134:
	.byte	0xff
	.byte	0xff
	.byte	0x1
	.uleb128 LLSDACSE4134-LLSDACSB4134
LLSDACSB4134:
LLSDACSE4134:
	.section	.text$_ZNSt12_Vector_baseI9cache_setSaIS0_EED2Ev,"x"
	.linkonce discard
	.section	.text$_ZNSt6vectorI9cache_setSaIS0_EE18_M_fill_initializeEjRKS0_,"x"
	.linkonce discard
	.align 2
	.globl	__ZNSt6vectorI9cache_setSaIS0_EE18_M_fill_initializeEjRKS0_
	.def	__ZNSt6vectorI9cache_setSaIS0_EE18_M_fill_initializeEjRKS0_;	.scl	2;	.type	32;	.endef
__ZNSt6vectorI9cache_setSaIS0_EE18_M_fill_initializeEjRKS0_:
LFB4136:
	.cfi_startproc
	pushl	%ebp
	.cfi_def_cfa_offset 8
	.cfi_offset 5, -8
	movl	%esp, %ebp
	.cfi_def_cfa_register 5
	subl	$40, %esp
	movl	%ecx, -12(%ebp)
	movl	-12(%ebp), %eax
	movl	%eax, %ecx
	call	__ZNSt12_Vector_baseI9cache_setSaIS0_EE19_M_get_Tp_allocatorEv
	movl	-12(%ebp), %edx
	movl	(%edx), %edx
	movl	%eax, 12(%esp)
	movl	12(%ebp), %eax
	movl	%eax, 8(%esp)
	movl	8(%ebp), %eax
	movl	%eax, 4(%esp)
	movl	%edx, (%esp)
	call	__ZSt24__uninitialized_fill_n_aIP9cache_setjS0_S0_ET_S2_T0_RKT1_RSaIT2_E
	movl	-12(%ebp), %edx
	movl	%eax, 4(%edx)
	nop
	leave
	.cfi_restore 5
	.cfi_def_cfa 4, 4
	ret	$8
	.cfi_endproc
LFE4136:
	.section	.text$_ZNSt12_Vector_baseI9cache_setSaIS0_EE19_M_get_Tp_allocatorEv,"x"
	.linkonce discard
	.align 2
	.globl	__ZNSt12_Vector_baseI9cache_setSaIS0_EE19_M_get_Tp_allocatorEv
	.def	__ZNSt12_Vector_baseI9cache_setSaIS0_EE19_M_get_Tp_allocatorEv;	.scl	2;	.type	32;	.endef
__ZNSt12_Vector_baseI9cache_setSaIS0_EE19_M_get_Tp_allocatorEv:
LFB4137:
	.cfi_startproc
	pushl	%ebp
	.cfi_def_cfa_offset 8
	.cfi_offset 5, -8
	movl	%esp, %ebp
	.cfi_def_cfa_register 5
	subl	$4, %esp
	movl	%ecx, -4(%ebp)
	movl	-4(%ebp), %eax
	leave
	.cfi_restore 5
	.cfi_def_cfa 4, 4
	ret
	.cfi_endproc
LFE4137:
	.section	.text$_ZSt8_DestroyIP9cache_setS0_EvT_S2_RSaIT0_E,"x"
	.linkonce discard
	.globl	__ZSt8_DestroyIP9cache_setS0_EvT_S2_RSaIT0_E
	.def	__ZSt8_DestroyIP9cache_setS0_EvT_S2_RSaIT0_E;	.scl	2;	.type	32;	.endef
__ZSt8_DestroyIP9cache_setS0_EvT_S2_RSaIT0_E:
LFB4138:
	.cfi_startproc
	pushl	%ebp
	.cfi_def_cfa_offset 8
	.cfi_offset 5, -8
	movl	%esp, %ebp
	.cfi_def_cfa_register 5
	subl	$24, %esp
	movl	12(%ebp), %eax
	movl	%eax, 4(%esp)
	movl	8(%ebp), %eax
	movl	%eax, (%esp)
	call	__ZSt8_DestroyIP9cache_setEvT_S2_
	nop
	leave
	.cfi_restore 5
	.cfi_def_cfa 4, 4
	ret
	.cfi_endproc
LFE4138:
	.section	.text$_ZNSt10_HashtableIiSt4pairIKiiESaIS2_ENSt8__detail10_Select1stESt8equal_toIiESt4hashIiENS4_18_Mod_range_hashingENS4_20_Default_ranged_hashENS4_20_Prime_rehash_policyENS4_17_Hashtable_traitsILb0ELb0ELb1EEEE4findERS1_,"x"
	.linkonce discard
	.align 2
	.globl	__ZNSt10_HashtableIiSt4pairIKiiESaIS2_ENSt8__detail10_Select1stESt8equal_toIiESt4hashIiENS4_18_Mod_range_hashingENS4_20_Default_ranged_hashENS4_20_Prime_rehash_policyENS4_17_Hashtable_traitsILb0ELb0ELb1EEEE4findERS1_
	.def	__ZNSt10_HashtableIiSt4pairIKiiESaIS2_ENSt8__detail10_Select1stESt8equal_toIiESt4hashIiENS4_18_Mod_range_hashingENS4_20_Default_ranged_hashENS4_20_Prime_rehash_policyENS4_17_Hashtable_traitsILb0ELb0ELb1EEEE4findERS1_;	.scl	2;	.type	32;	.endef
__ZNSt10_HashtableIiSt4pairIKiiESaIS2_ENSt8__detail10_Select1stESt8equal_toIiESt4hashIiENS4_18_Mod_range_hashingENS4_20_Default_ranged_hashENS4_20_Prime_rehash_policyENS4_17_Hashtable_traitsILb0ELb0ELb1EEEE4findERS1_:
LFB4167:
	.cfi_startproc
	pushl	%ebp
	.cfi_def_cfa_offset 8
	.cfi_offset 5, -8
	movl	%esp, %ebp
	.cfi_def_cfa_register 5
	subl	$56, %esp
	movl	%ecx, -28(%ebp)
	movl	-28(%ebp), %eax
	movl	8(%ebp), %edx
	movl	%edx, (%esp)
	movl	%eax, %ecx
	call	__ZNKSt8__detail15_Hash_code_baseIiSt4pairIKiiENS_10_Select1stESt4hashIiENS_18_Mod_range_hashingENS_20_Default_ranged_hashELb0EE12_M_hash_codeERS2_
	subl	$4, %esp
	movl	%eax, -12(%ebp)
	movl	-28(%ebp), %eax
	movl	-12(%ebp), %edx
	movl	%edx, 4(%esp)
	movl	8(%ebp), %edx
	movl	%edx, (%esp)
	movl	%eax, %ecx
	call	__ZNKSt10_HashtableIiSt4pairIKiiESaIS2_ENSt8__detail10_Select1stESt8equal_toIiESt4hashIiENS4_18_Mod_range_hashingENS4_20_Default_ranged_hashENS4_20_Prime_rehash_policyENS4_17_Hashtable_traitsILb0ELb0ELb1EEEE15_M_bucket_indexERS1_j
	subl	$8, %esp
	movl	%eax, -16(%ebp)
	movl	-28(%ebp), %eax
	movl	-12(%ebp), %edx
	movl	%edx, 8(%esp)
	movl	8(%ebp), %edx
	movl	%edx, 4(%esp)
	movl	-16(%ebp), %edx
	movl	%edx, (%esp)
	movl	%eax, %ecx
	call	__ZNKSt10_HashtableIiSt4pairIKiiESaIS2_ENSt8__detail10_Select1stESt8equal_toIiESt4hashIiENS4_18_Mod_range_hashingENS4_20_Default_ranged_hashENS4_20_Prime_rehash_policyENS4_17_Hashtable_traitsILb0ELb0ELb1EEEE12_M_find_nodeEjRS1_j
	subl	$12, %esp
	movl	%eax, -20(%ebp)
	cmpl	$0, -20(%ebp)
	je	L272
	leal	-24(%ebp), %eax
	movl	-20(%ebp), %edx
	movl	%edx, (%esp)
	movl	%eax, %ecx
	call	__ZNSt8__detail14_Node_iteratorISt4pairIKiiELb0ELb0EEC1EPNS_10_Hash_nodeIS3_Lb0EEE
	subl	$4, %esp
	jmp	L274
L272:
	movl	-28(%ebp), %eax
	movl	%eax, %ecx
	call	__ZNSt10_HashtableIiSt4pairIKiiESaIS2_ENSt8__detail10_Select1stESt8equal_toIiESt4hashIiENS4_18_Mod_range_hashingENS4_20_Default_ranged_hashENS4_20_Prime_rehash_policyENS4_17_Hashtable_traitsILb0ELb0ELb1EEEE3endEv
	movl	%eax, -24(%ebp)
L274:
	movl	-24(%ebp), %eax
	leave
	.cfi_restore 5
	.cfi_def_cfa 4, 4
	ret	$4
	.cfi_endproc
LFE4167:
	.section	.text$_ZNSt10_HashtableIiSt4pairIKiiESaIS2_ENSt8__detail10_Select1stESt8equal_toIiESt4hashIiENS4_18_Mod_range_hashingENS4_20_Default_ranged_hashENS4_20_Prime_rehash_policyENS4_17_Hashtable_traitsILb0ELb0ELb1EEEE3endEv,"x"
	.linkonce discard
	.align 2
	.globl	__ZNSt10_HashtableIiSt4pairIKiiESaIS2_ENSt8__detail10_Select1stESt8equal_toIiESt4hashIiENS4_18_Mod_range_hashingENS4_20_Default_ranged_hashENS4_20_Prime_rehash_policyENS4_17_Hashtable_traitsILb0ELb0ELb1EEEE3endEv
	.def	__ZNSt10_HashtableIiSt4pairIKiiESaIS2_ENSt8__detail10_Select1stESt8equal_toIiESt4hashIiENS4_18_Mod_range_hashingENS4_20_Default_ranged_hashENS4_20_Prime_rehash_policyENS4_17_Hashtable_traitsILb0ELb0ELb1EEEE3endEv;	.scl	2;	.type	32;	.endef
__ZNSt10_HashtableIiSt4pairIKiiESaIS2_ENSt8__detail10_Select1stESt8equal_toIiESt4hashIiENS4_18_Mod_range_hashingENS4_20_Default_ranged_hashENS4_20_Prime_rehash_policyENS4_17_Hashtable_traitsILb0ELb0ELb1EEEE3endEv:
LFB4168:
	.cfi_startproc
	pushl	%ebp
	.cfi_def_cfa_offset 8
	.cfi_offset 5, -8
	movl	%esp, %ebp
	.cfi_def_cfa_register 5
	subl	$56, %esp
	movl	%ecx, -28(%ebp)
	leal	-12(%ebp), %eax
	movl	$0, (%esp)
	movl	%eax, %ecx
	call	__ZNSt8__detail14_Node_iteratorISt4pairIKiiELb0ELb0EEC1EPNS_10_Hash_nodeIS3_Lb0EEE
	subl	$4, %esp
	movl	-12(%ebp), %eax
	leave
	.cfi_restore 5
	.cfi_def_cfa 4, 4
	ret
	.cfi_endproc
LFE4168:
	.section	.text$_ZNSt8__detail21_Hash_node_value_baseISt4pairIKiiEE9_M_valptrEv,"x"
	.linkonce discard
	.align 2
	.globl	__ZNSt8__detail21_Hash_node_value_baseISt4pairIKiiEE9_M_valptrEv
	.def	__ZNSt8__detail21_Hash_node_value_baseISt4pairIKiiEE9_M_valptrEv;	.scl	2;	.type	32;	.endef
__ZNSt8__detail21_Hash_node_value_baseISt4pairIKiiEE9_M_valptrEv:
LFB4169:
	.cfi_startproc
	pushl	%ebp
	.cfi_def_cfa_offset 8
	.cfi_offset 5, -8
	movl	%esp, %ebp
	.cfi_def_cfa_register 5
	subl	$24, %esp
	movl	%ecx, -12(%ebp)
	movl	-12(%ebp), %eax
	addl	$4, %eax
	movl	%eax, %ecx
	call	__ZN9__gnu_cxx16__aligned_bufferISt4pairIKiiEE6_M_ptrEv
	leave
	.cfi_restore 5
	.cfi_def_cfa 4, 4
	ret
	.cfi_endproc
LFE4169:
	.section	.text$_ZNSt14_List_iteratorIiEC1EPNSt8__detail15_List_node_baseE,"x"
	.linkonce discard
	.align 2
	.globl	__ZNSt14_List_iteratorIiEC1EPNSt8__detail15_List_node_baseE
	.def	__ZNSt14_List_iteratorIiEC1EPNSt8__detail15_List_node_baseE;	.scl	2;	.type	32;	.endef
__ZNSt14_List_iteratorIiEC1EPNSt8__detail15_List_node_baseE:
LFB4172:
	.cfi_startproc
	pushl	%ebp
	.cfi_def_cfa_offset 8
	.cfi_offset 5, -8
	movl	%esp, %ebp
	.cfi_def_cfa_register 5
	subl	$4, %esp
	movl	%ecx, -4(%ebp)
	movl	-4(%ebp), %eax
	movl	8(%ebp), %edx
	movl	%edx, (%eax)
	nop
	leave
	.cfi_restore 5
	.cfi_def_cfa 4, 4
	ret	$4
	.cfi_endproc
LFE4172:
	.section	.text$_ZN9__gnu_cxx5__ops17__iter_equals_valIKiEENS0_16_Iter_equals_valIT_EERS4_,"x"
	.linkonce discard
	.globl	__ZN9__gnu_cxx5__ops17__iter_equals_valIKiEENS0_16_Iter_equals_valIT_EERS4_
	.def	__ZN9__gnu_cxx5__ops17__iter_equals_valIKiEENS0_16_Iter_equals_valIT_EERS4_;	.scl	2;	.type	32;	.endef
__ZN9__gnu_cxx5__ops17__iter_equals_valIKiEENS0_16_Iter_equals_valIT_EERS4_:
LFB4173:
	.cfi_startproc
	pushl	%ebp
	.cfi_def_cfa_offset 8
	.cfi_offset 5, -8
	movl	%esp, %ebp
	.cfi_def_cfa_register 5
	subl	$40, %esp
	leal	-12(%ebp), %eax
	movl	8(%ebp), %edx
	movl	%edx, (%esp)
	movl	%eax, %ecx
	call	__ZN9__gnu_cxx5__ops16_Iter_equals_valIKiEC1ERS2_
	subl	$4, %esp
	movl	-12(%ebp), %eax
	leave
	.cfi_restore 5
	.cfi_def_cfa 4, 4
	ret
	.cfi_endproc
LFE4173:
	.section	.text$_ZSt9__find_ifISt14_List_iteratorIiEN9__gnu_cxx5__ops16_Iter_equals_valIKiEEET_S7_S7_T0_,"x"
	.linkonce discard
	.globl	__ZSt9__find_ifISt14_List_iteratorIiEN9__gnu_cxx5__ops16_Iter_equals_valIKiEEET_S7_S7_T0_
	.def	__ZSt9__find_ifISt14_List_iteratorIiEN9__gnu_cxx5__ops16_Iter_equals_valIKiEEET_S7_S7_T0_;	.scl	2;	.type	32;	.endef
__ZSt9__find_ifISt14_List_iteratorIiEN9__gnu_cxx5__ops16_Iter_equals_valIKiEEET_S7_S7_T0_:
LFB4174:
	.cfi_startproc
	pushl	%ebp
	.cfi_def_cfa_offset 8
	.cfi_offset 5, -8
	movl	%esp, %ebp
	.cfi_def_cfa_register 5
	pushl	%ebx
	subl	$36, %esp
	.cfi_offset 3, -12
	leal	8(%ebp), %eax
	movl	%eax, (%esp)
	call	__ZSt19__iterator_categoryISt14_List_iteratorIiEENSt15iterator_traitsIT_E17iterator_categoryERKS3_
	movb	%bl, 12(%esp)
	movl	16(%ebp), %eax
	movl	%eax, 8(%esp)
	movl	12(%ebp), %eax
	movl	%eax, 4(%esp)
	movl	8(%ebp), %eax
	movl	%eax, (%esp)
	call	__ZSt9__find_ifISt14_List_iteratorIiEN9__gnu_cxx5__ops16_Iter_equals_valIKiEEET_S7_S7_T0_St18input_iterator_tag
	addl	$36, %esp
	popl	%ebx
	.cfi_restore 3
	popl	%ebp
	.cfi_restore 5
	.cfi_def_cfa 4, 4
	ret
	.cfi_endproc
LFE4174:
	.section	.text$_ZNSt7__cxx114listIiSaIiEE8_M_eraseESt14_List_iteratorIiE,"x"
	.linkonce discard
	.align 2
	.globl	__ZNSt7__cxx114listIiSaIiEE8_M_eraseESt14_List_iteratorIiE
	.def	__ZNSt7__cxx114listIiSaIiEE8_M_eraseESt14_List_iteratorIiE;	.scl	2;	.type	32;	.endef
__ZNSt7__cxx114listIiSaIiEE8_M_eraseESt14_List_iteratorIiE:
LFB4175:
	.cfi_startproc
	pushl	%ebp
	.cfi_def_cfa_offset 8
	.cfi_offset 5, -8
	movl	%esp, %ebp
	.cfi_def_cfa_register 5
	pushl	%ebx
	subl	$52, %esp
	.cfi_offset 3, -12
	movl	%ecx, -28(%ebp)
	movl	-28(%ebp), %eax
	movl	$1, (%esp)
	movl	%eax, %ecx
	call	__ZNSt7__cxx1110_List_baseIiSaIiEE11_M_dec_sizeEj
	subl	$4, %esp
	movl	8(%ebp), %eax
	movl	%eax, %ecx
	call	__ZNSt8__detail15_List_node_base9_M_unhookEv
	movl	8(%ebp), %eax
	movl	%eax, -12(%ebp)
	movl	-12(%ebp), %eax
	movl	%eax, %ecx
	call	__ZNSt10_List_nodeIiE9_M_valptrEv
	movl	%eax, %ebx
	movl	-28(%ebp), %eax
	movl	%eax, %ecx
	call	__ZNSt7__cxx1110_List_baseIiSaIiEE21_M_get_Node_allocatorEv
	movl	%ebx, 4(%esp)
	movl	%eax, (%esp)
	call	__ZNSt16allocator_traitsISaISt10_List_nodeIiEEE7destroyIiEEvRS2_PT_
	movl	-28(%ebp), %eax
	movl	-12(%ebp), %edx
	movl	%edx, (%esp)
	movl	%eax, %ecx
	call	__ZNSt7__cxx1110_List_baseIiSaIiEE11_M_put_nodeEPSt10_List_nodeIiE
	subl	$4, %esp
	nop
	movl	-4(%ebp), %ebx
	leave
	.cfi_restore 5
	.cfi_restore 3
	.cfi_def_cfa 4, 4
	ret	$4
	.cfi_endproc
LFE4175:
	.section	.text$_ZNKSt20_List_const_iteratorIiE13_M_const_castEv,"x"
	.linkonce discard
	.align 2
	.globl	__ZNKSt20_List_const_iteratorIiE13_M_const_castEv
	.def	__ZNKSt20_List_const_iteratorIiE13_M_const_castEv;	.scl	2;	.type	32;	.endef
__ZNKSt20_List_const_iteratorIiE13_M_const_castEv:
LFB4176:
	.cfi_startproc
	pushl	%ebp
	.cfi_def_cfa_offset 8
	.cfi_offset 5, -8
	movl	%esp, %ebp
	.cfi_def_cfa_register 5
	subl	$56, %esp
	movl	%ecx, -28(%ebp)
	movl	-28(%ebp), %eax
	movl	(%eax), %edx
	leal	-12(%ebp), %eax
	movl	%edx, (%esp)
	movl	%eax, %ecx
	call	__ZNSt14_List_iteratorIiEC1EPNSt8__detail15_List_node_baseE
	subl	$4, %esp
	movl	-12(%ebp), %eax
	leave
	.cfi_restore 5
	.cfi_def_cfa 4, 4
	ret
	.cfi_endproc
LFE4176:
	.section	.text$_ZNSt10_HashtableIiSt4pairIKiiESaIS2_ENSt8__detail10_Select1stESt8equal_toIiESt4hashIiENS4_18_Mod_range_hashingENS4_20_Default_ranged_hashENS4_20_Prime_rehash_policyENS4_17_Hashtable_traitsILb0ELb0ELb1EEEE5eraseENS4_14_Node_iteratorIS2_Lb0ELb0EEE,"x"
	.linkonce discard
	.align 2
	.globl	__ZNSt10_HashtableIiSt4pairIKiiESaIS2_ENSt8__detail10_Select1stESt8equal_toIiESt4hashIiENS4_18_Mod_range_hashingENS4_20_Default_ranged_hashENS4_20_Prime_rehash_policyENS4_17_Hashtable_traitsILb0ELb0ELb1EEEE5eraseENS4_14_Node_iteratorIS2_Lb0ELb0EEE
	.def	__ZNSt10_HashtableIiSt4pairIKiiESaIS2_ENSt8__detail10_Select1stESt8equal_toIiESt4hashIiENS4_18_Mod_range_hashingENS4_20_Default_ranged_hashENS4_20_Prime_rehash_policyENS4_17_Hashtable_traitsILb0ELb0ELb1EEEE5eraseENS4_14_Node_iteratorIS2_Lb0ELb0EEE;	.scl	2;	.type	32;	.endef
__ZNSt10_HashtableIiSt4pairIKiiESaIS2_ENSt8__detail10_Select1stESt8equal_toIiESt4hashIiENS4_18_Mod_range_hashingENS4_20_Default_ranged_hashENS4_20_Prime_rehash_policyENS4_17_Hashtable_traitsILb0ELb0ELb1EEEE5eraseENS4_14_Node_iteratorIS2_Lb0ELb0EEE:
LFB4177:
	.cfi_startproc
	pushl	%ebp
	.cfi_def_cfa_offset 8
	.cfi_offset 5, -8
	movl	%esp, %ebp
	.cfi_def_cfa_register 5
	subl	$56, %esp
	movl	%ecx, -28(%ebp)
	leal	-12(%ebp), %eax
	leal	8(%ebp), %edx
	movl	%edx, (%esp)
	movl	%eax, %ecx
	call	__ZNSt8__detail20_Node_const_iteratorISt4pairIKiiELb0ELb0EEC1ERKNS_14_Node_iteratorIS3_Lb0ELb0EEE
	subl	$4, %esp
	movl	-28(%ebp), %eax
	movl	-12(%ebp), %edx
	movl	%edx, (%esp)
	movl	%eax, %ecx
	call	__ZNSt10_HashtableIiSt4pairIKiiESaIS2_ENSt8__detail10_Select1stESt8equal_toIiESt4hashIiENS4_18_Mod_range_hashingENS4_20_Default_ranged_hashENS4_20_Prime_rehash_policyENS4_17_Hashtable_traitsILb0ELb0ELb1EEEE5eraseENS4_20_Node_const_iteratorIS2_Lb0ELb0EEE
	subl	$4, %esp
	leave
	.cfi_restore 5
	.cfi_def_cfa 4, 4
	ret	$4
	.cfi_endproc
LFE4177:
	.section	.text$_ZNKSt7__cxx114listIiSaIiEE13_M_node_countEv,"x"
	.linkonce discard
	.align 2
	.globl	__ZNKSt7__cxx114listIiSaIiEE13_M_node_countEv
	.def	__ZNKSt7__cxx114listIiSaIiEE13_M_node_countEv;	.scl	2;	.type	32;	.endef
__ZNKSt7__cxx114listIiSaIiEE13_M_node_countEv:
LFB4178:
	.cfi_startproc
	pushl	%ebp
	.cfi_def_cfa_offset 8
	.cfi_offset 5, -8
	movl	%esp, %ebp
	.cfi_def_cfa_register 5
	subl	$24, %esp
	movl	%ecx, -12(%ebp)
	movl	-12(%ebp), %eax
	movl	%eax, %ecx
	call	__ZNKSt7__cxx1110_List_baseIiSaIiEE11_M_get_sizeEv
	leave
	.cfi_restore 5
	.cfi_def_cfa 4, 4
	ret
	.cfi_endproc
LFE4178:
	.section	.text$_ZNSt7__cxx114listIiSaIiEE9_M_insertIJRKiEEEvSt14_List_iteratorIiEDpOT_,"x"
	.linkonce discard
	.align 2
	.globl	__ZNSt7__cxx114listIiSaIiEE9_M_insertIJRKiEEEvSt14_List_iteratorIiEDpOT_
	.def	__ZNSt7__cxx114listIiSaIiEE9_M_insertIJRKiEEEvSt14_List_iteratorIiEDpOT_;	.scl	2;	.type	32;	.endef
__ZNSt7__cxx114listIiSaIiEE9_M_insertIJRKiEEEvSt14_List_iteratorIiEDpOT_:
LFB4179:
	.cfi_startproc
	pushl	%ebp
	.cfi_def_cfa_offset 8
	.cfi_offset 5, -8
	movl	%esp, %ebp
	.cfi_def_cfa_register 5
	subl	$56, %esp
	movl	%ecx, -28(%ebp)
	movl	12(%ebp), %eax
	movl	%eax, (%esp)
	call	__ZSt7forwardIRKiEOT_RNSt16remove_referenceIS2_E4typeE
	movl	%eax, %edx
	movl	-28(%ebp), %eax
	movl	%edx, (%esp)
	movl	%eax, %ecx
	call	__ZNSt7__cxx114listIiSaIiEE14_M_create_nodeIJRKiEEEPSt10_List_nodeIiEDpOT_
	subl	$4, %esp
	movl	%eax, -12(%ebp)
	movl	-12(%ebp), %eax
	movl	8(%ebp), %edx
	movl	%edx, (%esp)
	movl	%eax, %ecx
	call	__ZNSt8__detail15_List_node_base7_M_hookEPS0_
	subl	$4, %esp
	movl	-28(%ebp), %eax
	movl	$1, (%esp)
	movl	%eax, %ecx
	call	__ZNSt7__cxx1110_List_baseIiSaIiEE11_M_inc_sizeEj
	subl	$4, %esp
	nop
	leave
	.cfi_restore 5
	.cfi_def_cfa 4, 4
	ret	$8
	.cfi_endproc
LFE4179:
	.section	.text$_ZSt7forwardIRiEOT_RNSt16remove_referenceIS1_E4typeE,"x"
	.linkonce discard
	.globl	__ZSt7forwardIRiEOT_RNSt16remove_referenceIS1_E4typeE
	.def	__ZSt7forwardIRiEOT_RNSt16remove_referenceIS1_E4typeE;	.scl	2;	.type	32;	.endef
__ZSt7forwardIRiEOT_RNSt16remove_referenceIS1_E4typeE:
LFB4180:
	.cfi_startproc
	pushl	%ebp
	.cfi_def_cfa_offset 8
	.cfi_offset 5, -8
	movl	%esp, %ebp
	.cfi_def_cfa_register 5
	movl	8(%ebp), %eax
	popl	%ebp
	.cfi_restore 5
	.cfi_def_cfa 4, 4
	ret
	.cfi_endproc
LFE4180:
	.section	.text$_ZNSt4pairIiiEC1IRiS2_Lb1EEEOT_OT0_,"x"
	.linkonce discard
	.align 2
	.globl	__ZNSt4pairIiiEC1IRiS2_Lb1EEEOT_OT0_
	.def	__ZNSt4pairIiiEC1IRiS2_Lb1EEEOT_OT0_;	.scl	2;	.type	32;	.endef
__ZNSt4pairIiiEC1IRiS2_Lb1EEEOT_OT0_:
LFB4183:
	.cfi_startproc
	pushl	%ebp
	.cfi_def_cfa_offset 8
	.cfi_offset 5, -8
	movl	%esp, %ebp
	.cfi_def_cfa_register 5
	subl	$40, %esp
	movl	%ecx, -12(%ebp)
	movl	8(%ebp), %eax
	movl	%eax, (%esp)
	call	__ZSt7forwardIRiEOT_RNSt16remove_referenceIS1_E4typeE
	movl	(%eax), %edx
	movl	-12(%ebp), %eax
	movl	%edx, (%eax)
	movl	12(%ebp), %eax
	movl	%eax, (%esp)
	call	__ZSt7forwardIRiEOT_RNSt16remove_referenceIS1_E4typeE
	movl	(%eax), %edx
	movl	-12(%ebp), %eax
	movl	%edx, 4(%eax)
	nop
	leave
	.cfi_restore 5
	.cfi_def_cfa 4, 4
	ret	$8
	.cfi_endproc
LFE4183:
	.section	.text$_ZSt7forwardISt4pairIiiEEOT_RNSt16remove_referenceIS2_E4typeE,"x"
	.linkonce discard
	.globl	__ZSt7forwardISt4pairIiiEEOT_RNSt16remove_referenceIS2_E4typeE
	.def	__ZSt7forwardISt4pairIiiEEOT_RNSt16remove_referenceIS2_E4typeE;	.scl	2;	.type	32;	.endef
__ZSt7forwardISt4pairIiiEEOT_RNSt16remove_referenceIS2_E4typeE:
LFB4184:
	.cfi_startproc
	pushl	%ebp
	.cfi_def_cfa_offset 8
	.cfi_offset 5, -8
	movl	%esp, %ebp
	.cfi_def_cfa_register 5
	movl	8(%ebp), %eax
	popl	%ebp
	.cfi_restore 5
	.cfi_def_cfa 4, 4
	ret
	.cfi_endproc
LFE4184:
	.section	.text$_ZNSt10_HashtableIiSt4pairIKiiESaIS2_ENSt8__detail10_Select1stESt8equal_toIiESt4hashIiENS4_18_Mod_range_hashingENS4_20_Default_ranged_hashENS4_20_Prime_rehash_policyENS4_17_Hashtable_traitsILb0ELb0ELb1EEEE7emplaceIJS0_IiiEEEES0_INS4_14_Node_iteratorIS2_Lb0ELb0EEEbEDpOT_,"x"
	.linkonce discard
	.align 2
	.globl	__ZNSt10_HashtableIiSt4pairIKiiESaIS2_ENSt8__detail10_Select1stESt8equal_toIiESt4hashIiENS4_18_Mod_range_hashingENS4_20_Default_ranged_hashENS4_20_Prime_rehash_policyENS4_17_Hashtable_traitsILb0ELb0ELb1EEEE7emplaceIJS0_IiiEEEES0_INS4_14_Node_iteratorIS2_Lb0ELb0EEEbEDpOT_
	.def	__ZNSt10_HashtableIiSt4pairIKiiESaIS2_ENSt8__detail10_Select1stESt8equal_toIiESt4hashIiENS4_18_Mod_range_hashingENS4_20_Default_ranged_hashENS4_20_Prime_rehash_policyENS4_17_Hashtable_traitsILb0ELb0ELb1EEEE7emplaceIJS0_IiiEEEES0_INS4_14_Node_iteratorIS2_Lb0ELb0EEEbEDpOT_;	.scl	2;	.type	32;	.endef
__ZNSt10_HashtableIiSt4pairIKiiESaIS2_ENSt8__detail10_Select1stESt8equal_toIiESt4hashIiENS4_18_Mod_range_hashingENS4_20_Default_ranged_hashENS4_20_Prime_rehash_policyENS4_17_Hashtable_traitsILb0ELb0ELb1EEEE7emplaceIJS0_IiiEEEES0_INS4_14_Node_iteratorIS2_Lb0ELb0EEEbEDpOT_:
LFB4185:
	.cfi_startproc
	pushl	%ebp
	.cfi_def_cfa_offset 8
	.cfi_offset 5, -8
	movl	%esp, %ebp
	.cfi_def_cfa_register 5
	pushl	%ebx
	subl	$52, %esp
	.cfi_offset 3, -12
	movl	%ecx, -28(%ebp)
	movl	8(%ebp), %eax
	movl	%eax, (%esp)
	call	__ZSt7forwardISt4pairIiiEEOT_RNSt16remove_referenceIS2_E4typeE
	movl	%eax, %edx
	movl	-28(%ebp), %eax
	movl	%edx, 4(%esp)
	movb	%bl, (%esp)
	movl	%eax, %ecx
	call	__ZNSt10_HashtableIiSt4pairIKiiESaIS2_ENSt8__detail10_Select1stESt8equal_toIiESt4hashIiENS4_18_Mod_range_hashingENS4_20_Default_ranged_hashENS4_20_Prime_rehash_policyENS4_17_Hashtable_traitsILb0ELb0ELb1EEEE10_M_emplaceIJS0_IiiEEEES0_INS4_14_Node_iteratorIS2_Lb0ELb0EEEbESt17integral_constantIbLb1EEDpOT_
	subl	$8, %esp
	movl	-4(%ebp), %ebx
	leave
	.cfi_restore 5
	.cfi_restore 3
	.cfi_def_cfa 4, 4
	ret	$4
	.cfi_endproc
LFE4185:
	.section	.text$_ZNKSt14_List_iteratorIiEdeEv,"x"
	.linkonce discard
	.align 2
	.globl	__ZNKSt14_List_iteratorIiEdeEv
	.def	__ZNKSt14_List_iteratorIiEdeEv;	.scl	2;	.type	32;	.endef
__ZNKSt14_List_iteratorIiEdeEv:
LFB4186:
	.cfi_startproc
	pushl	%ebp
	.cfi_def_cfa_offset 8
	.cfi_offset 5, -8
	movl	%esp, %ebp
	.cfi_def_cfa_register 5
	subl	$24, %esp
	movl	%ecx, -12(%ebp)
	movl	-12(%ebp), %eax
	movl	(%eax), %eax
	movl	%eax, %ecx
	call	__ZNSt10_List_nodeIiE9_M_valptrEv
	leave
	.cfi_restore 5
	.cfi_def_cfa 4, 4
	ret
	.cfi_endproc
LFE4186:
	.section	.text$_ZNSt6vectorI5blockSaIS0_EE11_S_max_sizeERKS1_,"x"
	.linkonce discard
	.globl	__ZNSt6vectorI5blockSaIS0_EE11_S_max_sizeERKS1_
	.def	__ZNSt6vectorI5blockSaIS0_EE11_S_max_sizeERKS1_;	.scl	2;	.type	32;	.endef
__ZNSt6vectorI5blockSaIS0_EE11_S_max_sizeERKS1_:
LFB4227:
	.cfi_startproc
	pushl	%ebp
	.cfi_def_cfa_offset 8
	.cfi_offset 5, -8
	movl	%esp, %ebp
	.cfi_def_cfa_register 5
	subl	$40, %esp
	movl	$134217727, -12(%ebp)
	movl	8(%ebp), %eax
	movl	%eax, (%esp)
	call	__ZNSt16allocator_traitsISaI5blockEE8max_sizeERKS1_
	movl	%eax, -16(%ebp)
	leal	-16(%ebp), %eax
	movl	%eax, 4(%esp)
	leal	-12(%ebp), %eax
	movl	%eax, (%esp)
	call	__ZSt3minIjERKT_S2_S2_
	movl	(%eax), %eax
	leave
	.cfi_restore 5
	.cfi_def_cfa 4, 4
	ret
	.cfi_endproc
LFE4227:
	.section	.text$_ZNSaI5blockEC2ERKS0_,"x"
	.linkonce discard
	.align 2
	.globl	__ZNSaI5blockEC2ERKS0_
	.def	__ZNSaI5blockEC2ERKS0_;	.scl	2;	.type	32;	.endef
__ZNSaI5blockEC2ERKS0_:
LFB4229:
	.cfi_startproc
	pushl	%ebp
	.cfi_def_cfa_offset 8
	.cfi_offset 5, -8
	movl	%esp, %ebp
	.cfi_def_cfa_register 5
	subl	$40, %esp
	movl	%ecx, -12(%ebp)
	movl	-12(%ebp), %eax
	movl	8(%ebp), %edx
	movl	%edx, (%esp)
	movl	%eax, %ecx
	call	__ZN9__gnu_cxx13new_allocatorI5blockEC2ERKS2_
	subl	$4, %esp
	nop
	leave
	.cfi_restore 5
	.cfi_def_cfa 4, 4
	ret	$4
	.cfi_endproc
LFE4229:
	.section	.text$_ZNSaI5blockEC1ERKS0_,"x"
	.linkonce discard
	.align 2
	.globl	__ZNSaI5blockEC1ERKS0_
	.def	__ZNSaI5blockEC1ERKS0_;	.scl	2;	.type	32;	.endef
__ZNSaI5blockEC1ERKS0_:
LFB4230:
	.cfi_startproc
	pushl	%ebp
	.cfi_def_cfa_offset 8
	.cfi_offset 5, -8
	movl	%esp, %ebp
	.cfi_def_cfa_register 5
	subl	$40, %esp
	movl	%ecx, -12(%ebp)
	movl	-12(%ebp), %eax
	movl	8(%ebp), %edx
	movl	%edx, (%esp)
	movl	%eax, %ecx
	call	__ZN9__gnu_cxx13new_allocatorI5blockEC2ERKS2_
	subl	$4, %esp
	nop
	leave
	.cfi_restore 5
	.cfi_def_cfa 4, 4
	ret	$4
	.cfi_endproc
LFE4230:
	.section	.text$_ZNSt12_Vector_baseI5blockSaIS0_EE12_Vector_implC1ERKS1_,"x"
	.linkonce discard
	.align 2
	.globl	__ZNSt12_Vector_baseI5blockSaIS0_EE12_Vector_implC1ERKS1_
	.def	__ZNSt12_Vector_baseI5blockSaIS0_EE12_Vector_implC1ERKS1_;	.scl	2;	.type	32;	.endef
__ZNSt12_Vector_baseI5blockSaIS0_EE12_Vector_implC1ERKS1_:
LFB4233:
	.cfi_startproc
	pushl	%ebp
	.cfi_def_cfa_offset 8
	.cfi_offset 5, -8
	movl	%esp, %ebp
	.cfi_def_cfa_register 5
	subl	$40, %esp
	movl	%ecx, -12(%ebp)
	movl	-12(%ebp), %eax
	movl	8(%ebp), %edx
	movl	%edx, (%esp)
	movl	%eax, %ecx
	call	__ZNSaI5blockEC2ERKS0_
	subl	$4, %esp
	movl	-12(%ebp), %eax
	movl	%eax, %ecx
	call	__ZNSt12_Vector_baseI5blockSaIS0_EE17_Vector_impl_dataC2Ev
	nop
	leave
	.cfi_restore 5
	.cfi_def_cfa 4, 4
	ret	$4
	.cfi_endproc
LFE4233:
	.section	.text$_ZNSt12_Vector_baseI5blockSaIS0_EE17_M_create_storageEj,"x"
	.linkonce discard
	.align 2
	.globl	__ZNSt12_Vector_baseI5blockSaIS0_EE17_M_create_storageEj
	.def	__ZNSt12_Vector_baseI5blockSaIS0_EE17_M_create_storageEj;	.scl	2;	.type	32;	.endef
__ZNSt12_Vector_baseI5blockSaIS0_EE17_M_create_storageEj:
LFB4234:
	.cfi_startproc
	pushl	%ebp
	.cfi_def_cfa_offset 8
	.cfi_offset 5, -8
	movl	%esp, %ebp
	.cfi_def_cfa_register 5
	subl	$40, %esp
	movl	%ecx, -12(%ebp)
	movl	-12(%ebp), %eax
	movl	8(%ebp), %edx
	movl	%edx, (%esp)
	movl	%eax, %ecx
	call	__ZNSt12_Vector_baseI5blockSaIS0_EE11_M_allocateEj
	subl	$4, %esp
	movl	-12(%ebp), %edx
	movl	%eax, (%edx)
	movl	-12(%ebp), %eax
	movl	(%eax), %edx
	movl	-12(%ebp), %eax
	movl	%edx, 4(%eax)
	movl	-12(%ebp), %eax
	movl	(%eax), %eax
	movl	8(%ebp), %edx
	sall	$4, %edx
	addl	%eax, %edx
	movl	-12(%ebp), %eax
	movl	%edx, 8(%eax)
	nop
	leave
	.cfi_restore 5
	.cfi_def_cfa 4, 4
	ret	$4
	.cfi_endproc
LFE4234:
	.section	.text$_ZNSt12_Vector_baseI5blockSaIS0_EE13_M_deallocateEPS0_j,"x"
	.linkonce discard
	.align 2
	.globl	__ZNSt12_Vector_baseI5blockSaIS0_EE13_M_deallocateEPS0_j
	.def	__ZNSt12_Vector_baseI5blockSaIS0_EE13_M_deallocateEPS0_j;	.scl	2;	.type	32;	.endef
__ZNSt12_Vector_baseI5blockSaIS0_EE13_M_deallocateEPS0_j:
LFB4235:
	.cfi_startproc
	pushl	%ebp
	.cfi_def_cfa_offset 8
	.cfi_offset 5, -8
	movl	%esp, %ebp
	.cfi_def_cfa_register 5
	subl	$40, %esp
	movl	%ecx, -12(%ebp)
	cmpl	$0, 8(%ebp)
	je	L309
	movl	-12(%ebp), %eax
	movl	12(%ebp), %edx
	movl	%edx, 8(%esp)
	movl	8(%ebp), %edx
	movl	%edx, 4(%esp)
	movl	%eax, (%esp)
	call	__ZNSt16allocator_traitsISaI5blockEE10deallocateERS1_PS0_j
L309:
	nop
	leave
	.cfi_restore 5
	.cfi_def_cfa 4, 4
	ret	$8
	.cfi_endproc
LFE4235:
	.section	.text$_ZSt24__uninitialized_fill_n_aIP5blockjS0_S0_ET_S2_T0_RKT1_RSaIT2_E,"x"
	.linkonce discard
	.globl	__ZSt24__uninitialized_fill_n_aIP5blockjS0_S0_ET_S2_T0_RKT1_RSaIT2_E
	.def	__ZSt24__uninitialized_fill_n_aIP5blockjS0_S0_ET_S2_T0_RKT1_RSaIT2_E;	.scl	2;	.type	32;	.endef
__ZSt24__uninitialized_fill_n_aIP5blockjS0_S0_ET_S2_T0_RKT1_RSaIT2_E:
LFB4236:
	.cfi_startproc
	pushl	%ebp
	.cfi_def_cfa_offset 8
	.cfi_offset 5, -8
	movl	%esp, %ebp
	.cfi_def_cfa_register 5
	subl	$24, %esp
	movl	16(%ebp), %eax
	movl	%eax, 8(%esp)
	movl	12(%ebp), %eax
	movl	%eax, 4(%esp)
	movl	8(%ebp), %eax
	movl	%eax, (%esp)
	call	__ZSt20uninitialized_fill_nIP5blockjS0_ET_S2_T0_RKT1_
	leave
	.cfi_restore 5
	.cfi_def_cfa 4, 4
	ret
	.cfi_endproc
LFE4236:
	.section	.text$_ZSt8_DestroyIP5blockEvT_S2_,"x"
	.linkonce discard
	.globl	__ZSt8_DestroyIP5blockEvT_S2_
	.def	__ZSt8_DestroyIP5blockEvT_S2_;	.scl	2;	.type	32;	.endef
__ZSt8_DestroyIP5blockEvT_S2_:
LFB4237:
	.cfi_startproc
	pushl	%ebp
	.cfi_def_cfa_offset 8
	.cfi_offset 5, -8
	movl	%esp, %ebp
	.cfi_def_cfa_register 5
	subl	$24, %esp
	movl	12(%ebp), %eax
	movl	%eax, 4(%esp)
	movl	8(%ebp), %eax
	movl	%eax, (%esp)
	call	__ZNSt12_Destroy_auxILb0EE9__destroyIP5blockEEvT_S4_
	nop
	leave
	.cfi_restore 5
	.cfi_def_cfa 4, 4
	ret
	.cfi_endproc
LFE4237:
	.section	.text$_ZNKSt10_HashtableIiSt4pairIKiiESaIS2_ENSt8__detail10_Select1stESt8equal_toIiESt4hashIiENS4_18_Mod_range_hashingENS4_20_Default_ranged_hashENS4_20_Prime_rehash_policyENS4_17_Hashtable_traitsILb0ELb0ELb1EEEE8_M_beginEv,"x"
	.linkonce discard
	.align 2
	.globl	__ZNKSt10_HashtableIiSt4pairIKiiESaIS2_ENSt8__detail10_Select1stESt8equal_toIiESt4hashIiENS4_18_Mod_range_hashingENS4_20_Default_ranged_hashENS4_20_Prime_rehash_policyENS4_17_Hashtable_traitsILb0ELb0ELb1EEEE8_M_beginEv
	.def	__ZNKSt10_HashtableIiSt4pairIKiiESaIS2_ENSt8__detail10_Select1stESt8equal_toIiESt4hashIiENS4_18_Mod_range_hashingENS4_20_Default_ranged_hashENS4_20_Prime_rehash_policyENS4_17_Hashtable_traitsILb0ELb0ELb1EEEE8_M_beginEv;	.scl	2;	.type	32;	.endef
__ZNKSt10_HashtableIiSt4pairIKiiESaIS2_ENSt8__detail10_Select1stESt8equal_toIiESt4hashIiENS4_18_Mod_range_hashingENS4_20_Default_ranged_hashENS4_20_Prime_rehash_policyENS4_17_Hashtable_traitsILb0ELb0ELb1EEEE8_M_beginEv:
LFB4238:
	.cfi_startproc
	pushl	%ebp
	.cfi_def_cfa_offset 8
	.cfi_offset 5, -8
	movl	%esp, %ebp
	.cfi_def_cfa_register 5
	subl	$4, %esp
	movl	%ecx, -4(%ebp)
	movl	-4(%ebp), %eax
	movl	8(%eax), %eax
	leave
	.cfi_restore 5
	.cfi_def_cfa 4, 4
	ret
	.cfi_endproc
LFE4238:
	.section	.text$_ZNSt8__detail16_Hashtable_allocISaINS_10_Hash_nodeISt4pairIKiiELb0EEEEE19_M_deallocate_nodesEPS5_,"x"
	.linkonce discard
	.align 2
	.globl	__ZNSt8__detail16_Hashtable_allocISaINS_10_Hash_nodeISt4pairIKiiELb0EEEEE19_M_deallocate_nodesEPS5_
	.def	__ZNSt8__detail16_Hashtable_allocISaINS_10_Hash_nodeISt4pairIKiiELb0EEEEE19_M_deallocate_nodesEPS5_;	.scl	2;	.type	32;	.endef
__ZNSt8__detail16_Hashtable_allocISaINS_10_Hash_nodeISt4pairIKiiELb0EEEEE19_M_deallocate_nodesEPS5_:
LFB4239:
	.cfi_startproc
	pushl	%ebp
	.cfi_def_cfa_offset 8
	.cfi_offset 5, -8
	movl	%esp, %ebp
	.cfi_def_cfa_register 5
	subl	$56, %esp
	movl	%ecx, -28(%ebp)
L317:
	cmpl	$0, 8(%ebp)
	je	L318
	movl	8(%ebp), %eax
	movl	%eax, -12(%ebp)
	movl	8(%ebp), %ecx
	call	__ZNKSt8__detail10_Hash_nodeISt4pairIKiiELb0EE7_M_nextEv
	movl	%eax, 8(%ebp)
	movl	-28(%ebp), %eax
	movl	-12(%ebp), %edx
	movl	%edx, (%esp)
	movl	%eax, %ecx
	call	__ZNSt8__detail16_Hashtable_allocISaINS_10_Hash_nodeISt4pairIKiiELb0EEEEE18_M_deallocate_nodeEPS5_
	subl	$4, %esp
	jmp	L317
L318:
	nop
	leave
	.cfi_restore 5
	.cfi_def_cfa 4, 4
	ret	$4
	.cfi_endproc
LFE4239:
	.section	.text$_ZNSt10_HashtableIiSt4pairIKiiESaIS2_ENSt8__detail10_Select1stESt8equal_toIiESt4hashIiENS4_18_Mod_range_hashingENS4_20_Default_ranged_hashENS4_20_Prime_rehash_policyENS4_17_Hashtable_traitsILb0ELb0ELb1EEEE21_M_deallocate_bucketsEPPNS4_15_Hash_node_baseEj,"x"
	.linkonce discard
	.align 2
	.globl	__ZNSt10_HashtableIiSt4pairIKiiESaIS2_ENSt8__detail10_Select1stESt8equal_toIiESt4hashIiENS4_18_Mod_range_hashingENS4_20_Default_ranged_hashENS4_20_Prime_rehash_policyENS4_17_Hashtable_traitsILb0ELb0ELb1EEEE21_M_deallocate_bucketsEPPNS4_15_Hash_node_baseEj
	.def	__ZNSt10_HashtableIiSt4pairIKiiESaIS2_ENSt8__detail10_Select1stESt8equal_toIiESt4hashIiENS4_18_Mod_range_hashingENS4_20_Default_ranged_hashENS4_20_Prime_rehash_policyENS4_17_Hashtable_traitsILb0ELb0ELb1EEEE21_M_deallocate_bucketsEPPNS4_15_Hash_node_baseEj;	.scl	2;	.type	32;	.endef
__ZNSt10_HashtableIiSt4pairIKiiESaIS2_ENSt8__detail10_Select1stESt8equal_toIiESt4hashIiENS4_18_Mod_range_hashingENS4_20_Default_ranged_hashENS4_20_Prime_rehash_policyENS4_17_Hashtable_traitsILb0ELb0ELb1EEEE21_M_deallocate_bucketsEPPNS4_15_Hash_node_baseEj:
LFB4240:
	.cfi_startproc
	pushl	%ebp
	.cfi_def_cfa_offset 8
	.cfi_offset 5, -8
	movl	%esp, %ebp
	.cfi_def_cfa_register 5
	subl	$40, %esp
	movl	%ecx, -12(%ebp)
	movl	-12(%ebp), %eax
	movl	8(%ebp), %edx
	movl	%edx, (%esp)
	movl	%eax, %ecx
	call	__ZNKSt10_HashtableIiSt4pairIKiiESaIS2_ENSt8__detail10_Select1stESt8equal_toIiESt4hashIiENS4_18_Mod_range_hashingENS4_20_Default_ranged_hashENS4_20_Prime_rehash_policyENS4_17_Hashtable_traitsILb0ELb0ELb1EEEE21_M_uses_single_bucketEPPNS4_15_Hash_node_baseE
	subl	$4, %esp
	testb	%al, %al
	jne	L322
	movl	-12(%ebp), %eax
	movl	12(%ebp), %edx
	movl	%edx, 4(%esp)
	movl	8(%ebp), %edx
	movl	%edx, (%esp)
	movl	%eax, %ecx
	call	__ZNSt8__detail16_Hashtable_allocISaINS_10_Hash_nodeISt4pairIKiiELb0EEEEE21_M_deallocate_bucketsEPPNS_15_Hash_node_baseEj
	subl	$8, %esp
	jmp	L319
L322:
	nop
L319:
	leave
	.cfi_restore 5
	.cfi_def_cfa 4, 4
	ret	$8
	.cfi_endproc
LFE4240:
	.section	.text$_ZN9__gnu_cxx13new_allocatorISt10_List_nodeIiEEC2Ev,"x"
	.linkonce discard
	.align 2
	.globl	__ZN9__gnu_cxx13new_allocatorISt10_List_nodeIiEEC2Ev
	.def	__ZN9__gnu_cxx13new_allocatorISt10_List_nodeIiEEC2Ev;	.scl	2;	.type	32;	.endef
__ZN9__gnu_cxx13new_allocatorISt10_List_nodeIiEEC2Ev:
LFB4242:
	.cfi_startproc
	pushl	%ebp
	.cfi_def_cfa_offset 8
	.cfi_offset 5, -8
	movl	%esp, %ebp
	.cfi_def_cfa_register 5
	subl	$4, %esp
	movl	%ecx, -4(%ebp)
	nop
	leave
	.cfi_restore 5
	.cfi_def_cfa 4, 4
	ret
	.cfi_endproc
LFE4242:
	.section	.text$_ZNSt10_List_nodeIiE9_M_valptrEv,"x"
	.linkonce discard
	.align 2
	.globl	__ZNSt10_List_nodeIiE9_M_valptrEv
	.def	__ZNSt10_List_nodeIiE9_M_valptrEv;	.scl	2;	.type	32;	.endef
__ZNSt10_List_nodeIiE9_M_valptrEv:
LFB4244:
	.cfi_startproc
	pushl	%ebp
	.cfi_def_cfa_offset 8
	.cfi_offset 5, -8
	movl	%esp, %ebp
	.cfi_def_cfa_register 5
	subl	$24, %esp
	movl	%ecx, -12(%ebp)
	movl	-12(%ebp), %eax
	addl	$8, %eax
	movl	%eax, %ecx
	call	__ZN9__gnu_cxx16__aligned_membufIiE6_M_ptrEv
	leave
	.cfi_restore 5
	.cfi_def_cfa 4, 4
	ret
	.cfi_endproc
LFE4244:
	.section	.text$_ZNSt7__cxx1110_List_baseIiSaIiEE21_M_get_Node_allocatorEv,"x"
	.linkonce discard
	.align 2
	.globl	__ZNSt7__cxx1110_List_baseIiSaIiEE21_M_get_Node_allocatorEv
	.def	__ZNSt7__cxx1110_List_baseIiSaIiEE21_M_get_Node_allocatorEv;	.scl	2;	.type	32;	.endef
__ZNSt7__cxx1110_List_baseIiSaIiEE21_M_get_Node_allocatorEv:
LFB4245:
	.cfi_startproc
	pushl	%ebp
	.cfi_def_cfa_offset 8
	.cfi_offset 5, -8
	movl	%esp, %ebp
	.cfi_def_cfa_register 5
	subl	$4, %esp
	movl	%ecx, -4(%ebp)
	movl	-4(%ebp), %eax
	leave
	.cfi_restore 5
	.cfi_def_cfa 4, 4
	ret
	.cfi_endproc
LFE4245:
	.section	.text$_ZNSt16allocator_traitsISaISt10_List_nodeIiEEE7destroyIiEEvRS2_PT_,"x"
	.linkonce discard
	.globl	__ZNSt16allocator_traitsISaISt10_List_nodeIiEEE7destroyIiEEvRS2_PT_
	.def	__ZNSt16allocator_traitsISaISt10_List_nodeIiEEE7destroyIiEEvRS2_PT_;	.scl	2;	.type	32;	.endef
__ZNSt16allocator_traitsISaISt10_List_nodeIiEEE7destroyIiEEvRS2_PT_:
LFB4246:
	.cfi_startproc
	pushl	%ebp
	.cfi_def_cfa_offset 8
	.cfi_offset 5, -8
	movl	%esp, %ebp
	.cfi_def_cfa_register 5
	subl	$24, %esp
	movl	12(%ebp), %eax
	movl	%eax, (%esp)
	movl	8(%ebp), %ecx
	call	__ZN9__gnu_cxx13new_allocatorISt10_List_nodeIiEE7destroyIiEEvPT_
	subl	$4, %esp
	nop
	leave
	.cfi_restore 5
	.cfi_def_cfa 4, 4
	ret
	.cfi_endproc
LFE4246:
	.section	.text$_ZNSt7__cxx1110_List_baseIiSaIiEE11_M_put_nodeEPSt10_List_nodeIiE,"x"
	.linkonce discard
	.align 2
	.globl	__ZNSt7__cxx1110_List_baseIiSaIiEE11_M_put_nodeEPSt10_List_nodeIiE
	.def	__ZNSt7__cxx1110_List_baseIiSaIiEE11_M_put_nodeEPSt10_List_nodeIiE;	.scl	2;	.type	32;	.endef
__ZNSt7__cxx1110_List_baseIiSaIiEE11_M_put_nodeEPSt10_List_nodeIiE:
LFB4247:
	.cfi_startproc
	.cfi_personality 0,___gxx_personality_v0
	.cfi_lsda 0,LLSDA4247
	pushl	%ebp
	.cfi_def_cfa_offset 8
	.cfi_offset 5, -8
	movl	%esp, %ebp
	.cfi_def_cfa_register 5
	subl	$40, %esp
	movl	%ecx, -12(%ebp)
	movl	-12(%ebp), %eax
	movl	$1, 8(%esp)
	movl	8(%ebp), %edx
	movl	%edx, 4(%esp)
	movl	%eax, (%esp)
	call	__ZNSt16allocator_traitsISaISt10_List_nodeIiEEE10deallocateERS2_PS1_j
	nop
	leave
	.cfi_restore 5
	.cfi_def_cfa 4, 4
	ret	$4
	.cfi_endproc
LFE4247:
	.section	.gcc_except_table,"w"
LLSDA4247:
	.byte	0xff
	.byte	0xff
	.byte	0x1
	.uleb128 LLSDACSE4247-LLSDACSB4247
LLSDACSB4247:
LLSDACSE4247:
	.section	.text$_ZNSt7__cxx1110_List_baseIiSaIiEE11_M_put_nodeEPSt10_List_nodeIiE,"x"
	.linkonce discard
	.section	.text$_ZNSt6vectorI9cache_setSaIS0_EE11_S_max_sizeERKS1_,"x"
	.linkonce discard
	.globl	__ZNSt6vectorI9cache_setSaIS0_EE11_S_max_sizeERKS1_
	.def	__ZNSt6vectorI9cache_setSaIS0_EE11_S_max_sizeERKS1_;	.scl	2;	.type	32;	.endef
__ZNSt6vectorI9cache_setSaIS0_EE11_S_max_sizeERKS1_:
LFB4248:
	.cfi_startproc
	pushl	%ebp
	.cfi_def_cfa_offset 8
	.cfi_offset 5, -8
	movl	%esp, %ebp
	.cfi_def_cfa_register 5
	subl	$40, %esp
	movl	$35791394, -12(%ebp)
	movl	8(%ebp), %eax
	movl	%eax, (%esp)
	call	__ZNSt16allocator_traitsISaI9cache_setEE8max_sizeERKS1_
	movl	%eax, -16(%ebp)
	leal	-16(%ebp), %eax
	movl	%eax, 4(%esp)
	leal	-12(%ebp), %eax
	movl	%eax, (%esp)
	call	__ZSt3minIjERKT_S2_S2_
	movl	(%eax), %eax
	leave
	.cfi_restore 5
	.cfi_def_cfa 4, 4
	ret
	.cfi_endproc
LFE4248:
	.section	.text$_ZNSaI9cache_setEC2ERKS0_,"x"
	.linkonce discard
	.align 2
	.globl	__ZNSaI9cache_setEC2ERKS0_
	.def	__ZNSaI9cache_setEC2ERKS0_;	.scl	2;	.type	32;	.endef
__ZNSaI9cache_setEC2ERKS0_:
LFB4250:
	.cfi_startproc
	pushl	%ebp
	.cfi_def_cfa_offset 8
	.cfi_offset 5, -8
	movl	%esp, %ebp
	.cfi_def_cfa_register 5
	subl	$40, %esp
	movl	%ecx, -12(%ebp)
	movl	-12(%ebp), %eax
	movl	8(%ebp), %edx
	movl	%edx, (%esp)
	movl	%eax, %ecx
	call	__ZN9__gnu_cxx13new_allocatorI9cache_setEC2ERKS2_
	subl	$4, %esp
	nop
	leave
	.cfi_restore 5
	.cfi_def_cfa 4, 4
	ret	$4
	.cfi_endproc
LFE4250:
	.section	.text$_ZNSaI9cache_setEC1ERKS0_,"x"
	.linkonce discard
	.align 2
	.globl	__ZNSaI9cache_setEC1ERKS0_
	.def	__ZNSaI9cache_setEC1ERKS0_;	.scl	2;	.type	32;	.endef
__ZNSaI9cache_setEC1ERKS0_:
LFB4251:
	.cfi_startproc
	pushl	%ebp
	.cfi_def_cfa_offset 8
	.cfi_offset 5, -8
	movl	%esp, %ebp
	.cfi_def_cfa_register 5
	subl	$40, %esp
	movl	%ecx, -12(%ebp)
	movl	-12(%ebp), %eax
	movl	8(%ebp), %edx
	movl	%edx, (%esp)
	movl	%eax, %ecx
	call	__ZN9__gnu_cxx13new_allocatorI9cache_setEC2ERKS2_
	subl	$4, %esp
	nop
	leave
	.cfi_restore 5
	.cfi_def_cfa 4, 4
	ret	$4
	.cfi_endproc
LFE4251:
	.section	.text$_ZNSt12_Vector_baseI9cache_setSaIS0_EE12_Vector_implC1ERKS1_,"x"
	.linkonce discard
	.align 2
	.globl	__ZNSt12_Vector_baseI9cache_setSaIS0_EE12_Vector_implC1ERKS1_
	.def	__ZNSt12_Vector_baseI9cache_setSaIS0_EE12_Vector_implC1ERKS1_;	.scl	2;	.type	32;	.endef
__ZNSt12_Vector_baseI9cache_setSaIS0_EE12_Vector_implC1ERKS1_:
LFB4254:
	.cfi_startproc
	pushl	%ebp
	.cfi_def_cfa_offset 8
	.cfi_offset 5, -8
	movl	%esp, %ebp
	.cfi_def_cfa_register 5
	subl	$40, %esp
	movl	%ecx, -12(%ebp)
	movl	-12(%ebp), %eax
	movl	8(%ebp), %edx
	movl	%edx, (%esp)
	movl	%eax, %ecx
	call	__ZNSaI9cache_setEC2ERKS0_
	subl	$4, %esp
	movl	-12(%ebp), %eax
	movl	%eax, %ecx
	call	__ZNSt12_Vector_baseI9cache_setSaIS0_EE17_Vector_impl_dataC2Ev
	nop
	leave
	.cfi_restore 5
	.cfi_def_cfa 4, 4
	ret	$4
	.cfi_endproc
LFE4254:
	.section	.text$_ZNSt12_Vector_baseI9cache_setSaIS0_EE17_M_create_storageEj,"x"
	.linkonce discard
	.align 2
	.globl	__ZNSt12_Vector_baseI9cache_setSaIS0_EE17_M_create_storageEj
	.def	__ZNSt12_Vector_baseI9cache_setSaIS0_EE17_M_create_storageEj;	.scl	2;	.type	32;	.endef
__ZNSt12_Vector_baseI9cache_setSaIS0_EE17_M_create_storageEj:
LFB4255:
	.cfi_startproc
	pushl	%ebp
	.cfi_def_cfa_offset 8
	.cfi_offset 5, -8
	movl	%esp, %ebp
	.cfi_def_cfa_register 5
	subl	$40, %esp
	movl	%ecx, -12(%ebp)
	movl	-12(%ebp), %eax
	movl	8(%ebp), %edx
	movl	%edx, (%esp)
	movl	%eax, %ecx
	call	__ZNSt12_Vector_baseI9cache_setSaIS0_EE11_M_allocateEj
	subl	$4, %esp
	movl	-12(%ebp), %edx
	movl	%eax, (%edx)
	movl	-12(%ebp), %eax
	movl	(%eax), %edx
	movl	-12(%ebp), %eax
	movl	%edx, 4(%eax)
	movl	-12(%ebp), %eax
	movl	(%eax), %edx
	movl	8(%ebp), %eax
	imull	$60, %eax, %eax
	addl	%eax, %edx
	movl	-12(%ebp), %eax
	movl	%edx, 8(%eax)
	nop
	leave
	.cfi_restore 5
	.cfi_def_cfa 4, 4
	ret	$4
	.cfi_endproc
LFE4255:
	.section	.text$_ZNSt12_Vector_baseI9cache_setSaIS0_EE13_M_deallocateEPS0_j,"x"
	.linkonce discard
	.align 2
	.globl	__ZNSt12_Vector_baseI9cache_setSaIS0_EE13_M_deallocateEPS0_j
	.def	__ZNSt12_Vector_baseI9cache_setSaIS0_EE13_M_deallocateEPS0_j;	.scl	2;	.type	32;	.endef
__ZNSt12_Vector_baseI9cache_setSaIS0_EE13_M_deallocateEPS0_j:
LFB4256:
	.cfi_startproc
	pushl	%ebp
	.cfi_def_cfa_offset 8
	.cfi_offset 5, -8
	movl	%esp, %ebp
	.cfi_def_cfa_register 5
	subl	$40, %esp
	movl	%ecx, -12(%ebp)
	cmpl	$0, 8(%ebp)
	je	L338
	movl	-12(%ebp), %eax
	movl	12(%ebp), %edx
	movl	%edx, 8(%esp)
	movl	8(%ebp), %edx
	movl	%edx, 4(%esp)
	movl	%eax, (%esp)
	call	__ZNSt16allocator_traitsISaI9cache_setEE10deallocateERS1_PS0_j
L338:
	nop
	leave
	.cfi_restore 5
	.cfi_def_cfa 4, 4
	ret	$8
	.cfi_endproc
LFE4256:
	.section	.text$_ZSt24__uninitialized_fill_n_aIP9cache_setjS0_S0_ET_S2_T0_RKT1_RSaIT2_E,"x"
	.linkonce discard
	.globl	__ZSt24__uninitialized_fill_n_aIP9cache_setjS0_S0_ET_S2_T0_RKT1_RSaIT2_E
	.def	__ZSt24__uninitialized_fill_n_aIP9cache_setjS0_S0_ET_S2_T0_RKT1_RSaIT2_E;	.scl	2;	.type	32;	.endef
__ZSt24__uninitialized_fill_n_aIP9cache_setjS0_S0_ET_S2_T0_RKT1_RSaIT2_E:
LFB4257:
	.cfi_startproc
	pushl	%ebp
	.cfi_def_cfa_offset 8
	.cfi_offset 5, -8
	movl	%esp, %ebp
	.cfi_def_cfa_register 5
	subl	$24, %esp
	movl	16(%ebp), %eax
	movl	%eax, 8(%esp)
	movl	12(%ebp), %eax
	movl	%eax, 4(%esp)
	movl	8(%ebp), %eax
	movl	%eax, (%esp)
	call	__ZSt20uninitialized_fill_nIP9cache_setjS0_ET_S2_T0_RKT1_
	leave
	.cfi_restore 5
	.cfi_def_cfa 4, 4
	ret
	.cfi_endproc
LFE4257:
	.section	.text$_ZSt8_DestroyIP9cache_setEvT_S2_,"x"
	.linkonce discard
	.globl	__ZSt8_DestroyIP9cache_setEvT_S2_
	.def	__ZSt8_DestroyIP9cache_setEvT_S2_;	.scl	2;	.type	32;	.endef
__ZSt8_DestroyIP9cache_setEvT_S2_:
LFB4258:
	.cfi_startproc
	pushl	%ebp
	.cfi_def_cfa_offset 8
	.cfi_offset 5, -8
	movl	%esp, %ebp
	.cfi_def_cfa_register 5
	subl	$24, %esp
	movl	12(%ebp), %eax
	movl	%eax, 4(%esp)
	movl	8(%ebp), %eax
	movl	%eax, (%esp)
	call	__ZNSt12_Destroy_auxILb0EE9__destroyIP9cache_setEEvT_S4_
	nop
	leave
	.cfi_restore 5
	.cfi_def_cfa 4, 4
	ret
	.cfi_endproc
LFE4258:
	.section	.text$_ZNKSt8__detail15_Hash_code_baseIiSt4pairIKiiENS_10_Select1stESt4hashIiENS_18_Mod_range_hashingENS_20_Default_ranged_hashELb0EE12_M_hash_codeERS2_,"x"
	.linkonce discard
	.align 2
	.globl	__ZNKSt8__detail15_Hash_code_baseIiSt4pairIKiiENS_10_Select1stESt4hashIiENS_18_Mod_range_hashingENS_20_Default_ranged_hashELb0EE12_M_hash_codeERS2_
	.def	__ZNKSt8__detail15_Hash_code_baseIiSt4pairIKiiENS_10_Select1stESt4hashIiENS_18_Mod_range_hashingENS_20_Default_ranged_hashELb0EE12_M_hash_codeERS2_;	.scl	2;	.type	32;	.endef
__ZNKSt8__detail15_Hash_code_baseIiSt4pairIKiiENS_10_Select1stESt4hashIiENS_18_Mod_range_hashingENS_20_Default_ranged_hashELb0EE12_M_hash_codeERS2_:
LFB4267:
	.cfi_startproc
	pushl	%ebp
	.cfi_def_cfa_offset 8
	.cfi_offset 5, -8
	movl	%esp, %ebp
	.cfi_def_cfa_register 5
	subl	$40, %esp
	movl	%ecx, -12(%ebp)
	movl	-12(%ebp), %eax
	movl	%eax, %ecx
	call	__ZNKSt8__detail15_Hash_code_baseIiSt4pairIKiiENS_10_Select1stESt4hashIiENS_18_Mod_range_hashingENS_20_Default_ranged_hashELb0EE5_M_h1Ev
	movl	%eax, %edx
	movl	8(%ebp), %eax
	movl	(%eax), %eax
	movl	%eax, (%esp)
	movl	%edx, %ecx
	call	__ZNKSt4hashIiEclEi
	subl	$4, %esp
	leave
	.cfi_restore 5
	.cfi_def_cfa 4, 4
	ret	$4
	.cfi_endproc
LFE4267:
	.section	.text$_ZNKSt10_HashtableIiSt4pairIKiiESaIS2_ENSt8__detail10_Select1stESt8equal_toIiESt4hashIiENS4_18_Mod_range_hashingENS4_20_Default_ranged_hashENS4_20_Prime_rehash_policyENS4_17_Hashtable_traitsILb0ELb0ELb1EEEE15_M_bucket_indexERS1_j,"x"
	.linkonce discard
	.align 2
	.globl	__ZNKSt10_HashtableIiSt4pairIKiiESaIS2_ENSt8__detail10_Select1stESt8equal_toIiESt4hashIiENS4_18_Mod_range_hashingENS4_20_Default_ranged_hashENS4_20_Prime_rehash_policyENS4_17_Hashtable_traitsILb0ELb0ELb1EEEE15_M_bucket_indexERS1_j
	.def	__ZNKSt10_HashtableIiSt4pairIKiiESaIS2_ENSt8__detail10_Select1stESt8equal_toIiESt4hashIiENS4_18_Mod_range_hashingENS4_20_Default_ranged_hashENS4_20_Prime_rehash_policyENS4_17_Hashtable_traitsILb0ELb0ELb1EEEE15_M_bucket_indexERS1_j;	.scl	2;	.type	32;	.endef
__ZNKSt10_HashtableIiSt4pairIKiiESaIS2_ENSt8__detail10_Select1stESt8equal_toIiESt4hashIiENS4_18_Mod_range_hashingENS4_20_Default_ranged_hashENS4_20_Prime_rehash_policyENS4_17_Hashtable_traitsILb0ELb0ELb1EEEE15_M_bucket_indexERS1_j:
LFB4269:
	.cfi_startproc
	pushl	%ebp
	.cfi_def_cfa_offset 8
	.cfi_offset 5, -8
	movl	%esp, %ebp
	.cfi_def_cfa_register 5
	subl	$40, %esp
	movl	%ecx, -12(%ebp)
	movl	-12(%ebp), %eax
	movl	4(%eax), %edx
	movl	-12(%ebp), %eax
	movl	%edx, 8(%esp)
	movl	12(%ebp), %edx
	movl	%edx, 4(%esp)
	movl	8(%ebp), %edx
	movl	%edx, (%esp)
	movl	%eax, %ecx
	call	__ZNKSt8__detail15_Hash_code_baseIiSt4pairIKiiENS_10_Select1stESt4hashIiENS_18_Mod_range_hashingENS_20_Default_ranged_hashELb0EE15_M_bucket_indexERS2_jj
	subl	$12, %esp
	leave
	.cfi_restore 5
	.cfi_def_cfa 4, 4
	ret	$8
	.cfi_endproc
LFE4269:
	.section	.text$_ZNKSt10_HashtableIiSt4pairIKiiESaIS2_ENSt8__detail10_Select1stESt8equal_toIiESt4hashIiENS4_18_Mod_range_hashingENS4_20_Default_ranged_hashENS4_20_Prime_rehash_policyENS4_17_Hashtable_traitsILb0ELb0ELb1EEEE12_M_find_nodeEjRS1_j,"x"
	.linkonce discard
	.align 2
	.globl	__ZNKSt10_HashtableIiSt4pairIKiiESaIS2_ENSt8__detail10_Select1stESt8equal_toIiESt4hashIiENS4_18_Mod_range_hashingENS4_20_Default_ranged_hashENS4_20_Prime_rehash_policyENS4_17_Hashtable_traitsILb0ELb0ELb1EEEE12_M_find_nodeEjRS1_j
	.def	__ZNKSt10_HashtableIiSt4pairIKiiESaIS2_ENSt8__detail10_Select1stESt8equal_toIiESt4hashIiENS4_18_Mod_range_hashingENS4_20_Default_ranged_hashENS4_20_Prime_rehash_policyENS4_17_Hashtable_traitsILb0ELb0ELb1EEEE12_M_find_nodeEjRS1_j;	.scl	2;	.type	32;	.endef
__ZNKSt10_HashtableIiSt4pairIKiiESaIS2_ENSt8__detail10_Select1stESt8equal_toIiESt4hashIiENS4_18_Mod_range_hashingENS4_20_Default_ranged_hashENS4_20_Prime_rehash_policyENS4_17_Hashtable_traitsILb0ELb0ELb1EEEE12_M_find_nodeEjRS1_j:
LFB4270:
	.cfi_startproc
	pushl	%ebp
	.cfi_def_cfa_offset 8
	.cfi_offset 5, -8
	movl	%esp, %ebp
	.cfi_def_cfa_register 5
	subl	$56, %esp
	movl	%ecx, -28(%ebp)
	movl	-28(%ebp), %eax
	movl	16(%ebp), %edx
	movl	%edx, 8(%esp)
	movl	12(%ebp), %edx
	movl	%edx, 4(%esp)
	movl	8(%ebp), %edx
	movl	%edx, (%esp)
	movl	%eax, %ecx
	call	__ZNKSt10_HashtableIiSt4pairIKiiESaIS2_ENSt8__detail10_Select1stESt8equal_toIiESt4hashIiENS4_18_Mod_range_hashingENS4_20_Default_ranged_hashENS4_20_Prime_rehash_policyENS4_17_Hashtable_traitsILb0ELb0ELb1EEEE19_M_find_before_nodeEjRS1_j
	subl	$12, %esp
	movl	%eax, -12(%ebp)
	cmpl	$0, -12(%ebp)
	je	L347
	movl	-12(%ebp), %eax
	movl	(%eax), %eax
	jmp	L348
L347:
	movl	$0, %eax
L348:
	leave
	.cfi_restore 5
	.cfi_def_cfa 4, 4
	ret	$12
	.cfi_endproc
LFE4270:
	.section	.text$_ZNSt8__detail14_Node_iteratorISt4pairIKiiELb0ELb0EEC1EPNS_10_Hash_nodeIS3_Lb0EEE,"x"
	.linkonce discard
	.align 2
	.globl	__ZNSt8__detail14_Node_iteratorISt4pairIKiiELb0ELb0EEC1EPNS_10_Hash_nodeIS3_Lb0EEE
	.def	__ZNSt8__detail14_Node_iteratorISt4pairIKiiELb0ELb0EEC1EPNS_10_Hash_nodeIS3_Lb0EEE;	.scl	2;	.type	32;	.endef
__ZNSt8__detail14_Node_iteratorISt4pairIKiiELb0ELb0EEC1EPNS_10_Hash_nodeIS3_Lb0EEE:
LFB4273:
	.cfi_startproc
	pushl	%ebp
	.cfi_def_cfa_offset 8
	.cfi_offset 5, -8
	movl	%esp, %ebp
	.cfi_def_cfa_register 5
	subl	$40, %esp
	movl	%ecx, -12(%ebp)
	movl	-12(%ebp), %eax
	movl	8(%ebp), %edx
	movl	%edx, (%esp)
	movl	%eax, %ecx
	call	__ZNSt8__detail19_Node_iterator_baseISt4pairIKiiELb0EEC2EPNS_10_Hash_nodeIS3_Lb0EEE
	subl	$4, %esp
	nop
	leave
	.cfi_restore 5
	.cfi_def_cfa 4, 4
	ret	$4
	.cfi_endproc
LFE4273:
	.section	.text$_ZN9__gnu_cxx16__aligned_bufferISt4pairIKiiEE6_M_ptrEv,"x"
	.linkonce discard
	.align 2
	.globl	__ZN9__gnu_cxx16__aligned_bufferISt4pairIKiiEE6_M_ptrEv
	.def	__ZN9__gnu_cxx16__aligned_bufferISt4pairIKiiEE6_M_ptrEv;	.scl	2;	.type	32;	.endef
__ZN9__gnu_cxx16__aligned_bufferISt4pairIKiiEE6_M_ptrEv:
LFB4274:
	.cfi_startproc
	pushl	%ebp
	.cfi_def_cfa_offset 8
	.cfi_offset 5, -8
	movl	%esp, %ebp
	.cfi_def_cfa_register 5
	subl	$24, %esp
	movl	%ecx, -12(%ebp)
	movl	-12(%ebp), %eax
	movl	%eax, %ecx
	call	__ZN9__gnu_cxx16__aligned_bufferISt4pairIKiiEE7_M_addrEv
	leave
	.cfi_restore 5
	.cfi_def_cfa 4, 4
	ret
	.cfi_endproc
LFE4274:
	.section	.text$_ZN9__gnu_cxx5__ops16_Iter_equals_valIKiEC1ERS2_,"x"
	.linkonce discard
	.align 2
	.globl	__ZN9__gnu_cxx5__ops16_Iter_equals_valIKiEC1ERS2_
	.def	__ZN9__gnu_cxx5__ops16_Iter_equals_valIKiEC1ERS2_;	.scl	2;	.type	32;	.endef
__ZN9__gnu_cxx5__ops16_Iter_equals_valIKiEC1ERS2_:
LFB4277:
	.cfi_startproc
	pushl	%ebp
	.cfi_def_cfa_offset 8
	.cfi_offset 5, -8
	movl	%esp, %ebp
	.cfi_def_cfa_register 5
	subl	$4, %esp
	movl	%ecx, -4(%ebp)
	movl	-4(%ebp), %eax
	movl	8(%ebp), %edx
	movl	%edx, (%eax)
	nop
	leave
	.cfi_restore 5
	.cfi_def_cfa 4, 4
	ret	$4
	.cfi_endproc
LFE4277:
	.section	.text$_ZSt19__iterator_categoryISt14_List_iteratorIiEENSt15iterator_traitsIT_E17iterator_categoryERKS3_,"x"
	.linkonce discard
	.globl	__ZSt19__iterator_categoryISt14_List_iteratorIiEENSt15iterator_traitsIT_E17iterator_categoryERKS3_
	.def	__ZSt19__iterator_categoryISt14_List_iteratorIiEENSt15iterator_traitsIT_E17iterator_categoryERKS3_;	.scl	2;	.type	32;	.endef
__ZSt19__iterator_categoryISt14_List_iteratorIiEENSt15iterator_traitsIT_E17iterator_categoryERKS3_:
LFB4278:
	.cfi_startproc
	pushl	%ebp
	.cfi_def_cfa_offset 8
	.cfi_offset 5, -8
	movl	%esp, %ebp
	.cfi_def_cfa_register 5
	popl	%ebp
	.cfi_restore 5
	.cfi_def_cfa 4, 4
	ret
	.cfi_endproc
LFE4278:
	.section	.text$_ZSt9__find_ifISt14_List_iteratorIiEN9__gnu_cxx5__ops16_Iter_equals_valIKiEEET_S7_S7_T0_St18input_iterator_tag,"x"
	.linkonce discard
	.globl	__ZSt9__find_ifISt14_List_iteratorIiEN9__gnu_cxx5__ops16_Iter_equals_valIKiEEET_S7_S7_T0_St18input_iterator_tag
	.def	__ZSt9__find_ifISt14_List_iteratorIiEN9__gnu_cxx5__ops16_Iter_equals_valIKiEEET_S7_S7_T0_St18input_iterator_tag;	.scl	2;	.type	32;	.endef
__ZSt9__find_ifISt14_List_iteratorIiEN9__gnu_cxx5__ops16_Iter_equals_valIKiEEET_S7_S7_T0_St18input_iterator_tag:
LFB4279:
	.cfi_startproc
	pushl	%ebp
	.cfi_def_cfa_offset 8
	.cfi_offset 5, -8
	movl	%esp, %ebp
	.cfi_def_cfa_register 5
	subl	$24, %esp
L359:
	leal	12(%ebp), %eax
	movl	%eax, 4(%esp)
	leal	8(%ebp), %eax
	movl	%eax, (%esp)
	call	__ZStneRKSt14_List_iteratorIiES2_
	testb	%al, %al
	je	L356
	leal	16(%ebp), %eax
	movl	8(%ebp), %edx
	movl	%edx, (%esp)
	movl	%eax, %ecx
	call	__ZN9__gnu_cxx5__ops16_Iter_equals_valIKiEclISt14_List_iteratorIiEEEbT_
	subl	$4, %esp
	xorl	$1, %eax
	testb	%al, %al
	je	L356
	movl	$1, %eax
	jmp	L357
L356:
	movl	$0, %eax
L357:
	testb	%al, %al
	je	L358
	leal	8(%ebp), %ecx
	call	__ZNSt14_List_iteratorIiEppEv
	jmp	L359
L358:
	movl	8(%ebp), %eax
	leave
	.cfi_restore 5
	.cfi_def_cfa 4, 4
	ret
	.cfi_endproc
LFE4279:
	.section	.text$_ZNSt7__cxx1110_List_baseIiSaIiEE11_M_dec_sizeEj,"x"
	.linkonce discard
	.align 2
	.globl	__ZNSt7__cxx1110_List_baseIiSaIiEE11_M_dec_sizeEj
	.def	__ZNSt7__cxx1110_List_baseIiSaIiEE11_M_dec_sizeEj;	.scl	2;	.type	32;	.endef
__ZNSt7__cxx1110_List_baseIiSaIiEE11_M_dec_sizeEj:
LFB4280:
	.cfi_startproc
	pushl	%ebp
	.cfi_def_cfa_offset 8
	.cfi_offset 5, -8
	movl	%esp, %ebp
	.cfi_def_cfa_register 5
	subl	$4, %esp
	movl	%ecx, -4(%ebp)
	movl	-4(%ebp), %eax
	movl	8(%eax), %eax
	subl	8(%ebp), %eax
	movl	%eax, %edx
	movl	-4(%ebp), %eax
	movl	%edx, 8(%eax)
	nop
	leave
	.cfi_restore 5
	.cfi_def_cfa 4, 4
	ret	$4
	.cfi_endproc
LFE4280:
	.section	.text$_ZNSt8__detail20_Node_const_iteratorISt4pairIKiiELb0ELb0EEC1ERKNS_14_Node_iteratorIS3_Lb0ELb0EEE,"x"
	.linkonce discard
	.align 2
	.globl	__ZNSt8__detail20_Node_const_iteratorISt4pairIKiiELb0ELb0EEC1ERKNS_14_Node_iteratorIS3_Lb0ELb0EEE
	.def	__ZNSt8__detail20_Node_const_iteratorISt4pairIKiiELb0ELb0EEC1ERKNS_14_Node_iteratorIS3_Lb0ELb0EEE;	.scl	2;	.type	32;	.endef
__ZNSt8__detail20_Node_const_iteratorISt4pairIKiiELb0ELb0EEC1ERKNS_14_Node_iteratorIS3_Lb0ELb0EEE:
LFB4283:
	.cfi_startproc
	pushl	%ebp
	.cfi_def_cfa_offset 8
	.cfi_offset 5, -8
	movl	%esp, %ebp
	.cfi_def_cfa_register 5
	subl	$40, %esp
	movl	%ecx, -12(%ebp)
	movl	-12(%ebp), %eax
	movl	8(%ebp), %edx
	movl	(%edx), %edx
	movl	%edx, (%esp)
	movl	%eax, %ecx
	call	__ZNSt8__detail19_Node_iterator_baseISt4pairIKiiELb0EEC2EPNS_10_Hash_nodeIS3_Lb0EEE
	subl	$4, %esp
	nop
	leave
	.cfi_restore 5
	.cfi_def_cfa 4, 4
	ret	$4
	.cfi_endproc
LFE4283:
	.section	.text$_ZNSt10_HashtableIiSt4pairIKiiESaIS2_ENSt8__detail10_Select1stESt8equal_toIiESt4hashIiENS4_18_Mod_range_hashingENS4_20_Default_ranged_hashENS4_20_Prime_rehash_policyENS4_17_Hashtable_traitsILb0ELb0ELb1EEEE5eraseENS4_20_Node_const_iteratorIS2_Lb0ELb0EEE,"x"
	.linkonce discard
	.align 2
	.globl	__ZNSt10_HashtableIiSt4pairIKiiESaIS2_ENSt8__detail10_Select1stESt8equal_toIiESt4hashIiENS4_18_Mod_range_hashingENS4_20_Default_ranged_hashENS4_20_Prime_rehash_policyENS4_17_Hashtable_traitsILb0ELb0ELb1EEEE5eraseENS4_20_Node_const_iteratorIS2_Lb0ELb0EEE
	.def	__ZNSt10_HashtableIiSt4pairIKiiESaIS2_ENSt8__detail10_Select1stESt8equal_toIiESt4hashIiENS4_18_Mod_range_hashingENS4_20_Default_ranged_hashENS4_20_Prime_rehash_policyENS4_17_Hashtable_traitsILb0ELb0ELb1EEEE5eraseENS4_20_Node_const_iteratorIS2_Lb0ELb0EEE;	.scl	2;	.type	32;	.endef
__ZNSt10_HashtableIiSt4pairIKiiESaIS2_ENSt8__detail10_Select1stESt8equal_toIiESt4hashIiENS4_18_Mod_range_hashingENS4_20_Default_ranged_hashENS4_20_Prime_rehash_policyENS4_17_Hashtable_traitsILb0ELb0ELb1EEEE5eraseENS4_20_Node_const_iteratorIS2_Lb0ELb0EEE:
LFB4284:
	.cfi_startproc
	pushl	%ebp
	.cfi_def_cfa_offset 8
	.cfi_offset 5, -8
	movl	%esp, %ebp
	.cfi_def_cfa_register 5
	subl	$56, %esp
	movl	%ecx, -28(%ebp)
	movl	8(%ebp), %eax
	movl	%eax, -12(%ebp)
	movl	-28(%ebp), %eax
	movl	-12(%ebp), %edx
	movl	%edx, (%esp)
	movl	%eax, %ecx
	call	__ZNKSt10_HashtableIiSt4pairIKiiESaIS2_ENSt8__detail10_Select1stESt8equal_toIiESt4hashIiENS4_18_Mod_range_hashingENS4_20_Default_ranged_hashENS4_20_Prime_rehash_policyENS4_17_Hashtable_traitsILb0ELb0ELb1EEEE15_M_bucket_indexEPNS4_10_Hash_nodeIS2_Lb0EEE
	subl	$4, %esp
	movl	%eax, -16(%ebp)
	movl	-28(%ebp), %eax
	movl	-12(%ebp), %edx
	movl	%edx, 4(%esp)
	movl	-16(%ebp), %edx
	movl	%edx, (%esp)
	movl	%eax, %ecx
	call	__ZNSt10_HashtableIiSt4pairIKiiESaIS2_ENSt8__detail10_Select1stESt8equal_toIiESt4hashIiENS4_18_Mod_range_hashingENS4_20_Default_ranged_hashENS4_20_Prime_rehash_policyENS4_17_Hashtable_traitsILb0ELb0ELb1EEEE20_M_get_previous_nodeEjPNS4_15_Hash_node_baseE
	subl	$8, %esp
	movl	%eax, -20(%ebp)
	movl	-28(%ebp), %eax
	movl	-12(%ebp), %edx
	movl	%edx, 8(%esp)
	movl	-20(%ebp), %edx
	movl	%edx, 4(%esp)
	movl	-16(%ebp), %edx
	movl	%edx, (%esp)
	movl	%eax, %ecx
	call	__ZNSt10_HashtableIiSt4pairIKiiESaIS2_ENSt8__detail10_Select1stESt8equal_toIiESt4hashIiENS4_18_Mod_range_hashingENS4_20_Default_ranged_hashENS4_20_Prime_rehash_policyENS4_17_Hashtable_traitsILb0ELb0ELb1EEEE8_M_eraseEjPNS4_15_Hash_node_baseEPNS4_10_Hash_nodeIS2_Lb0EEE
	subl	$12, %esp
	leave
	.cfi_restore 5
	.cfi_def_cfa 4, 4
	ret	$4
	.cfi_endproc
LFE4284:
	.section	.text$_ZNKSt7__cxx1110_List_baseIiSaIiEE11_M_get_sizeEv,"x"
	.linkonce discard
	.align 2
	.globl	__ZNKSt7__cxx1110_List_baseIiSaIiEE11_M_get_sizeEv
	.def	__ZNKSt7__cxx1110_List_baseIiSaIiEE11_M_get_sizeEv;	.scl	2;	.type	32;	.endef
__ZNKSt7__cxx1110_List_baseIiSaIiEE11_M_get_sizeEv:
LFB4285:
	.cfi_startproc
	pushl	%ebp
	.cfi_def_cfa_offset 8
	.cfi_offset 5, -8
	movl	%esp, %ebp
	.cfi_def_cfa_register 5
	subl	$4, %esp
	movl	%ecx, -4(%ebp)
	movl	-4(%ebp), %eax
	movl	8(%eax), %eax
	leave
	.cfi_restore 5
	.cfi_def_cfa 4, 4
	ret
	.cfi_endproc
LFE4285:
	.section	.text$_ZSt7forwardIRKiEOT_RNSt16remove_referenceIS2_E4typeE,"x"
	.linkonce discard
	.globl	__ZSt7forwardIRKiEOT_RNSt16remove_referenceIS2_E4typeE
	.def	__ZSt7forwardIRKiEOT_RNSt16remove_referenceIS2_E4typeE;	.scl	2;	.type	32;	.endef
__ZSt7forwardIRKiEOT_RNSt16remove_referenceIS2_E4typeE:
LFB4286:
	.cfi_startproc
	pushl	%ebp
	.cfi_def_cfa_offset 8
	.cfi_offset 5, -8
	movl	%esp, %ebp
	.cfi_def_cfa_register 5
	movl	8(%ebp), %eax
	popl	%ebp
	.cfi_restore 5
	.cfi_def_cfa 4, 4
	ret
	.cfi_endproc
LFE4286:
	.section	.text$_ZNSt7__cxx114listIiSaIiEE14_M_create_nodeIJRKiEEEPSt10_List_nodeIiEDpOT_,"x"
	.linkonce discard
	.align 2
	.globl	__ZNSt7__cxx114listIiSaIiEE14_M_create_nodeIJRKiEEEPSt10_List_nodeIiEDpOT_
	.def	__ZNSt7__cxx114listIiSaIiEE14_M_create_nodeIJRKiEEEPSt10_List_nodeIiEDpOT_;	.scl	2;	.type	32;	.endef
__ZNSt7__cxx114listIiSaIiEE14_M_create_nodeIJRKiEEEPSt10_List_nodeIiEDpOT_:
LFB4287:
	.cfi_startproc
	pushl	%ebp
	.cfi_def_cfa_offset 8
	.cfi_offset 5, -8
	movl	%esp, %ebp
	.cfi_def_cfa_register 5
	pushl	%ebx
	subl	$52, %esp
	.cfi_offset 3, -12
	movl	%ecx, -28(%ebp)
	movl	-28(%ebp), %eax
	movl	%eax, %ecx
	call	__ZNSt7__cxx1110_List_baseIiSaIiEE11_M_get_nodeEv
	movl	%eax, -12(%ebp)
	movl	-28(%ebp), %eax
	movl	%eax, %ecx
	call	__ZNSt7__cxx1110_List_baseIiSaIiEE21_M_get_Node_allocatorEv
	movl	%eax, -16(%ebp)
	leal	-24(%ebp), %eax
	movl	-12(%ebp), %edx
	movl	%edx, 4(%esp)
	movl	-16(%ebp), %edx
	movl	%edx, (%esp)
	movl	%eax, %ecx
	call	__ZNSt15__allocated_ptrISaISt10_List_nodeIiEEEC1ERS2_PS1_
	subl	$8, %esp
	movl	8(%ebp), %eax
	movl	%eax, (%esp)
	call	__ZSt7forwardIRKiEOT_RNSt16remove_referenceIS2_E4typeE
	movl	%eax, %ebx
	movl	-12(%ebp), %eax
	movl	%eax, %ecx
	call	__ZNSt10_List_nodeIiE9_M_valptrEv
	movl	%ebx, 8(%esp)
	movl	%eax, 4(%esp)
	movl	-16(%ebp), %eax
	movl	%eax, (%esp)
	call	__ZNSt16allocator_traitsISaISt10_List_nodeIiEEE9constructIiJRKiEEEvRS2_PT_DpOT0_
	leal	-24(%ebp), %eax
	movl	$0, (%esp)
	movl	%eax, %ecx
	call	__ZNSt15__allocated_ptrISaISt10_List_nodeIiEEEaSEDn
	subl	$4, %esp
	movl	-12(%ebp), %ebx
	leal	-24(%ebp), %eax
	movl	%eax, %ecx
	call	__ZNSt15__allocated_ptrISaISt10_List_nodeIiEEED1Ev
	movl	%ebx, %eax
	movl	-4(%ebp), %ebx
	leave
	.cfi_restore 5
	.cfi_restore 3
	.cfi_def_cfa 4, 4
	ret	$4
	.cfi_endproc
LFE4287:
	.section	.text$_ZNSt7__cxx1110_List_baseIiSaIiEE11_M_inc_sizeEj,"x"
	.linkonce discard
	.align 2
	.globl	__ZNSt7__cxx1110_List_baseIiSaIiEE11_M_inc_sizeEj
	.def	__ZNSt7__cxx1110_List_baseIiSaIiEE11_M_inc_sizeEj;	.scl	2;	.type	32;	.endef
__ZNSt7__cxx1110_List_baseIiSaIiEE11_M_inc_sizeEj:
LFB4288:
	.cfi_startproc
	pushl	%ebp
	.cfi_def_cfa_offset 8
	.cfi_offset 5, -8
	movl	%esp, %ebp
	.cfi_def_cfa_register 5
	subl	$4, %esp
	movl	%ecx, -4(%ebp)
	movl	-4(%ebp), %eax
	movl	8(%eax), %edx
	movl	8(%ebp), %eax
	addl	%eax, %edx
	movl	-4(%ebp), %eax
	movl	%edx, 8(%eax)
	nop
	leave
	.cfi_restore 5
	.cfi_def_cfa 4, 4
	ret	$4
	.cfi_endproc
LFE4288:
	.section	.text$_ZNSt10_HashtableIiSt4pairIKiiESaIS2_ENSt8__detail10_Select1stESt8equal_toIiESt4hashIiENS4_18_Mod_range_hashingENS4_20_Default_ranged_hashENS4_20_Prime_rehash_policyENS4_17_Hashtable_traitsILb0ELb0ELb1EEEE10_M_emplaceIJS0_IiiEEEES0_INS4_14_Node_iteratorIS2_Lb0ELb0EEEbESt17integral_constantIbLb1EEDpOT_,"x"
	.linkonce discard
	.align 2
	.globl	__ZNSt10_HashtableIiSt4pairIKiiESaIS2_ENSt8__detail10_Select1stESt8equal_toIiESt4hashIiENS4_18_Mod_range_hashingENS4_20_Default_ranged_hashENS4_20_Prime_rehash_policyENS4_17_Hashtable_traitsILb0ELb0ELb1EEEE10_M_emplaceIJS0_IiiEEEES0_INS4_14_Node_iteratorIS2_Lb0ELb0EEEbESt17integral_constantIbLb1EEDpOT_
	.def	__ZNSt10_HashtableIiSt4pairIKiiESaIS2_ENSt8__detail10_Select1stESt8equal_toIiESt4hashIiENS4_18_Mod_range_hashingENS4_20_Default_ranged_hashENS4_20_Prime_rehash_policyENS4_17_Hashtable_traitsILb0ELb0ELb1EEEE10_M_emplaceIJS0_IiiEEEES0_INS4_14_Node_iteratorIS2_Lb0ELb0EEEbESt17integral_constantIbLb1EEDpOT_;	.scl	2;	.type	32;	.endef
__ZNSt10_HashtableIiSt4pairIKiiESaIS2_ENSt8__detail10_Select1stESt8equal_toIiESt4hashIiENS4_18_Mod_range_hashingENS4_20_Default_ranged_hashENS4_20_Prime_rehash_policyENS4_17_Hashtable_traitsILb0ELb0ELb1EEEE10_M_emplaceIJS0_IiiEEEES0_INS4_14_Node_iteratorIS2_Lb0ELb0EEEbESt17integral_constantIbLb1EEDpOT_:
LFB4289:
	.cfi_startproc
	.cfi_personality 0,___gxx_personality_v0
	.cfi_lsda 0,LLSDA4289
	pushl	%ebp
	.cfi_def_cfa_offset 8
	.cfi_offset 5, -8
	movl	%esp, %ebp
	.cfi_def_cfa_register 5
	pushl	%ebx
	subl	$84, %esp
	.cfi_offset 3, -12
	movl	%ecx, -60(%ebp)
	movl	12(%ebp), %eax
	movl	%eax, (%esp)
	call	__ZSt7forwardISt4pairIiiEEOT_RNSt16remove_referenceIS2_E4typeE
	movl	%eax, %edx
	movl	-60(%ebp), %eax
	movl	%edx, (%esp)
	movl	%eax, %ecx
LEHB35:
	call	__ZNSt8__detail16_Hashtable_allocISaINS_10_Hash_nodeISt4pairIKiiELb0EEEEE16_M_allocate_nodeIJS2_IiiEEEEPS5_DpOT_
	subl	$4, %esp
	movl	%eax, -12(%ebp)
	movl	-60(%ebp), %eax
	movl	%eax, %ecx
	call	__ZNSt8__detail15_Hash_code_baseIiSt4pairIKiiENS_10_Select1stESt4hashIiENS_18_Mod_range_hashingENS_20_Default_ranged_hashELb0EE10_M_extractEv
LEHE35:
	movl	%eax, %ebx
	movl	-12(%ebp), %eax
	movl	%eax, %ecx
	call	__ZNSt8__detail21_Hash_node_value_baseISt4pairIKiiEE4_M_vEv
	movl	%eax, (%esp)
	movl	%ebx, %ecx
	call	__ZNKSt8__detail10_Select1stclIRSt4pairIKiiEEEDTcl3getILi0EEcl7forwardIT_Efp_EEEOS6_
	subl	$4, %esp
	movl	%eax, -16(%ebp)
	movl	-60(%ebp), %eax
	movl	-16(%ebp), %edx
	movl	%edx, (%esp)
	movl	%eax, %ecx
LEHB36:
	call	__ZNKSt8__detail15_Hash_code_baseIiSt4pairIKiiENS_10_Select1stESt4hashIiENS_18_Mod_range_hashingENS_20_Default_ranged_hashELb0EE12_M_hash_codeERS2_
LEHE36:
	subl	$4, %esp
	movl	%eax, -20(%ebp)
	movl	-60(%ebp), %eax
	movl	-20(%ebp), %edx
	movl	%edx, 4(%esp)
	movl	-16(%ebp), %edx
	movl	%edx, (%esp)
	movl	%eax, %ecx
LEHB37:
	call	__ZNKSt10_HashtableIiSt4pairIKiiESaIS2_ENSt8__detail10_Select1stESt8equal_toIiESt4hashIiENS4_18_Mod_range_hashingENS4_20_Default_ranged_hashENS4_20_Prime_rehash_policyENS4_17_Hashtable_traitsILb0ELb0ELb1EEEE15_M_bucket_indexERS1_j
	subl	$8, %esp
	movl	%eax, -24(%ebp)
	movl	-60(%ebp), %eax
	movl	-20(%ebp), %edx
	movl	%edx, 8(%esp)
	movl	-16(%ebp), %edx
	movl	%edx, 4(%esp)
	movl	-24(%ebp), %edx
	movl	%edx, (%esp)
	movl	%eax, %ecx
	call	__ZNKSt10_HashtableIiSt4pairIKiiESaIS2_ENSt8__detail10_Select1stESt8equal_toIiESt4hashIiENS4_18_Mod_range_hashingENS4_20_Default_ranged_hashENS4_20_Prime_rehash_policyENS4_17_Hashtable_traitsILb0ELb0ELb1EEEE12_M_find_nodeEjRS1_j
	subl	$12, %esp
	movl	%eax, -28(%ebp)
	cmpl	$0, -28(%ebp)
	je	L373
	movl	-60(%ebp), %eax
	movl	-12(%ebp), %edx
	movl	%edx, (%esp)
	movl	%eax, %ecx
	call	__ZNSt8__detail16_Hashtable_allocISaINS_10_Hash_nodeISt4pairIKiiELb0EEEEE18_M_deallocate_nodeEPS5_
	subl	$4, %esp
	movb	$0, -41(%ebp)
	leal	-40(%ebp), %eax
	movl	-28(%ebp), %edx
	movl	%edx, (%esp)
	movl	%eax, %ecx
	call	__ZNSt8__detail14_Node_iteratorISt4pairIKiiELb0ELb0EEC1EPNS_10_Hash_nodeIS3_Lb0EEE
	subl	$4, %esp
	leal	-41(%ebp), %eax
	movl	%eax, 4(%esp)
	leal	-40(%ebp), %eax
	movl	%eax, (%esp)
	call	__ZSt9make_pairINSt8__detail14_Node_iteratorISt4pairIKiiELb0ELb0EEEbES2_INSt17__decay_and_stripIT_E6__typeENS6_IT0_E6__typeEEOS7_OSA_
	jmp	L379
L373:
	movb	$1, -33(%ebp)
	movl	-60(%ebp), %eax
	movl	$1, 12(%esp)
	movl	-12(%ebp), %edx
	movl	%edx, 8(%esp)
	movl	-20(%ebp), %edx
	movl	%edx, 4(%esp)
	movl	-24(%ebp), %edx
	movl	%edx, (%esp)
	movl	%eax, %ecx
	call	__ZNSt10_HashtableIiSt4pairIKiiESaIS2_ENSt8__detail10_Select1stESt8equal_toIiESt4hashIiENS4_18_Mod_range_hashingENS4_20_Default_ranged_hashENS4_20_Prime_rehash_policyENS4_17_Hashtable_traitsILb0ELb0ELb1EEEE21_M_insert_unique_nodeEjjPNS4_10_Hash_nodeIS2_Lb0EEEj
	subl	$16, %esp
	movl	%eax, -32(%ebp)
	leal	-33(%ebp), %eax
	movl	%eax, 4(%esp)
	leal	-32(%ebp), %eax
	movl	%eax, (%esp)
	call	__ZSt9make_pairINSt8__detail14_Node_iteratorISt4pairIKiiELb0ELb0EEEbES2_INSt17__decay_and_stripIT_E6__typeENS6_IT0_E6__typeEEOS7_OSA_
LEHE37:
	nop
	jmp	L379
L377:
	movl	%eax, (%esp)
	call	___cxa_begin_catch
	movl	-60(%ebp), %eax
	movl	-12(%ebp), %edx
	movl	%edx, (%esp)
	movl	%eax, %ecx
LEHB38:
	call	__ZNSt8__detail16_Hashtable_allocISaINS_10_Hash_nodeISt4pairIKiiELb0EEEEE18_M_deallocate_nodeEPS5_
	subl	$4, %esp
	call	___cxa_rethrow
LEHE38:
L378:
	movl	%eax, %ebx
	call	___cxa_end_catch
	movl	%ebx, %eax
	movl	%eax, (%esp)
LEHB39:
	call	__Unwind_Resume
LEHE39:
L379:
	movl	-4(%ebp), %ebx
	leave
	.cfi_restore 5
	.cfi_restore 3
	.cfi_def_cfa 4, 4
	ret	$8
	.cfi_endproc
LFE4289:
	.section	.gcc_except_table,"w"
	.align 4
LLSDA4289:
	.byte	0xff
	.byte	0
	.uleb128 LLSDATT4289-LLSDATTD4289
LLSDATTD4289:
	.byte	0x1
	.uleb128 LLSDACSE4289-LLSDACSB4289
LLSDACSB4289:
	.uleb128 LEHB35-LFB4289
	.uleb128 LEHE35-LEHB35
	.uleb128 0
	.uleb128 0
	.uleb128 LEHB36-LFB4289
	.uleb128 LEHE36-LEHB36
	.uleb128 L377-LFB4289
	.uleb128 0x1
	.uleb128 LEHB37-LFB4289
	.uleb128 LEHE37-LEHB37
	.uleb128 0
	.uleb128 0
	.uleb128 LEHB38-LFB4289
	.uleb128 LEHE38-LEHB38
	.uleb128 L378-LFB4289
	.uleb128 0
	.uleb128 LEHB39-LFB4289
	.uleb128 LEHE39-LEHB39
	.uleb128 0
	.uleb128 0
LLSDACSE4289:
	.byte	0x1
	.byte	0
	.align 4
	.long	0
LLSDATT4289:
	.section	.text$_ZNSt10_HashtableIiSt4pairIKiiESaIS2_ENSt8__detail10_Select1stESt8equal_toIiESt4hashIiENS4_18_Mod_range_hashingENS4_20_Default_ranged_hashENS4_20_Prime_rehash_policyENS4_17_Hashtable_traitsILb0ELb0ELb1EEEE10_M_emplaceIJS0_IiiEEEES0_INS4_14_Node_iteratorIS2_Lb0ELb0EEEbESt17integral_constantIbLb1EEDpOT_,"x"
	.linkonce discard
	.section	.text$_ZNSt16allocator_traitsISaI5blockEE8max_sizeERKS1_,"x"
	.linkonce discard
	.globl	__ZNSt16allocator_traitsISaI5blockEE8max_sizeERKS1_
	.def	__ZNSt16allocator_traitsISaI5blockEE8max_sizeERKS1_;	.scl	2;	.type	32;	.endef
__ZNSt16allocator_traitsISaI5blockEE8max_sizeERKS1_:
LFB4326:
	.cfi_startproc
	pushl	%ebp
	.cfi_def_cfa_offset 8
	.cfi_offset 5, -8
	movl	%esp, %ebp
	.cfi_def_cfa_register 5
	subl	$8, %esp
	movl	8(%ebp), %ecx
	call	__ZNK9__gnu_cxx13new_allocatorI5blockE8max_sizeEv
	leave
	.cfi_restore 5
	.cfi_def_cfa 4, 4
	ret
	.cfi_endproc
LFE4326:
	.section	.text$_ZN9__gnu_cxx13new_allocatorI5blockEC2ERKS2_,"x"
	.linkonce discard
	.align 2
	.globl	__ZN9__gnu_cxx13new_allocatorI5blockEC2ERKS2_
	.def	__ZN9__gnu_cxx13new_allocatorI5blockEC2ERKS2_;	.scl	2;	.type	32;	.endef
__ZN9__gnu_cxx13new_allocatorI5blockEC2ERKS2_:
LFB4328:
	.cfi_startproc
	pushl	%ebp
	.cfi_def_cfa_offset 8
	.cfi_offset 5, -8
	movl	%esp, %ebp
	.cfi_def_cfa_register 5
	subl	$4, %esp
	movl	%ecx, -4(%ebp)
	nop
	leave
	.cfi_restore 5
	.cfi_def_cfa 4, 4
	ret	$4
	.cfi_endproc
LFE4328:
	.section	.text$_ZNSt12_Vector_baseI5blockSaIS0_EE17_Vector_impl_dataC2Ev,"x"
	.linkonce discard
	.align 2
	.globl	__ZNSt12_Vector_baseI5blockSaIS0_EE17_Vector_impl_dataC2Ev
	.def	__ZNSt12_Vector_baseI5blockSaIS0_EE17_Vector_impl_dataC2Ev;	.scl	2;	.type	32;	.endef
__ZNSt12_Vector_baseI5blockSaIS0_EE17_Vector_impl_dataC2Ev:
LFB4331:
	.cfi_startproc
	pushl	%ebp
	.cfi_def_cfa_offset 8
	.cfi_offset 5, -8
	movl	%esp, %ebp
	.cfi_def_cfa_register 5
	subl	$4, %esp
	movl	%ecx, -4(%ebp)
	movl	-4(%ebp), %eax
	movl	$0, (%eax)
	movl	-4(%ebp), %eax
	movl	$0, 4(%eax)
	movl	-4(%ebp), %eax
	movl	$0, 8(%eax)
	nop
	leave
	.cfi_restore 5
	.cfi_def_cfa 4, 4
	ret
	.cfi_endproc
LFE4331:
	.section	.text$_ZNSt12_Vector_baseI5blockSaIS0_EE11_M_allocateEj,"x"
	.linkonce discard
	.align 2
	.globl	__ZNSt12_Vector_baseI5blockSaIS0_EE11_M_allocateEj
	.def	__ZNSt12_Vector_baseI5blockSaIS0_EE11_M_allocateEj;	.scl	2;	.type	32;	.endef
__ZNSt12_Vector_baseI5blockSaIS0_EE11_M_allocateEj:
LFB4333:
	.cfi_startproc
	pushl	%ebp
	.cfi_def_cfa_offset 8
	.cfi_offset 5, -8
	movl	%esp, %ebp
	.cfi_def_cfa_register 5
	subl	$40, %esp
	movl	%ecx, -12(%ebp)
	cmpl	$0, 8(%ebp)
	je	L385
	movl	-12(%ebp), %eax
	movl	8(%ebp), %edx
	movl	%edx, 4(%esp)
	movl	%eax, (%esp)
	call	__ZNSt16allocator_traitsISaI5blockEE8allocateERS1_j
	jmp	L387
L385:
	movl	$0, %eax
L387:
	leave
	.cfi_restore 5
	.cfi_def_cfa 4, 4
	ret	$4
	.cfi_endproc
LFE4333:
	.section	.text$_ZNSt16allocator_traitsISaI5blockEE10deallocateERS1_PS0_j,"x"
	.linkonce discard
	.globl	__ZNSt16allocator_traitsISaI5blockEE10deallocateERS1_PS0_j
	.def	__ZNSt16allocator_traitsISaI5blockEE10deallocateERS1_PS0_j;	.scl	2;	.type	32;	.endef
__ZNSt16allocator_traitsISaI5blockEE10deallocateERS1_PS0_j:
LFB4334:
	.cfi_startproc
	pushl	%ebp
	.cfi_def_cfa_offset 8
	.cfi_offset 5, -8
	movl	%esp, %ebp
	.cfi_def_cfa_register 5
	subl	$24, %esp
	movl	16(%ebp), %eax
	movl	%eax, 4(%esp)
	movl	12(%ebp), %eax
	movl	%eax, (%esp)
	movl	8(%ebp), %ecx
	call	__ZN9__gnu_cxx13new_allocatorI5blockE10deallocateEPS1_j
	subl	$8, %esp
	nop
	leave
	.cfi_restore 5
	.cfi_def_cfa 4, 4
	ret
	.cfi_endproc
LFE4334:
	.section	.text$_ZSt20uninitialized_fill_nIP5blockjS0_ET_S2_T0_RKT1_,"x"
	.linkonce discard
	.globl	__ZSt20uninitialized_fill_nIP5blockjS0_ET_S2_T0_RKT1_
	.def	__ZSt20uninitialized_fill_nIP5blockjS0_ET_S2_T0_RKT1_;	.scl	2;	.type	32;	.endef
__ZSt20uninitialized_fill_nIP5blockjS0_ET_S2_T0_RKT1_:
LFB4335:
	.cfi_startproc
	pushl	%ebp
	.cfi_def_cfa_offset 8
	.cfi_offset 5, -8
	movl	%esp, %ebp
	.cfi_def_cfa_register 5
	subl	$40, %esp
	movb	$1, -9(%ebp)
	movl	16(%ebp), %eax
	movl	%eax, 8(%esp)
	movl	12(%ebp), %eax
	movl	%eax, 4(%esp)
	movl	8(%ebp), %eax
	movl	%eax, (%esp)
	call	__ZNSt22__uninitialized_fill_nILb0EE15__uninit_fill_nIP5blockjS2_EET_S4_T0_RKT1_
	leave
	.cfi_restore 5
	.cfi_def_cfa 4, 4
	ret
	.cfi_endproc
LFE4335:
	.section	.text$_ZNSt12_Destroy_auxILb0EE9__destroyIP5blockEEvT_S4_,"x"
	.linkonce discard
	.globl	__ZNSt12_Destroy_auxILb0EE9__destroyIP5blockEEvT_S4_
	.def	__ZNSt12_Destroy_auxILb0EE9__destroyIP5blockEEvT_S4_;	.scl	2;	.type	32;	.endef
__ZNSt12_Destroy_auxILb0EE9__destroyIP5blockEEvT_S4_:
LFB4336:
	.cfi_startproc
	pushl	%ebp
	.cfi_def_cfa_offset 8
	.cfi_offset 5, -8
	movl	%esp, %ebp
	.cfi_def_cfa_register 5
	subl	$24, %esp
L393:
	movl	8(%ebp), %eax
	cmpl	12(%ebp), %eax
	je	L394
	movl	8(%ebp), %eax
	movl	%eax, (%esp)
	call	__ZSt11__addressofI5blockEPT_RS1_
	movl	%eax, (%esp)
	call	__ZSt8_DestroyI5blockEvPT_
	addl	$16, 8(%ebp)
	jmp	L393
L394:
	nop
	leave
	.cfi_restore 5
	.cfi_def_cfa 4, 4
	ret
	.cfi_endproc
LFE4336:
	.section	.text$_ZNKSt8__detail10_Hash_nodeISt4pairIKiiELb0EE7_M_nextEv,"x"
	.linkonce discard
	.align 2
	.globl	__ZNKSt8__detail10_Hash_nodeISt4pairIKiiELb0EE7_M_nextEv
	.def	__ZNKSt8__detail10_Hash_nodeISt4pairIKiiELb0EE7_M_nextEv;	.scl	2;	.type	32;	.endef
__ZNKSt8__detail10_Hash_nodeISt4pairIKiiELb0EE7_M_nextEv:
LFB4337:
	.cfi_startproc
	pushl	%ebp
	.cfi_def_cfa_offset 8
	.cfi_offset 5, -8
	movl	%esp, %ebp
	.cfi_def_cfa_register 5
	subl	$4, %esp
	movl	%ecx, -4(%ebp)
	movl	-4(%ebp), %eax
	movl	(%eax), %eax
	leave
	.cfi_restore 5
	.cfi_def_cfa 4, 4
	ret
	.cfi_endproc
LFE4337:
	.section	.text$_ZNSt8__detail16_Hashtable_allocISaINS_10_Hash_nodeISt4pairIKiiELb0EEEEE18_M_deallocate_nodeEPS5_,"x"
	.linkonce discard
	.align 2
	.globl	__ZNSt8__detail16_Hashtable_allocISaINS_10_Hash_nodeISt4pairIKiiELb0EEEEE18_M_deallocate_nodeEPS5_
	.def	__ZNSt8__detail16_Hashtable_allocISaINS_10_Hash_nodeISt4pairIKiiELb0EEEEE18_M_deallocate_nodeEPS5_;	.scl	2;	.type	32;	.endef
__ZNSt8__detail16_Hashtable_allocISaINS_10_Hash_nodeISt4pairIKiiELb0EEEEE18_M_deallocate_nodeEPS5_:
LFB4338:
	.cfi_startproc
	pushl	%ebp
	.cfi_def_cfa_offset 8
	.cfi_offset 5, -8
	movl	%esp, %ebp
	.cfi_def_cfa_register 5
	pushl	%ebx
	subl	$36, %esp
	.cfi_offset 3, -12
	movl	%ecx, -12(%ebp)
	movl	8(%ebp), %eax
	movl	%eax, %ecx
	call	__ZNSt8__detail21_Hash_node_value_baseISt4pairIKiiEE9_M_valptrEv
	movl	%eax, %ebx
	movl	-12(%ebp), %eax
	movl	%eax, %ecx
	call	__ZNSt8__detail16_Hashtable_allocISaINS_10_Hash_nodeISt4pairIKiiELb0EEEEE17_M_node_allocatorEv
	movl	%ebx, 4(%esp)
	movl	%eax, (%esp)
	call	__ZNSt16allocator_traitsISaINSt8__detail10_Hash_nodeISt4pairIKiiELb0EEEEE7destroyIS4_EEvRS6_PT_
	movl	-12(%ebp), %eax
	movl	8(%ebp), %edx
	movl	%edx, (%esp)
	movl	%eax, %ecx
	call	__ZNSt8__detail16_Hashtable_allocISaINS_10_Hash_nodeISt4pairIKiiELb0EEEEE22_M_deallocate_node_ptrEPS5_
	subl	$4, %esp
	nop
	movl	-4(%ebp), %ebx
	leave
	.cfi_restore 5
	.cfi_restore 3
	.cfi_def_cfa 4, 4
	ret	$4
	.cfi_endproc
LFE4338:
	.section	.text$_ZNKSt10_HashtableIiSt4pairIKiiESaIS2_ENSt8__detail10_Select1stESt8equal_toIiESt4hashIiENS4_18_Mod_range_hashingENS4_20_Default_ranged_hashENS4_20_Prime_rehash_policyENS4_17_Hashtable_traitsILb0ELb0ELb1EEEE21_M_uses_single_bucketEPPNS4_15_Hash_node_baseE,"x"
	.linkonce discard
	.align 2
	.globl	__ZNKSt10_HashtableIiSt4pairIKiiESaIS2_ENSt8__detail10_Select1stESt8equal_toIiESt4hashIiENS4_18_Mod_range_hashingENS4_20_Default_ranged_hashENS4_20_Prime_rehash_policyENS4_17_Hashtable_traitsILb0ELb0ELb1EEEE21_M_uses_single_bucketEPPNS4_15_Hash_node_baseE
	.def	__ZNKSt10_HashtableIiSt4pairIKiiESaIS2_ENSt8__detail10_Select1stESt8equal_toIiESt4hashIiENS4_18_Mod_range_hashingENS4_20_Default_ranged_hashENS4_20_Prime_rehash_policyENS4_17_Hashtable_traitsILb0ELb0ELb1EEEE21_M_uses_single_bucketEPPNS4_15_Hash_node_baseE;	.scl	2;	.type	32;	.endef
__ZNKSt10_HashtableIiSt4pairIKiiESaIS2_ENSt8__detail10_Select1stESt8equal_toIiESt4hashIiENS4_18_Mod_range_hashingENS4_20_Default_ranged_hashENS4_20_Prime_rehash_policyENS4_17_Hashtable_traitsILb0ELb0ELb1EEEE21_M_uses_single_bucketEPPNS4_15_Hash_node_baseE:
LFB4339:
	.cfi_startproc
	pushl	%ebp
	.cfi_def_cfa_offset 8
	.cfi_offset 5, -8
	movl	%esp, %ebp
	.cfi_def_cfa_register 5
	subl	$4, %esp
	movl	%ecx, -4(%ebp)
	movl	-4(%ebp), %eax
	addl	$24, %eax
	cmpl	%eax, 8(%ebp)
	sete	%al
	movzbl	%al, %eax
	testl	%eax, %eax
	setne	%al
	leave
	.cfi_restore 5
	.cfi_def_cfa 4, 4
	ret	$4
	.cfi_endproc
LFE4339:
	.section	.text$_ZNSt8__detail16_Hashtable_allocISaINS_10_Hash_nodeISt4pairIKiiELb0EEEEE21_M_deallocate_bucketsEPPNS_15_Hash_node_baseEj,"x"
	.linkonce discard
	.align 2
	.globl	__ZNSt8__detail16_Hashtable_allocISaINS_10_Hash_nodeISt4pairIKiiELb0EEEEE21_M_deallocate_bucketsEPPNS_15_Hash_node_baseEj
	.def	__ZNSt8__detail16_Hashtable_allocISaINS_10_Hash_nodeISt4pairIKiiELb0EEEEE21_M_deallocate_bucketsEPPNS_15_Hash_node_baseEj;	.scl	2;	.type	32;	.endef
__ZNSt8__detail16_Hashtable_allocISaINS_10_Hash_nodeISt4pairIKiiELb0EEEEE21_M_deallocate_bucketsEPPNS_15_Hash_node_baseEj:
LFB4340:
	.cfi_startproc
	.cfi_personality 0,___gxx_personality_v0
	.cfi_lsda 0,LLSDA4340
	pushl	%ebp
	.cfi_def_cfa_offset 8
	.cfi_offset 5, -8
	movl	%esp, %ebp
	.cfi_def_cfa_register 5
	pushl	%ebx
	subl	$52, %esp
	.cfi_offset 3, -12
	movl	%ecx, -28(%ebp)
	movl	8(%ebp), %eax
	movl	%eax, (%esp)
	call	__ZNSt14pointer_traitsIPPNSt8__detail15_Hash_node_baseEE10pointer_toERS2_
	movl	%eax, -12(%ebp)
	movl	-28(%ebp), %eax
	movl	%eax, %ecx
LEHB40:
	call	__ZNSt8__detail16_Hashtable_allocISaINS_10_Hash_nodeISt4pairIKiiELb0EEEEE17_M_node_allocatorEv
LEHE40:
	movl	%eax, %edx
	leal	-13(%ebp), %eax
	movl	%edx, (%esp)
	movl	%eax, %ecx
	call	__ZNSaIPNSt8__detail15_Hash_node_baseEEC1INS_10_Hash_nodeISt4pairIKiiELb0EEEEERKSaIT_E
	subl	$4, %esp
	movl	12(%ebp), %eax
	movl	%eax, 8(%esp)
	movl	-12(%ebp), %eax
	movl	%eax, 4(%esp)
	leal	-13(%ebp), %eax
	movl	%eax, (%esp)
LEHB41:
	call	__ZNSt16allocator_traitsISaIPNSt8__detail15_Hash_node_baseEEE10deallocateERS3_PS2_j
LEHE41:
	leal	-13(%ebp), %eax
	movl	%eax, %ecx
	call	__ZNSaIPNSt8__detail15_Hash_node_baseEED1Ev
	jmp	L403
L402:
	movl	%eax, %ebx
	leal	-13(%ebp), %eax
	movl	%eax, %ecx
	call	__ZNSaIPNSt8__detail15_Hash_node_baseEED1Ev
	movl	%ebx, %eax
	movl	%eax, (%esp)
LEHB42:
	call	__Unwind_Resume
LEHE42:
L403:
	movl	-4(%ebp), %ebx
	leave
	.cfi_restore 5
	.cfi_restore 3
	.cfi_def_cfa 4, 4
	ret	$8
	.cfi_endproc
LFE4340:
	.section	.gcc_except_table,"w"
LLSDA4340:
	.byte	0xff
	.byte	0xff
	.byte	0x1
	.uleb128 LLSDACSE4340-LLSDACSB4340
LLSDACSB4340:
	.uleb128 LEHB40-LFB4340
	.uleb128 LEHE40-LEHB40
	.uleb128 0
	.uleb128 0
	.uleb128 LEHB41-LFB4340
	.uleb128 LEHE41-LEHB41
	.uleb128 L402-LFB4340
	.uleb128 0
	.uleb128 LEHB42-LFB4340
	.uleb128 LEHE42-LEHB42
	.uleb128 0
	.uleb128 0
LLSDACSE4340:
	.section	.text$_ZNSt8__detail16_Hashtable_allocISaINS_10_Hash_nodeISt4pairIKiiELb0EEEEE21_M_deallocate_bucketsEPPNS_15_Hash_node_baseEj,"x"
	.linkonce discard
	.section	.text$_ZN9__gnu_cxx16__aligned_membufIiE6_M_ptrEv,"x"
	.linkonce discard
	.align 2
	.globl	__ZN9__gnu_cxx16__aligned_membufIiE6_M_ptrEv
	.def	__ZN9__gnu_cxx16__aligned_membufIiE6_M_ptrEv;	.scl	2;	.type	32;	.endef
__ZN9__gnu_cxx16__aligned_membufIiE6_M_ptrEv:
LFB4341:
	.cfi_startproc
	pushl	%ebp
	.cfi_def_cfa_offset 8
	.cfi_offset 5, -8
	movl	%esp, %ebp
	.cfi_def_cfa_register 5
	subl	$24, %esp
	movl	%ecx, -12(%ebp)
	movl	-12(%ebp), %eax
	movl	%eax, %ecx
	call	__ZN9__gnu_cxx16__aligned_membufIiE7_M_addrEv
	leave
	.cfi_restore 5
	.cfi_def_cfa 4, 4
	ret
	.cfi_endproc
LFE4341:
	.section	.text$_ZN9__gnu_cxx13new_allocatorISt10_List_nodeIiEE7destroyIiEEvPT_,"x"
	.linkonce discard
	.align 2
	.globl	__ZN9__gnu_cxx13new_allocatorISt10_List_nodeIiEE7destroyIiEEvPT_
	.def	__ZN9__gnu_cxx13new_allocatorISt10_List_nodeIiEE7destroyIiEEvPT_;	.scl	2;	.type	32;	.endef
__ZN9__gnu_cxx13new_allocatorISt10_List_nodeIiEE7destroyIiEEvPT_:
LFB4342:
	.cfi_startproc
	pushl	%ebp
	.cfi_def_cfa_offset 8
	.cfi_offset 5, -8
	movl	%esp, %ebp
	.cfi_def_cfa_register 5
	subl	$4, %esp
	movl	%ecx, -4(%ebp)
	nop
	leave
	.cfi_restore 5
	.cfi_def_cfa 4, 4
	ret	$4
	.cfi_endproc
LFE4342:
	.section	.text$_ZNSt16allocator_traitsISaISt10_List_nodeIiEEE10deallocateERS2_PS1_j,"x"
	.linkonce discard
	.globl	__ZNSt16allocator_traitsISaISt10_List_nodeIiEEE10deallocateERS2_PS1_j
	.def	__ZNSt16allocator_traitsISaISt10_List_nodeIiEEE10deallocateERS2_PS1_j;	.scl	2;	.type	32;	.endef
__ZNSt16allocator_traitsISaISt10_List_nodeIiEEE10deallocateERS2_PS1_j:
LFB4343:
	.cfi_startproc
	pushl	%ebp
	.cfi_def_cfa_offset 8
	.cfi_offset 5, -8
	movl	%esp, %ebp
	.cfi_def_cfa_register 5
	subl	$24, %esp
	movl	16(%ebp), %eax
	movl	%eax, 4(%esp)
	movl	12(%ebp), %eax
	movl	%eax, (%esp)
	movl	8(%ebp), %ecx
	call	__ZN9__gnu_cxx13new_allocatorISt10_List_nodeIiEE10deallocateEPS2_j
	subl	$8, %esp
	nop
	leave
	.cfi_restore 5
	.cfi_def_cfa 4, 4
	ret
	.cfi_endproc
LFE4343:
	.section	.text$_ZNSt16allocator_traitsISaI9cache_setEE8max_sizeERKS1_,"x"
	.linkonce discard
	.globl	__ZNSt16allocator_traitsISaI9cache_setEE8max_sizeERKS1_
	.def	__ZNSt16allocator_traitsISaI9cache_setEE8max_sizeERKS1_;	.scl	2;	.type	32;	.endef
__ZNSt16allocator_traitsISaI9cache_setEE8max_sizeERKS1_:
LFB4344:
	.cfi_startproc
	pushl	%ebp
	.cfi_def_cfa_offset 8
	.cfi_offset 5, -8
	movl	%esp, %ebp
	.cfi_def_cfa_register 5
	subl	$8, %esp
	movl	8(%ebp), %ecx
	call	__ZNK9__gnu_cxx13new_allocatorI9cache_setE8max_sizeEv
	leave
	.cfi_restore 5
	.cfi_def_cfa 4, 4
	ret
	.cfi_endproc
LFE4344:
	.section	.text$_ZN9__gnu_cxx13new_allocatorI9cache_setEC2ERKS2_,"x"
	.linkonce discard
	.align 2
	.globl	__ZN9__gnu_cxx13new_allocatorI9cache_setEC2ERKS2_
	.def	__ZN9__gnu_cxx13new_allocatorI9cache_setEC2ERKS2_;	.scl	2;	.type	32;	.endef
__ZN9__gnu_cxx13new_allocatorI9cache_setEC2ERKS2_:
LFB4346:
	.cfi_startproc
	pushl	%ebp
	.cfi_def_cfa_offset 8
	.cfi_offset 5, -8
	movl	%esp, %ebp
	.cfi_def_cfa_register 5
	subl	$4, %esp
	movl	%ecx, -4(%ebp)
	nop
	leave
	.cfi_restore 5
	.cfi_def_cfa 4, 4
	ret	$4
	.cfi_endproc
LFE4346:
	.section	.text$_ZNSt12_Vector_baseI9cache_setSaIS0_EE17_Vector_impl_dataC2Ev,"x"
	.linkonce discard
	.align 2
	.globl	__ZNSt12_Vector_baseI9cache_setSaIS0_EE17_Vector_impl_dataC2Ev
	.def	__ZNSt12_Vector_baseI9cache_setSaIS0_EE17_Vector_impl_dataC2Ev;	.scl	2;	.type	32;	.endef
__ZNSt12_Vector_baseI9cache_setSaIS0_EE17_Vector_impl_dataC2Ev:
LFB4349:
	.cfi_startproc
	pushl	%ebp
	.cfi_def_cfa_offset 8
	.cfi_offset 5, -8
	movl	%esp, %ebp
	.cfi_def_cfa_register 5
	subl	$4, %esp
	movl	%ecx, -4(%ebp)
	movl	-4(%ebp), %eax
	movl	$0, (%eax)
	movl	-4(%ebp), %eax
	movl	$0, 4(%eax)
	movl	-4(%ebp), %eax
	movl	$0, 8(%eax)
	nop
	leave
	.cfi_restore 5
	.cfi_def_cfa 4, 4
	ret
	.cfi_endproc
LFE4349:
	.section	.text$_ZNSt12_Vector_baseI9cache_setSaIS0_EE11_M_allocateEj,"x"
	.linkonce discard
	.align 2
	.globl	__ZNSt12_Vector_baseI9cache_setSaIS0_EE11_M_allocateEj
	.def	__ZNSt12_Vector_baseI9cache_setSaIS0_EE11_M_allocateEj;	.scl	2;	.type	32;	.endef
__ZNSt12_Vector_baseI9cache_setSaIS0_EE11_M_allocateEj:
LFB4351:
	.cfi_startproc
	pushl	%ebp
	.cfi_def_cfa_offset 8
	.cfi_offset 5, -8
	movl	%esp, %ebp
	.cfi_def_cfa_register 5
	subl	$40, %esp
	movl	%ecx, -12(%ebp)
	cmpl	$0, 8(%ebp)
	je	L413
	movl	-12(%ebp), %eax
	movl	8(%ebp), %edx
	movl	%edx, 4(%esp)
	movl	%eax, (%esp)
	call	__ZNSt16allocator_traitsISaI9cache_setEE8allocateERS1_j
	jmp	L415
L413:
	movl	$0, %eax
L415:
	leave
	.cfi_restore 5
	.cfi_def_cfa 4, 4
	ret	$4
	.cfi_endproc
LFE4351:
	.section	.text$_ZNSt16allocator_traitsISaI9cache_setEE10deallocateERS1_PS0_j,"x"
	.linkonce discard
	.globl	__ZNSt16allocator_traitsISaI9cache_setEE10deallocateERS1_PS0_j
	.def	__ZNSt16allocator_traitsISaI9cache_setEE10deallocateERS1_PS0_j;	.scl	2;	.type	32;	.endef
__ZNSt16allocator_traitsISaI9cache_setEE10deallocateERS1_PS0_j:
LFB4352:
	.cfi_startproc
	pushl	%ebp
	.cfi_def_cfa_offset 8
	.cfi_offset 5, -8
	movl	%esp, %ebp
	.cfi_def_cfa_register 5
	subl	$24, %esp
	movl	16(%ebp), %eax
	movl	%eax, 4(%esp)
	movl	12(%ebp), %eax
	movl	%eax, (%esp)
	movl	8(%ebp), %ecx
	call	__ZN9__gnu_cxx13new_allocatorI9cache_setE10deallocateEPS1_j
	subl	$8, %esp
	nop
	leave
	.cfi_restore 5
	.cfi_def_cfa 4, 4
	ret
	.cfi_endproc
LFE4352:
	.section	.text$_ZSt20uninitialized_fill_nIP9cache_setjS0_ET_S2_T0_RKT1_,"x"
	.linkonce discard
	.globl	__ZSt20uninitialized_fill_nIP9cache_setjS0_ET_S2_T0_RKT1_
	.def	__ZSt20uninitialized_fill_nIP9cache_setjS0_ET_S2_T0_RKT1_;	.scl	2;	.type	32;	.endef
__ZSt20uninitialized_fill_nIP9cache_setjS0_ET_S2_T0_RKT1_:
LFB4353:
	.cfi_startproc
	pushl	%ebp
	.cfi_def_cfa_offset 8
	.cfi_offset 5, -8
	movl	%esp, %ebp
	.cfi_def_cfa_register 5
	subl	$40, %esp
	movb	$1, -9(%ebp)
	movl	16(%ebp), %eax
	movl	%eax, 8(%esp)
	movl	12(%ebp), %eax
	movl	%eax, 4(%esp)
	movl	8(%ebp), %eax
	movl	%eax, (%esp)
	call	__ZNSt22__uninitialized_fill_nILb0EE15__uninit_fill_nIP9cache_setjS2_EET_S4_T0_RKT1_
	leave
	.cfi_restore 5
	.cfi_def_cfa 4, 4
	ret
	.cfi_endproc
LFE4353:
	.section	.text$_ZNSt12_Destroy_auxILb0EE9__destroyIP9cache_setEEvT_S4_,"x"
	.linkonce discard
	.globl	__ZNSt12_Destroy_auxILb0EE9__destroyIP9cache_setEEvT_S4_
	.def	__ZNSt12_Destroy_auxILb0EE9__destroyIP9cache_setEEvT_S4_;	.scl	2;	.type	32;	.endef
__ZNSt12_Destroy_auxILb0EE9__destroyIP9cache_setEEvT_S4_:
LFB4354:
	.cfi_startproc
	pushl	%ebp
	.cfi_def_cfa_offset 8
	.cfi_offset 5, -8
	movl	%esp, %ebp
	.cfi_def_cfa_register 5
	subl	$24, %esp
L421:
	movl	8(%ebp), %eax
	cmpl	12(%ebp), %eax
	je	L422
	movl	8(%ebp), %eax
	movl	%eax, (%esp)
	call	__ZSt11__addressofI9cache_setEPT_RS1_
	movl	%eax, (%esp)
	call	__ZSt8_DestroyI9cache_setEvPT_
	addl	$60, 8(%ebp)
	jmp	L421
L422:
	nop
	leave
	.cfi_restore 5
	.cfi_def_cfa 4, 4
	ret
	.cfi_endproc
LFE4354:
	.section	.text$_ZNKSt8__detail15_Hash_code_baseIiSt4pairIKiiENS_10_Select1stESt4hashIiENS_18_Mod_range_hashingENS_20_Default_ranged_hashELb0EE5_M_h1Ev,"x"
	.linkonce discard
	.align 2
	.globl	__ZNKSt8__detail15_Hash_code_baseIiSt4pairIKiiENS_10_Select1stESt4hashIiENS_18_Mod_range_hashingENS_20_Default_ranged_hashELb0EE5_M_h1Ev
	.def	__ZNKSt8__detail15_Hash_code_baseIiSt4pairIKiiENS_10_Select1stESt4hashIiENS_18_Mod_range_hashingENS_20_Default_ranged_hashELb0EE5_M_h1Ev;	.scl	2;	.type	32;	.endef
__ZNKSt8__detail15_Hash_code_baseIiSt4pairIKiiENS_10_Select1stESt4hashIiENS_18_Mod_range_hashingENS_20_Default_ranged_hashELb0EE5_M_h1Ev:
LFB4355:
	.cfi_startproc
	pushl	%ebp
	.cfi_def_cfa_offset 8
	.cfi_offset 5, -8
	movl	%esp, %ebp
	.cfi_def_cfa_register 5
	subl	$40, %esp
	movl	%ecx, -12(%ebp)
	movl	-12(%ebp), %eax
	movl	%eax, (%esp)
	call	__ZNSt8__detail21_Hashtable_ebo_helperILi1ESt4hashIiELb1EE7_S_cgetERKS3_
	leave
	.cfi_restore 5
	.cfi_def_cfa 4, 4
	ret
	.cfi_endproc
LFE4355:
	.section	.text$_ZNKSt8__detail15_Hash_code_baseIiSt4pairIKiiENS_10_Select1stESt4hashIiENS_18_Mod_range_hashingENS_20_Default_ranged_hashELb0EE15_M_bucket_indexERS2_jj,"x"
	.linkonce discard
	.align 2
	.globl	__ZNKSt8__detail15_Hash_code_baseIiSt4pairIKiiENS_10_Select1stESt4hashIiENS_18_Mod_range_hashingENS_20_Default_ranged_hashELb0EE15_M_bucket_indexERS2_jj
	.def	__ZNKSt8__detail15_Hash_code_baseIiSt4pairIKiiENS_10_Select1stESt4hashIiENS_18_Mod_range_hashingENS_20_Default_ranged_hashELb0EE15_M_bucket_indexERS2_jj;	.scl	2;	.type	32;	.endef
__ZNKSt8__detail15_Hash_code_baseIiSt4pairIKiiENS_10_Select1stESt4hashIiENS_18_Mod_range_hashingENS_20_Default_ranged_hashELb0EE15_M_bucket_indexERS2_jj:
LFB4356:
	.cfi_startproc
	pushl	%ebp
	.cfi_def_cfa_offset 8
	.cfi_offset 5, -8
	movl	%esp, %ebp
	.cfi_def_cfa_register 5
	subl	$40, %esp
	movl	%ecx, -12(%ebp)
	movl	-12(%ebp), %eax
	movl	%eax, %ecx
	call	__ZNKSt8__detail15_Hash_code_baseIiSt4pairIKiiENS_10_Select1stESt4hashIiENS_18_Mod_range_hashingENS_20_Default_ranged_hashELb0EE5_M_h2Ev
	movl	%eax, %edx
	movl	16(%ebp), %eax
	movl	%eax, 4(%esp)
	movl	12(%ebp), %eax
	movl	%eax, (%esp)
	movl	%edx, %ecx
	call	__ZNKSt8__detail18_Mod_range_hashingclEjj
	subl	$8, %esp
	leave
	.cfi_restore 5
	.cfi_def_cfa 4, 4
	ret	$12
	.cfi_endproc
LFE4356:
	.section	.text$_ZNKSt10_HashtableIiSt4pairIKiiESaIS2_ENSt8__detail10_Select1stESt8equal_toIiESt4hashIiENS4_18_Mod_range_hashingENS4_20_Default_ranged_hashENS4_20_Prime_rehash_policyENS4_17_Hashtable_traitsILb0ELb0ELb1EEEE19_M_find_before_nodeEjRS1_j,"x"
	.linkonce discard
	.align 2
	.globl	__ZNKSt10_HashtableIiSt4pairIKiiESaIS2_ENSt8__detail10_Select1stESt8equal_toIiESt4hashIiENS4_18_Mod_range_hashingENS4_20_Default_ranged_hashENS4_20_Prime_rehash_policyENS4_17_Hashtable_traitsILb0ELb0ELb1EEEE19_M_find_before_nodeEjRS1_j
	.def	__ZNKSt10_HashtableIiSt4pairIKiiESaIS2_ENSt8__detail10_Select1stESt8equal_toIiESt4hashIiENS4_18_Mod_range_hashingENS4_20_Default_ranged_hashENS4_20_Prime_rehash_policyENS4_17_Hashtable_traitsILb0ELb0ELb1EEEE19_M_find_before_nodeEjRS1_j;	.scl	2;	.type	32;	.endef
__ZNKSt10_HashtableIiSt4pairIKiiESaIS2_ENSt8__detail10_Select1stESt8equal_toIiESt4hashIiENS4_18_Mod_range_hashingENS4_20_Default_ranged_hashENS4_20_Prime_rehash_policyENS4_17_Hashtable_traitsILb0ELb0ELb1EEEE19_M_find_before_nodeEjRS1_j:
LFB4357:
	.cfi_startproc
	pushl	%ebp
	.cfi_def_cfa_offset 8
	.cfi_offset 5, -8
	movl	%esp, %ebp
	.cfi_def_cfa_register 5
	subl	$56, %esp
	movl	%ecx, -28(%ebp)
	movl	-28(%ebp), %eax
	movl	(%eax), %eax
	movl	8(%ebp), %edx
	sall	$2, %edx
	addl	%edx, %eax
	movl	(%eax), %eax
	movl	%eax, -12(%ebp)
	cmpl	$0, -12(%ebp)
	jne	L428
	movl	$0, %eax
	jmp	L429
L428:
	movl	-12(%ebp), %eax
	movl	(%eax), %eax
	movl	%eax, -16(%ebp)
L436:
	movl	-28(%ebp), %eax
	movl	-16(%ebp), %edx
	movl	%edx, 8(%esp)
	movl	16(%ebp), %edx
	movl	%edx, 4(%esp)
	movl	12(%ebp), %edx
	movl	%edx, (%esp)
	movl	%eax, %ecx
	call	__ZNKSt8__detail15_Hashtable_baseIiSt4pairIKiiENS_10_Select1stESt8equal_toIiESt4hashIiENS_18_Mod_range_hashingENS_20_Default_ranged_hashENS_17_Hashtable_traitsILb0ELb0ELb1EEEE9_M_equalsERS2_jPNS_10_Hash_nodeIS3_Lb0EEE
	subl	$12, %esp
	testb	%al, %al
	je	L430
	movl	-12(%ebp), %eax
	jmp	L429
L430:
	movl	-16(%ebp), %eax
	movl	(%eax), %eax
	testl	%eax, %eax
	je	L431
	movl	-16(%ebp), %eax
	movl	%eax, %ecx
	call	__ZNKSt8__detail10_Hash_nodeISt4pairIKiiELb0EE7_M_nextEv
	movl	%eax, %edx
	movl	-28(%ebp), %eax
	movl	%edx, (%esp)
	movl	%eax, %ecx
	call	__ZNKSt10_HashtableIiSt4pairIKiiESaIS2_ENSt8__detail10_Select1stESt8equal_toIiESt4hashIiENS4_18_Mod_range_hashingENS4_20_Default_ranged_hashENS4_20_Prime_rehash_policyENS4_17_Hashtable_traitsILb0ELb0ELb1EEEE15_M_bucket_indexEPNS4_10_Hash_nodeIS2_Lb0EEE
	subl	$4, %esp
	cmpl	%eax, 8(%ebp)
	je	L432
L431:
	movl	$1, %eax
	jmp	L433
L432:
	movl	$0, %eax
L433:
	testb	%al, %al
	jne	L438
	movl	-16(%ebp), %eax
	movl	%eax, -12(%ebp)
	movl	-16(%ebp), %eax
	movl	%eax, %ecx
	call	__ZNKSt8__detail10_Hash_nodeISt4pairIKiiELb0EE7_M_nextEv
	movl	%eax, -16(%ebp)
	jmp	L436
L438:
	nop
	movl	$0, %eax
L429:
	leave
	.cfi_restore 5
	.cfi_def_cfa 4, 4
	ret	$12
	.cfi_endproc
LFE4357:
	.section	.text$_ZNSt8__detail19_Node_iterator_baseISt4pairIKiiELb0EEC2EPNS_10_Hash_nodeIS3_Lb0EEE,"x"
	.linkonce discard
	.align 2
	.globl	__ZNSt8__detail19_Node_iterator_baseISt4pairIKiiELb0EEC2EPNS_10_Hash_nodeIS3_Lb0EEE
	.def	__ZNSt8__detail19_Node_iterator_baseISt4pairIKiiELb0EEC2EPNS_10_Hash_nodeIS3_Lb0EEE;	.scl	2;	.type	32;	.endef
__ZNSt8__detail19_Node_iterator_baseISt4pairIKiiELb0EEC2EPNS_10_Hash_nodeIS3_Lb0EEE:
LFB4359:
	.cfi_startproc
	pushl	%ebp
	.cfi_def_cfa_offset 8
	.cfi_offset 5, -8
	movl	%esp, %ebp
	.cfi_def_cfa_register 5
	subl	$4, %esp
	movl	%ecx, -4(%ebp)
	movl	-4(%ebp), %eax
	movl	8(%ebp), %edx
	movl	%edx, (%eax)
	nop
	leave
	.cfi_restore 5
	.cfi_def_cfa 4, 4
	ret	$4
	.cfi_endproc
LFE4359:
	.section	.text$_ZN9__gnu_cxx16__aligned_bufferISt4pairIKiiEE7_M_addrEv,"x"
	.linkonce discard
	.align 2
	.globl	__ZN9__gnu_cxx16__aligned_bufferISt4pairIKiiEE7_M_addrEv
	.def	__ZN9__gnu_cxx16__aligned_bufferISt4pairIKiiEE7_M_addrEv;	.scl	2;	.type	32;	.endef
__ZN9__gnu_cxx16__aligned_bufferISt4pairIKiiEE7_M_addrEv:
LFB4361:
	.cfi_startproc
	pushl	%ebp
	.cfi_def_cfa_offset 8
	.cfi_offset 5, -8
	movl	%esp, %ebp
	.cfi_def_cfa_register 5
	subl	$4, %esp
	movl	%ecx, -4(%ebp)
	movl	-4(%ebp), %eax
	leave
	.cfi_restore 5
	.cfi_def_cfa 4, 4
	ret
	.cfi_endproc
LFE4361:
	.section	.text$_ZN9__gnu_cxx5__ops16_Iter_equals_valIKiEclISt14_List_iteratorIiEEEbT_,"x"
	.linkonce discard
	.align 2
	.globl	__ZN9__gnu_cxx5__ops16_Iter_equals_valIKiEclISt14_List_iteratorIiEEEbT_
	.def	__ZN9__gnu_cxx5__ops16_Iter_equals_valIKiEclISt14_List_iteratorIiEEEbT_;	.scl	2;	.type	32;	.endef
__ZN9__gnu_cxx5__ops16_Iter_equals_valIKiEclISt14_List_iteratorIiEEEbT_:
LFB4362:
	.cfi_startproc
	pushl	%ebp
	.cfi_def_cfa_offset 8
	.cfi_offset 5, -8
	movl	%esp, %ebp
	.cfi_def_cfa_register 5
	subl	$24, %esp
	movl	%ecx, -12(%ebp)
	leal	8(%ebp), %ecx
	call	__ZNKSt14_List_iteratorIiEdeEv
	movl	(%eax), %edx
	movl	-12(%ebp), %eax
	movl	(%eax), %eax
	movl	(%eax), %eax
	cmpl	%eax, %edx
	sete	%al
	leave
	.cfi_restore 5
	.cfi_def_cfa 4, 4
	ret	$4
	.cfi_endproc
LFE4362:
	.section	.text$_ZNSt14_List_iteratorIiEppEv,"x"
	.linkonce discard
	.align 2
	.globl	__ZNSt14_List_iteratorIiEppEv
	.def	__ZNSt14_List_iteratorIiEppEv;	.scl	2;	.type	32;	.endef
__ZNSt14_List_iteratorIiEppEv:
LFB4363:
	.cfi_startproc
	pushl	%ebp
	.cfi_def_cfa_offset 8
	.cfi_offset 5, -8
	movl	%esp, %ebp
	.cfi_def_cfa_register 5
	subl	$4, %esp
	movl	%ecx, -4(%ebp)
	movl	-4(%ebp), %eax
	movl	(%eax), %eax
	movl	(%eax), %edx
	movl	-4(%ebp), %eax
	movl	%edx, (%eax)
	movl	-4(%ebp), %eax
	leave
	.cfi_restore 5
	.cfi_def_cfa 4, 4
	ret
	.cfi_endproc
LFE4363:
	.section	.text$_ZNKSt10_HashtableIiSt4pairIKiiESaIS2_ENSt8__detail10_Select1stESt8equal_toIiESt4hashIiENS4_18_Mod_range_hashingENS4_20_Default_ranged_hashENS4_20_Prime_rehash_policyENS4_17_Hashtable_traitsILb0ELb0ELb1EEEE15_M_bucket_indexEPNS4_10_Hash_nodeIS2_Lb0EEE,"x"
	.linkonce discard
	.align 2
	.globl	__ZNKSt10_HashtableIiSt4pairIKiiESaIS2_ENSt8__detail10_Select1stESt8equal_toIiESt4hashIiENS4_18_Mod_range_hashingENS4_20_Default_ranged_hashENS4_20_Prime_rehash_policyENS4_17_Hashtable_traitsILb0ELb0ELb1EEEE15_M_bucket_indexEPNS4_10_Hash_nodeIS2_Lb0EEE
	.def	__ZNKSt10_HashtableIiSt4pairIKiiESaIS2_ENSt8__detail10_Select1stESt8equal_toIiESt4hashIiENS4_18_Mod_range_hashingENS4_20_Default_ranged_hashENS4_20_Prime_rehash_policyENS4_17_Hashtable_traitsILb0ELb0ELb1EEEE15_M_bucket_indexEPNS4_10_Hash_nodeIS2_Lb0EEE;	.scl	2;	.type	32;	.endef
__ZNKSt10_HashtableIiSt4pairIKiiESaIS2_ENSt8__detail10_Select1stESt8equal_toIiESt4hashIiENS4_18_Mod_range_hashingENS4_20_Default_ranged_hashENS4_20_Prime_rehash_policyENS4_17_Hashtable_traitsILb0ELb0ELb1EEEE15_M_bucket_indexEPNS4_10_Hash_nodeIS2_Lb0EEE:
LFB4364:
	.cfi_startproc
	pushl	%ebp
	.cfi_def_cfa_offset 8
	.cfi_offset 5, -8
	movl	%esp, %ebp
	.cfi_def_cfa_register 5
	subl	$40, %esp
	movl	%ecx, -12(%ebp)
	movl	-12(%ebp), %eax
	movl	4(%eax), %edx
	movl	-12(%ebp), %eax
	movl	%edx, 4(%esp)
	movl	8(%ebp), %edx
	movl	%edx, (%esp)
	movl	%eax, %ecx
	call	__ZNKSt8__detail15_Hash_code_baseIiSt4pairIKiiENS_10_Select1stESt4hashIiENS_18_Mod_range_hashingENS_20_Default_ranged_hashELb0EE15_M_bucket_indexEPKNS_10_Hash_nodeIS3_Lb0EEEj
	subl	$8, %esp
	leave
	.cfi_restore 5
	.cfi_def_cfa 4, 4
	ret	$4
	.cfi_endproc
LFE4364:
	.section	.text$_ZNSt10_HashtableIiSt4pairIKiiESaIS2_ENSt8__detail10_Select1stESt8equal_toIiESt4hashIiENS4_18_Mod_range_hashingENS4_20_Default_ranged_hashENS4_20_Prime_rehash_policyENS4_17_Hashtable_traitsILb0ELb0ELb1EEEE20_M_get_previous_nodeEjPNS4_15_Hash_node_baseE,"x"
	.linkonce discard
	.align 2
	.globl	__ZNSt10_HashtableIiSt4pairIKiiESaIS2_ENSt8__detail10_Select1stESt8equal_toIiESt4hashIiENS4_18_Mod_range_hashingENS4_20_Default_ranged_hashENS4_20_Prime_rehash_policyENS4_17_Hashtable_traitsILb0ELb0ELb1EEEE20_M_get_previous_nodeEjPNS4_15_Hash_node_baseE
	.def	__ZNSt10_HashtableIiSt4pairIKiiESaIS2_ENSt8__detail10_Select1stESt8equal_toIiESt4hashIiENS4_18_Mod_range_hashingENS4_20_Default_ranged_hashENS4_20_Prime_rehash_policyENS4_17_Hashtable_traitsILb0ELb0ELb1EEEE20_M_get_previous_nodeEjPNS4_15_Hash_node_baseE;	.scl	2;	.type	32;	.endef
__ZNSt10_HashtableIiSt4pairIKiiESaIS2_ENSt8__detail10_Select1stESt8equal_toIiESt4hashIiENS4_18_Mod_range_hashingENS4_20_Default_ranged_hashENS4_20_Prime_rehash_policyENS4_17_Hashtable_traitsILb0ELb0ELb1EEEE20_M_get_previous_nodeEjPNS4_15_Hash_node_baseE:
LFB4365:
	.cfi_startproc
	pushl	%ebp
	.cfi_def_cfa_offset 8
	.cfi_offset 5, -8
	movl	%esp, %ebp
	.cfi_def_cfa_register 5
	subl	$20, %esp
	movl	%ecx, -20(%ebp)
	movl	-20(%ebp), %eax
	movl	(%eax), %eax
	movl	8(%ebp), %edx
	sall	$2, %edx
	addl	%edx, %eax
	movl	(%eax), %eax
	movl	%eax, -4(%ebp)
L450:
	movl	-4(%ebp), %eax
	movl	(%eax), %eax
	cmpl	%eax, 12(%ebp)
	je	L449
	movl	-4(%ebp), %eax
	movl	(%eax), %eax
	movl	%eax, -4(%ebp)
	jmp	L450
L449:
	movl	-4(%ebp), %eax
	leave
	.cfi_restore 5
	.cfi_def_cfa 4, 4
	ret	$8
	.cfi_endproc
LFE4365:
	.section	.text$_ZNSt10_HashtableIiSt4pairIKiiESaIS2_ENSt8__detail10_Select1stESt8equal_toIiESt4hashIiENS4_18_Mod_range_hashingENS4_20_Default_ranged_hashENS4_20_Prime_rehash_policyENS4_17_Hashtable_traitsILb0ELb0ELb1EEEE8_M_eraseEjPNS4_15_Hash_node_baseEPNS4_10_Hash_nodeIS2_Lb0EEE,"x"
	.linkonce discard
	.align 2
	.globl	__ZNSt10_HashtableIiSt4pairIKiiESaIS2_ENSt8__detail10_Select1stESt8equal_toIiESt4hashIiENS4_18_Mod_range_hashingENS4_20_Default_ranged_hashENS4_20_Prime_rehash_policyENS4_17_Hashtable_traitsILb0ELb0ELb1EEEE8_M_eraseEjPNS4_15_Hash_node_baseEPNS4_10_Hash_nodeIS2_Lb0EEE
	.def	__ZNSt10_HashtableIiSt4pairIKiiESaIS2_ENSt8__detail10_Select1stESt8equal_toIiESt4hashIiENS4_18_Mod_range_hashingENS4_20_Default_ranged_hashENS4_20_Prime_rehash_policyENS4_17_Hashtable_traitsILb0ELb0ELb1EEEE8_M_eraseEjPNS4_15_Hash_node_baseEPNS4_10_Hash_nodeIS2_Lb0EEE;	.scl	2;	.type	32;	.endef
__ZNSt10_HashtableIiSt4pairIKiiESaIS2_ENSt8__detail10_Select1stESt8equal_toIiESt4hashIiENS4_18_Mod_range_hashingENS4_20_Default_ranged_hashENS4_20_Prime_rehash_policyENS4_17_Hashtable_traitsILb0ELb0ELb1EEEE8_M_eraseEjPNS4_15_Hash_node_baseEPNS4_10_Hash_nodeIS2_Lb0EEE:
LFB4366:
	.cfi_startproc
	pushl	%ebp
	.cfi_def_cfa_offset 8
	.cfi_offset 5, -8
	movl	%esp, %ebp
	.cfi_def_cfa_register 5
	pushl	%ebx
	subl	$52, %esp
	.cfi_offset 3, -12
	movl	%ecx, -28(%ebp)
	movl	-28(%ebp), %eax
	movl	(%eax), %eax
	movl	8(%ebp), %edx
	sall	$2, %edx
	addl	%edx, %eax
	movl	(%eax), %eax
	cmpl	%eax, 12(%ebp)
	jne	L453
	movl	16(%ebp), %eax
	movl	(%eax), %eax
	testl	%eax, %eax
	je	L454
	movl	16(%ebp), %eax
	movl	%eax, %ecx
	call	__ZNKSt8__detail10_Hash_nodeISt4pairIKiiELb0EE7_M_nextEv
	movl	%eax, %edx
	movl	-28(%ebp), %eax
	movl	%edx, (%esp)
	movl	%eax, %ecx
	call	__ZNKSt10_HashtableIiSt4pairIKiiESaIS2_ENSt8__detail10_Select1stESt8equal_toIiESt4hashIiENS4_18_Mod_range_hashingENS4_20_Default_ranged_hashENS4_20_Prime_rehash_policyENS4_17_Hashtable_traitsILb0ELb0ELb1EEEE15_M_bucket_indexEPNS4_10_Hash_nodeIS2_Lb0EEE
	subl	$4, %esp
	movl	%eax, %ebx
	jmp	L455
L454:
	movl	$0, %ebx
L455:
	movl	16(%ebp), %eax
	movl	%eax, %ecx
	call	__ZNKSt8__detail10_Hash_nodeISt4pairIKiiELb0EE7_M_nextEv
	movl	%eax, %edx
	movl	-28(%ebp), %eax
	movl	%ebx, 8(%esp)
	movl	%edx, 4(%esp)
	movl	8(%ebp), %edx
	movl	%edx, (%esp)
	movl	%eax, %ecx
	call	__ZNSt10_HashtableIiSt4pairIKiiESaIS2_ENSt8__detail10_Select1stESt8equal_toIiESt4hashIiENS4_18_Mod_range_hashingENS4_20_Default_ranged_hashENS4_20_Prime_rehash_policyENS4_17_Hashtable_traitsILb0ELb0ELb1EEEE22_M_remove_bucket_beginEjPNS4_10_Hash_nodeIS2_Lb0EEEj
	subl	$12, %esp
	jmp	L456
L453:
	movl	16(%ebp), %eax
	movl	(%eax), %eax
	testl	%eax, %eax
	je	L456
	movl	16(%ebp), %eax
	movl	%eax, %ecx
	call	__ZNKSt8__detail10_Hash_nodeISt4pairIKiiELb0EE7_M_nextEv
	movl	%eax, %edx
	movl	-28(%ebp), %eax
	movl	%edx, (%esp)
	movl	%eax, %ecx
	call	__ZNKSt10_HashtableIiSt4pairIKiiESaIS2_ENSt8__detail10_Select1stESt8equal_toIiESt4hashIiENS4_18_Mod_range_hashingENS4_20_Default_ranged_hashENS4_20_Prime_rehash_policyENS4_17_Hashtable_traitsILb0ELb0ELb1EEEE15_M_bucket_indexEPNS4_10_Hash_nodeIS2_Lb0EEE
	subl	$4, %esp
	movl	%eax, -12(%ebp)
	movl	-12(%ebp), %eax
	cmpl	8(%ebp), %eax
	je	L456
	movl	-28(%ebp), %eax
	movl	(%eax), %eax
	movl	-12(%ebp), %edx
	sall	$2, %edx
	addl	%eax, %edx
	movl	12(%ebp), %eax
	movl	%eax, (%edx)
L456:
	movl	16(%ebp), %eax
	movl	(%eax), %edx
	movl	12(%ebp), %eax
	movl	%edx, (%eax)
	movl	16(%ebp), %eax
	movl	%eax, %ecx
	call	__ZNKSt8__detail10_Hash_nodeISt4pairIKiiELb0EE7_M_nextEv
	movl	%eax, %edx
	leal	-16(%ebp), %eax
	movl	%edx, (%esp)
	movl	%eax, %ecx
	call	__ZNSt8__detail14_Node_iteratorISt4pairIKiiELb0ELb0EEC1EPNS_10_Hash_nodeIS3_Lb0EEE
	subl	$4, %esp
	movl	-28(%ebp), %eax
	movl	16(%ebp), %edx
	movl	%edx, (%esp)
	movl	%eax, %ecx
	call	__ZNSt8__detail16_Hashtable_allocISaINS_10_Hash_nodeISt4pairIKiiELb0EEEEE18_M_deallocate_nodeEPS5_
	subl	$4, %esp
	movl	-28(%ebp), %eax
	movl	12(%eax), %eax
	leal	-1(%eax), %edx
	movl	-28(%ebp), %eax
	movl	%edx, 12(%eax)
	movl	-16(%ebp), %eax
	movl	-4(%ebp), %ebx
	leave
	.cfi_restore 5
	.cfi_restore 3
	.cfi_def_cfa 4, 4
	ret	$12
	.cfi_endproc
LFE4366:
	.section	.text$_ZNSt7__cxx1110_List_baseIiSaIiEE11_M_get_nodeEv,"x"
	.linkonce discard
	.align 2
	.globl	__ZNSt7__cxx1110_List_baseIiSaIiEE11_M_get_nodeEv
	.def	__ZNSt7__cxx1110_List_baseIiSaIiEE11_M_get_nodeEv;	.scl	2;	.type	32;	.endef
__ZNSt7__cxx1110_List_baseIiSaIiEE11_M_get_nodeEv:
LFB4367:
	.cfi_startproc
	pushl	%ebp
	.cfi_def_cfa_offset 8
	.cfi_offset 5, -8
	movl	%esp, %ebp
	.cfi_def_cfa_register 5
	subl	$40, %esp
	movl	%ecx, -12(%ebp)
	movl	-12(%ebp), %eax
	movl	$1, 4(%esp)
	movl	%eax, (%esp)
	call	__ZNSt16allocator_traitsISaISt10_List_nodeIiEEE8allocateERS2_j
	leave
	.cfi_restore 5
	.cfi_def_cfa 4, 4
	ret
	.cfi_endproc
LFE4367:
	.section	.text$_ZNSt15__allocated_ptrISaISt10_List_nodeIiEEEC1ERS2_PS1_,"x"
	.linkonce discard
	.align 2
	.globl	__ZNSt15__allocated_ptrISaISt10_List_nodeIiEEEC1ERS2_PS1_
	.def	__ZNSt15__allocated_ptrISaISt10_List_nodeIiEEEC1ERS2_PS1_;	.scl	2;	.type	32;	.endef
__ZNSt15__allocated_ptrISaISt10_List_nodeIiEEEC1ERS2_PS1_:
LFB4370:
	.cfi_startproc
	pushl	%ebp
	.cfi_def_cfa_offset 8
	.cfi_offset 5, -8
	movl	%esp, %ebp
	.cfi_def_cfa_register 5
	subl	$40, %esp
	movl	%ecx, -12(%ebp)
	movl	8(%ebp), %eax
	movl	%eax, (%esp)
	call	__ZSt11__addressofISaISt10_List_nodeIiEEEPT_RS3_
	movl	-12(%ebp), %edx
	movl	%eax, (%edx)
	movl	-12(%ebp), %eax
	movl	12(%ebp), %edx
	movl	%edx, 4(%eax)
	nop
	leave
	.cfi_restore 5
	.cfi_def_cfa 4, 4
	ret	$8
	.cfi_endproc
LFE4370:
	.section	.text$_ZNSt15__allocated_ptrISaISt10_List_nodeIiEEED1Ev,"x"
	.linkonce discard
	.align 2
	.globl	__ZNSt15__allocated_ptrISaISt10_List_nodeIiEEED1Ev
	.def	__ZNSt15__allocated_ptrISaISt10_List_nodeIiEEED1Ev;	.scl	2;	.type	32;	.endef
__ZNSt15__allocated_ptrISaISt10_List_nodeIiEEED1Ev:
LFB4373:
	.cfi_startproc
	pushl	%ebp
	.cfi_def_cfa_offset 8
	.cfi_offset 5, -8
	movl	%esp, %ebp
	.cfi_def_cfa_register 5
	subl	$40, %esp
	movl	%ecx, -12(%ebp)
	movl	-12(%ebp), %eax
	movl	4(%eax), %eax
	testl	%eax, %eax
	je	L463
	movl	-12(%ebp), %eax
	movl	4(%eax), %edx
	movl	-12(%ebp), %eax
	movl	(%eax), %eax
	movl	$1, 8(%esp)
	movl	%edx, 4(%esp)
	movl	%eax, (%esp)
	call	__ZNSt16allocator_traitsISaISt10_List_nodeIiEEE10deallocateERS2_PS1_j
L463:
	nop
	leave
	.cfi_restore 5
	.cfi_def_cfa 4, 4
	ret
	.cfi_endproc
LFE4373:
	.section	.text$_ZNSt16allocator_traitsISaISt10_List_nodeIiEEE9constructIiJRKiEEEvRS2_PT_DpOT0_,"x"
	.linkonce discard
	.globl	__ZNSt16allocator_traitsISaISt10_List_nodeIiEEE9constructIiJRKiEEEvRS2_PT_DpOT0_
	.def	__ZNSt16allocator_traitsISaISt10_List_nodeIiEEE9constructIiJRKiEEEvRS2_PT_DpOT0_;	.scl	2;	.type	32;	.endef
__ZNSt16allocator_traitsISaISt10_List_nodeIiEEE9constructIiJRKiEEEvRS2_PT_DpOT0_:
LFB4374:
	.cfi_startproc
	pushl	%ebp
	.cfi_def_cfa_offset 8
	.cfi_offset 5, -8
	movl	%esp, %ebp
	.cfi_def_cfa_register 5
	subl	$24, %esp
	movl	16(%ebp), %eax
	movl	%eax, (%esp)
	call	__ZSt7forwardIRKiEOT_RNSt16remove_referenceIS2_E4typeE
	movl	%eax, 4(%esp)
	movl	12(%ebp), %eax
	movl	%eax, (%esp)
	movl	8(%ebp), %ecx
	call	__ZN9__gnu_cxx13new_allocatorISt10_List_nodeIiEE9constructIiJRKiEEEvPT_DpOT0_
	subl	$8, %esp
	nop
	leave
	.cfi_restore 5
	.cfi_def_cfa 4, 4
	ret
	.cfi_endproc
LFE4374:
	.section	.text$_ZNSt15__allocated_ptrISaISt10_List_nodeIiEEEaSEDn,"x"
	.linkonce discard
	.align 2
	.globl	__ZNSt15__allocated_ptrISaISt10_List_nodeIiEEEaSEDn
	.def	__ZNSt15__allocated_ptrISaISt10_List_nodeIiEEEaSEDn;	.scl	2;	.type	32;	.endef
__ZNSt15__allocated_ptrISaISt10_List_nodeIiEEEaSEDn:
LFB4375:
	.cfi_startproc
	pushl	%ebp
	.cfi_def_cfa_offset 8
	.cfi_offset 5, -8
	movl	%esp, %ebp
	.cfi_def_cfa_register 5
	subl	$4, %esp
	movl	%ecx, -4(%ebp)
	movl	-4(%ebp), %eax
	movl	$0, 4(%eax)
	movl	-4(%ebp), %eax
	leave
	.cfi_restore 5
	.cfi_def_cfa 4, 4
	ret	$4
	.cfi_endproc
LFE4375:
	.section	.text$_ZNSt8__detail21_Hash_node_value_baseISt4pairIKiiEEC2Ev,"x"
	.linkonce discard
	.align 2
	.globl	__ZNSt8__detail21_Hash_node_value_baseISt4pairIKiiEEC2Ev
	.def	__ZNSt8__detail21_Hash_node_value_baseISt4pairIKiiEEC2Ev;	.scl	2;	.type	32;	.endef
__ZNSt8__detail21_Hash_node_value_baseISt4pairIKiiEEC2Ev:
LFB4379:
	.cfi_startproc
	pushl	%ebp
	.cfi_def_cfa_offset 8
	.cfi_offset 5, -8
	movl	%esp, %ebp
	.cfi_def_cfa_register 5
	subl	$24, %esp
	movl	%ecx, -12(%ebp)
	movl	-12(%ebp), %eax
	movl	%eax, %ecx
	call	__ZNSt8__detail15_Hash_node_baseC2Ev
	nop
	leave
	.cfi_restore 5
	.cfi_def_cfa 4, 4
	ret
	.cfi_endproc
LFE4379:
	.section	.text$_ZNSt8__detail10_Hash_nodeISt4pairIKiiELb0EEC1Ev,"x"
	.linkonce discard
	.align 2
	.globl	__ZNSt8__detail10_Hash_nodeISt4pairIKiiELb0EEC1Ev
	.def	__ZNSt8__detail10_Hash_nodeISt4pairIKiiELb0EEC1Ev;	.scl	2;	.type	32;	.endef
__ZNSt8__detail10_Hash_nodeISt4pairIKiiELb0EEC1Ev:
LFB4382:
	.cfi_startproc
	pushl	%ebp
	.cfi_def_cfa_offset 8
	.cfi_offset 5, -8
	movl	%esp, %ebp
	.cfi_def_cfa_register 5
	subl	$24, %esp
	movl	%ecx, -12(%ebp)
	movl	-12(%ebp), %eax
	movl	%eax, %ecx
	call	__ZNSt8__detail21_Hash_node_value_baseISt4pairIKiiEEC2Ev
	nop
	leave
	.cfi_restore 5
	.cfi_def_cfa 4, 4
	ret
	.cfi_endproc
LFE4382:
	.section	.text$_ZNSt8__detail16_Hashtable_allocISaINS_10_Hash_nodeISt4pairIKiiELb0EEEEE16_M_allocate_nodeIJS2_IiiEEEEPS5_DpOT_,"x"
	.linkonce discard
	.align 2
	.globl	__ZNSt8__detail16_Hashtable_allocISaINS_10_Hash_nodeISt4pairIKiiELb0EEEEE16_M_allocate_nodeIJS2_IiiEEEEPS5_DpOT_
	.def	__ZNSt8__detail16_Hashtable_allocISaINS_10_Hash_nodeISt4pairIKiiELb0EEEEE16_M_allocate_nodeIJS2_IiiEEEEPS5_DpOT_;	.scl	2;	.type	32;	.endef
__ZNSt8__detail16_Hashtable_allocISaINS_10_Hash_nodeISt4pairIKiiELb0EEEEE16_M_allocate_nodeIJS2_IiiEEEEPS5_DpOT_:
LFB4376:
	.cfi_startproc
	.cfi_personality 0,___gxx_personality_v0
	.cfi_lsda 0,LLSDA4376
	pushl	%ebp
	.cfi_def_cfa_offset 8
	.cfi_offset 5, -8
	movl	%esp, %ebp
	.cfi_def_cfa_register 5
	pushl	%esi
	pushl	%ebx
	subl	$48, %esp
	.cfi_offset 6, -12
	.cfi_offset 3, -16
	movl	%ecx, -28(%ebp)
	movl	-28(%ebp), %eax
	movl	%eax, %ecx
LEHB43:
	call	__ZNSt8__detail16_Hashtable_allocISaINS_10_Hash_nodeISt4pairIKiiELb0EEEEE17_M_node_allocatorEv
	movl	$1, 4(%esp)
	movl	%eax, (%esp)
	call	__ZNSt16allocator_traitsISaINSt8__detail10_Hash_nodeISt4pairIKiiELb0EEEEE8allocateERS6_j
LEHE43:
	movl	%eax, -12(%ebp)
	movl	-12(%ebp), %eax
	movl	%eax, (%esp)
	call	__ZSt12__to_addressINSt8__detail10_Hash_nodeISt4pairIKiiELb0EEEEPT_S7_
	movl	%eax, -16(%ebp)
	movl	-16(%ebp), %eax
	movl	%eax, 4(%esp)
	movl	$12, (%esp)
	call	__ZnwjPv
	movl	%eax, %ecx
	call	__ZNSt8__detail10_Hash_nodeISt4pairIKiiELb0EEC1Ev
	movl	8(%ebp), %eax
	movl	%eax, (%esp)
	call	__ZSt7forwardISt4pairIiiEEOT_RNSt16remove_referenceIS2_E4typeE
	movl	%eax, %esi
	movl	-16(%ebp), %eax
	movl	%eax, %ecx
	call	__ZNSt8__detail21_Hash_node_value_baseISt4pairIKiiEE9_M_valptrEv
	movl	%eax, %ebx
	movl	-28(%ebp), %eax
	movl	%eax, %ecx
LEHB44:
	call	__ZNSt8__detail16_Hashtable_allocISaINS_10_Hash_nodeISt4pairIKiiELb0EEEEE17_M_node_allocatorEv
	movl	%esi, 8(%esp)
	movl	%ebx, 4(%esp)
	movl	%eax, (%esp)
	call	__ZNSt16allocator_traitsISaINSt8__detail10_Hash_nodeISt4pairIKiiELb0EEEEE9constructIS4_JS2_IiiEEEEvRS6_PT_DpOT0_
LEHE44:
	movl	-16(%ebp), %eax
	jmp	L475
L473:
	movl	%eax, (%esp)
	call	___cxa_begin_catch
	movl	-28(%ebp), %eax
	movl	%eax, %ecx
LEHB45:
	call	__ZNSt8__detail16_Hashtable_allocISaINS_10_Hash_nodeISt4pairIKiiELb0EEEEE17_M_node_allocatorEv
	movl	$1, 8(%esp)
	movl	-12(%ebp), %edx
	movl	%edx, 4(%esp)
	movl	%eax, (%esp)
	call	__ZNSt16allocator_traitsISaINSt8__detail10_Hash_nodeISt4pairIKiiELb0EEEEE10deallocateERS6_PS5_j
	call	___cxa_rethrow
LEHE45:
L474:
	movl	%eax, %ebx
	call	___cxa_end_catch
	movl	%ebx, %eax
	movl	%eax, (%esp)
LEHB46:
	call	__Unwind_Resume
LEHE46:
L475:
	addl	$48, %esp
	popl	%ebx
	.cfi_restore 3
	popl	%esi
	.cfi_restore 6
	popl	%ebp
	.cfi_restore 5
	.cfi_def_cfa 4, 4
	ret	$4
	.cfi_endproc
LFE4376:
	.section	.gcc_except_table,"w"
	.align 4
LLSDA4376:
	.byte	0xff
	.byte	0
	.uleb128 LLSDATT4376-LLSDATTD4376
LLSDATTD4376:
	.byte	0x1
	.uleb128 LLSDACSE4376-LLSDACSB4376
LLSDACSB4376:
	.uleb128 LEHB43-LFB4376
	.uleb128 LEHE43-LEHB43
	.uleb128 0
	.uleb128 0
	.uleb128 LEHB44-LFB4376
	.uleb128 LEHE44-LEHB44
	.uleb128 L473-LFB4376
	.uleb128 0x1
	.uleb128 LEHB45-LFB4376
	.uleb128 LEHE45-LEHB45
	.uleb128 L474-LFB4376
	.uleb128 0
	.uleb128 LEHB46-LFB4376
	.uleb128 LEHE46-LEHB46
	.uleb128 0
	.uleb128 0
LLSDACSE4376:
	.byte	0x1
	.byte	0
	.align 4
	.long	0
LLSDATT4376:
	.section	.text$_ZNSt8__detail16_Hashtable_allocISaINS_10_Hash_nodeISt4pairIKiiELb0EEEEE16_M_allocate_nodeIJS2_IiiEEEEPS5_DpOT_,"x"
	.linkonce discard
	.section	.text$_ZNSt8__detail15_Hash_code_baseIiSt4pairIKiiENS_10_Select1stESt4hashIiENS_18_Mod_range_hashingENS_20_Default_ranged_hashELb0EE10_M_extractEv,"x"
	.linkonce discard
	.align 2
	.globl	__ZNSt8__detail15_Hash_code_baseIiSt4pairIKiiENS_10_Select1stESt4hashIiENS_18_Mod_range_hashingENS_20_Default_ranged_hashELb0EE10_M_extractEv
	.def	__ZNSt8__detail15_Hash_code_baseIiSt4pairIKiiENS_10_Select1stESt4hashIiENS_18_Mod_range_hashingENS_20_Default_ranged_hashELb0EE10_M_extractEv;	.scl	2;	.type	32;	.endef
__ZNSt8__detail15_Hash_code_baseIiSt4pairIKiiENS_10_Select1stESt4hashIiENS_18_Mod_range_hashingENS_20_Default_ranged_hashELb0EE10_M_extractEv:
LFB4383:
	.cfi_startproc
	pushl	%ebp
	.cfi_def_cfa_offset 8
	.cfi_offset 5, -8
	movl	%esp, %ebp
	.cfi_def_cfa_register 5
	subl	$40, %esp
	movl	%ecx, -12(%ebp)
	movl	-12(%ebp), %eax
	movl	%eax, (%esp)
	call	__ZNSt8__detail21_Hashtable_ebo_helperILi0ENS_10_Select1stELb1EE6_S_getERS2_
	leave
	.cfi_restore 5
	.cfi_def_cfa 4, 4
	ret
	.cfi_endproc
LFE4383:
	.section	.text$_ZNSt8__detail21_Hash_node_value_baseISt4pairIKiiEE4_M_vEv,"x"
	.linkonce discard
	.align 2
	.globl	__ZNSt8__detail21_Hash_node_value_baseISt4pairIKiiEE4_M_vEv
	.def	__ZNSt8__detail21_Hash_node_value_baseISt4pairIKiiEE4_M_vEv;	.scl	2;	.type	32;	.endef
__ZNSt8__detail21_Hash_node_value_baseISt4pairIKiiEE4_M_vEv:
LFB4384:
	.cfi_startproc
	pushl	%ebp
	.cfi_def_cfa_offset 8
	.cfi_offset 5, -8
	movl	%esp, %ebp
	.cfi_def_cfa_register 5
	subl	$24, %esp
	movl	%ecx, -12(%ebp)
	movl	-12(%ebp), %eax
	movl	%eax, %ecx
	call	__ZNSt8__detail21_Hash_node_value_baseISt4pairIKiiEE9_M_valptrEv
	leave
	.cfi_restore 5
	.cfi_def_cfa 4, 4
	ret
	.cfi_endproc
LFE4384:
	.section	.text$_ZNKSt8__detail10_Select1stclIRSt4pairIKiiEEEDTcl3getILi0EEcl7forwardIT_Efp_EEEOS6_,"x"
	.linkonce discard
	.align 2
	.globl	__ZNKSt8__detail10_Select1stclIRSt4pairIKiiEEEDTcl3getILi0EEcl7forwardIT_Efp_EEEOS6_
	.def	__ZNKSt8__detail10_Select1stclIRSt4pairIKiiEEEDTcl3getILi0EEcl7forwardIT_Efp_EEEOS6_;	.scl	2;	.type	32;	.endef
__ZNKSt8__detail10_Select1stclIRSt4pairIKiiEEEDTcl3getILi0EEcl7forwardIT_Efp_EEEOS6_:
LFB4385:
	.cfi_startproc
	pushl	%ebp
	.cfi_def_cfa_offset 8
	.cfi_offset 5, -8
	movl	%esp, %ebp
	.cfi_def_cfa_register 5
	subl	$40, %esp
	movl	%ecx, -12(%ebp)
	movl	8(%ebp), %eax
	movl	%eax, (%esp)
	call	__ZSt7forwardIRSt4pairIKiiEEOT_RNSt16remove_referenceIS4_E4typeE
	movl	%eax, (%esp)
	call	__ZSt3getILj0EKiiERNSt13tuple_elementIXT_ESt4pairIT0_T1_EE4typeERS5_
	leave
	.cfi_restore 5
	.cfi_def_cfa 4, 4
	ret	$4
	.cfi_endproc
LFE4385:
	.section	.text$_ZSt9make_pairINSt8__detail14_Node_iteratorISt4pairIKiiELb0ELb0EEEbES2_INSt17__decay_and_stripIT_E6__typeENS6_IT0_E6__typeEEOS7_OSA_,"x"
	.linkonce discard
	.globl	__ZSt9make_pairINSt8__detail14_Node_iteratorISt4pairIKiiELb0ELb0EEEbES2_INSt17__decay_and_stripIT_E6__typeENS6_IT0_E6__typeEEOS7_OSA_
	.def	__ZSt9make_pairINSt8__detail14_Node_iteratorISt4pairIKiiELb0ELb0EEEbES2_INSt17__decay_and_stripIT_E6__typeENS6_IT0_E6__typeEEOS7_OSA_;	.scl	2;	.type	32;	.endef
__ZSt9make_pairINSt8__detail14_Node_iteratorISt4pairIKiiELb0ELb0EEEbES2_INSt17__decay_and_stripIT_E6__typeENS6_IT0_E6__typeEEOS7_OSA_:
LFB4386:
	.cfi_startproc
	pushl	%ebp
	.cfi_def_cfa_offset 8
	.cfi_offset 5, -8
	movl	%esp, %ebp
	.cfi_def_cfa_register 5
	pushl	%ebx
	subl	$36, %esp
	.cfi_offset 3, -12
	movl	12(%ebp), %eax
	movl	%eax, (%esp)
	call	__ZSt7forwardIbEOT_RNSt16remove_referenceIS0_E4typeE
	movl	%eax, %ebx
	movl	8(%ebp), %eax
	movl	%eax, (%esp)
	call	__ZSt7forwardINSt8__detail14_Node_iteratorISt4pairIKiiELb0ELb0EEEEOT_RNSt16remove_referenceIS6_E4typeE
	movl	%eax, %edx
	leal	-16(%ebp), %eax
	movl	%ebx, 4(%esp)
	movl	%edx, (%esp)
	movl	%eax, %ecx
	call	__ZNSt4pairINSt8__detail14_Node_iteratorIS_IKiiELb0ELb0EEEbEC1IS4_bLb1EEEOT_OT0_
	subl	$8, %esp
	movl	-16(%ebp), %eax
	movl	-12(%ebp), %edx
	movl	-4(%ebp), %ebx
	leave
	.cfi_restore 5
	.cfi_restore 3
	.cfi_def_cfa 4, 4
	ret
	.cfi_endproc
LFE4386:
	.section	.text$_ZNSt10_HashtableIiSt4pairIKiiESaIS2_ENSt8__detail10_Select1stESt8equal_toIiESt4hashIiENS4_18_Mod_range_hashingENS4_20_Default_ranged_hashENS4_20_Prime_rehash_policyENS4_17_Hashtable_traitsILb0ELb0ELb1EEEE21_M_insert_unique_nodeEjjPNS4_10_Hash_nodeIS2_Lb0EEEj,"x"
	.linkonce discard
	.align 2
	.globl	__ZNSt10_HashtableIiSt4pairIKiiESaIS2_ENSt8__detail10_Select1stESt8equal_toIiESt4hashIiENS4_18_Mod_range_hashingENS4_20_Default_ranged_hashENS4_20_Prime_rehash_policyENS4_17_Hashtable_traitsILb0ELb0ELb1EEEE21_M_insert_unique_nodeEjjPNS4_10_Hash_nodeIS2_Lb0EEEj
	.def	__ZNSt10_HashtableIiSt4pairIKiiESaIS2_ENSt8__detail10_Select1stESt8equal_toIiESt4hashIiENS4_18_Mod_range_hashingENS4_20_Default_ranged_hashENS4_20_Prime_rehash_policyENS4_17_Hashtable_traitsILb0ELb0ELb1EEEE21_M_insert_unique_nodeEjjPNS4_10_Hash_nodeIS2_Lb0EEEj;	.scl	2;	.type	32;	.endef
__ZNSt10_HashtableIiSt4pairIKiiESaIS2_ENSt8__detail10_Select1stESt8equal_toIiESt4hashIiENS4_18_Mod_range_hashingENS4_20_Default_ranged_hashENS4_20_Prime_rehash_policyENS4_17_Hashtable_traitsILb0ELb0ELb1EEEE21_M_insert_unique_nodeEjjPNS4_10_Hash_nodeIS2_Lb0EEEj:
LFB4395:
	.cfi_startproc
	.cfi_personality 0,___gxx_personality_v0
	.cfi_lsda 0,LLSDA4395
	pushl	%ebp
	.cfi_def_cfa_offset 8
	.cfi_offset 5, -8
	movl	%esp, %ebp
	.cfi_def_cfa_register 5
	pushl	%ebx
	subl	$68, %esp
	.cfi_offset 3, -12
	movl	%ecx, -44(%ebp)
	movl	-44(%ebp), %eax
	addl	$16, %eax
	movl	%eax, %ecx
	call	__ZNKSt8__detail20_Prime_rehash_policy8_M_stateEv
	movl	%eax, -20(%ebp)
	leal	-20(%ebp), %eax
	movl	%eax, -12(%ebp)
	movl	-44(%ebp), %eax
	addl	$16, %eax
	movl	-44(%ebp), %edx
	movl	12(%edx), %ecx
	movl	-44(%ebp), %edx
	movl	4(%edx), %edx
	movl	20(%ebp), %ebx
	movl	%ebx, 8(%esp)
	movl	%ecx, 4(%esp)
	movl	%edx, (%esp)
	movl	%eax, %ecx
LEHB47:
	call	__ZNKSt8__detail20_Prime_rehash_policy14_M_need_rehashEjjj
LEHE47:
	subl	$12, %esp
	movl	%eax, -28(%ebp)
	movl	%edx, -24(%ebp)
	movzbl	-28(%ebp), %eax
	testb	%al, %al
	je	L485
	movl	-24(%ebp), %edx
	movl	-44(%ebp), %eax
	movl	-12(%ebp), %ecx
	movl	%ecx, 4(%esp)
	movl	%edx, (%esp)
	movl	%eax, %ecx
LEHB48:
	call	__ZNSt10_HashtableIiSt4pairIKiiESaIS2_ENSt8__detail10_Select1stESt8equal_toIiESt4hashIiENS4_18_Mod_range_hashingENS4_20_Default_ranged_hashENS4_20_Prime_rehash_policyENS4_17_Hashtable_traitsILb0ELb0ELb1EEEE9_M_rehashEjRKj
	subl	$8, %esp
	movl	-44(%ebp), %eax
	movl	%eax, %ecx
	call	__ZNSt8__detail15_Hash_code_baseIiSt4pairIKiiENS_10_Select1stESt4hashIiENS_18_Mod_range_hashingENS_20_Default_ranged_hashELb0EE10_M_extractEv
	movl	%eax, %ebx
	movl	16(%ebp), %eax
	movl	%eax, %ecx
	call	__ZNSt8__detail21_Hash_node_value_baseISt4pairIKiiEE4_M_vEv
	movl	%eax, (%esp)
	movl	%ebx, %ecx
	call	__ZNKSt8__detail10_Select1stclIRSt4pairIKiiEEEDTcl3getILi0EEcl7forwardIT_Efp_EEEOS6_
	subl	$4, %esp
	movl	%eax, %edx
	movl	-44(%ebp), %eax
	movl	12(%ebp), %ecx
	movl	%ecx, 4(%esp)
	movl	%edx, (%esp)
	movl	%eax, %ecx
	call	__ZNKSt10_HashtableIiSt4pairIKiiESaIS2_ENSt8__detail10_Select1stESt8equal_toIiESt4hashIiENS4_18_Mod_range_hashingENS4_20_Default_ranged_hashENS4_20_Prime_rehash_policyENS4_17_Hashtable_traitsILb0ELb0ELb1EEEE15_M_bucket_indexERS1_j
LEHE48:
	subl	$8, %esp
	movl	%eax, 8(%ebp)
L485:
	movl	-44(%ebp), %eax
	movl	12(%ebp), %edx
	movl	%edx, 4(%esp)
	movl	16(%ebp), %edx
	movl	%edx, (%esp)
	movl	%eax, %ecx
	call	__ZNKSt8__detail15_Hash_code_baseIiSt4pairIKiiENS_10_Select1stESt4hashIiENS_18_Mod_range_hashingENS_20_Default_ranged_hashELb0EE13_M_store_codeEPNS_10_Hash_nodeIS3_Lb0EEEj
	subl	$8, %esp
	movl	-44(%ebp), %eax
	movl	16(%ebp), %edx
	movl	%edx, 4(%esp)
	movl	8(%ebp), %edx
	movl	%edx, (%esp)
	movl	%eax, %ecx
	call	__ZNSt10_HashtableIiSt4pairIKiiESaIS2_ENSt8__detail10_Select1stESt8equal_toIiESt4hashIiENS4_18_Mod_range_hashingENS4_20_Default_ranged_hashENS4_20_Prime_rehash_policyENS4_17_Hashtable_traitsILb0ELb0ELb1EEEE22_M_insert_bucket_beginEjPNS4_10_Hash_nodeIS2_Lb0EEE
	subl	$8, %esp
	movl	-44(%ebp), %eax
	movl	12(%eax), %eax
	leal	1(%eax), %edx
	movl	-44(%ebp), %eax
	movl	%edx, 12(%eax)
	leal	-16(%ebp), %eax
	movl	16(%ebp), %edx
	movl	%edx, (%esp)
	movl	%eax, %ecx
	call	__ZNSt8__detail14_Node_iteratorISt4pairIKiiELb0ELb0EEC1EPNS_10_Hash_nodeIS3_Lb0EEE
	subl	$4, %esp
	movl	-16(%ebp), %eax
	jmp	L491
L489:
	movl	%eax, (%esp)
	call	___cxa_begin_catch
	movl	-44(%ebp), %eax
	movl	16(%ebp), %edx
	movl	%edx, (%esp)
	movl	%eax, %ecx
LEHB49:
	call	__ZNSt8__detail16_Hashtable_allocISaINS_10_Hash_nodeISt4pairIKiiELb0EEEEE18_M_deallocate_nodeEPS5_
	subl	$4, %esp
	call	___cxa_rethrow
LEHE49:
L490:
	movl	%eax, %ebx
	call	___cxa_end_catch
	movl	%ebx, %eax
	movl	%eax, (%esp)
LEHB50:
	call	__Unwind_Resume
LEHE50:
L491:
	movl	-4(%ebp), %ebx
	leave
	.cfi_restore 5
	.cfi_restore 3
	.cfi_def_cfa 4, 4
	ret	$16
	.cfi_endproc
LFE4395:
	.section	.gcc_except_table,"w"
	.align 4
LLSDA4395:
	.byte	0xff
	.byte	0
	.uleb128 LLSDATT4395-LLSDATTD4395
LLSDATTD4395:
	.byte	0x1
	.uleb128 LLSDACSE4395-LLSDACSB4395
LLSDACSB4395:
	.uleb128 LEHB47-LFB4395
	.uleb128 LEHE47-LEHB47
	.uleb128 0
	.uleb128 0
	.uleb128 LEHB48-LFB4395
	.uleb128 LEHE48-LEHB48
	.uleb128 L489-LFB4395
	.uleb128 0x1
	.uleb128 LEHB49-LFB4395
	.uleb128 LEHE49-LEHB49
	.uleb128 L490-LFB4395
	.uleb128 0
	.uleb128 LEHB50-LFB4395
	.uleb128 LEHE50-LEHB50
	.uleb128 0
	.uleb128 0
LLSDACSE4395:
	.byte	0x1
	.byte	0
	.align 4
	.long	0
LLSDATT4395:
	.section	.text$_ZNSt10_HashtableIiSt4pairIKiiESaIS2_ENSt8__detail10_Select1stESt8equal_toIiESt4hashIiENS4_18_Mod_range_hashingENS4_20_Default_ranged_hashENS4_20_Prime_rehash_policyENS4_17_Hashtable_traitsILb0ELb0ELb1EEEE21_M_insert_unique_nodeEjjPNS4_10_Hash_nodeIS2_Lb0EEEj,"x"
	.linkonce discard
	.section	.text$_ZNK9__gnu_cxx13new_allocatorI5blockE8max_sizeEv,"x"
	.linkonce discard
	.align 2
	.globl	__ZNK9__gnu_cxx13new_allocatorI5blockE8max_sizeEv
	.def	__ZNK9__gnu_cxx13new_allocatorI5blockE8max_sizeEv;	.scl	2;	.type	32;	.endef
__ZNK9__gnu_cxx13new_allocatorI5blockE8max_sizeEv:
LFB4425:
	.cfi_startproc
	pushl	%ebp
	.cfi_def_cfa_offset 8
	.cfi_offset 5, -8
	movl	%esp, %ebp
	.cfi_def_cfa_register 5
	subl	$4, %esp
	movl	%ecx, -4(%ebp)
	movl	$134217727, %eax
	leave
	.cfi_restore 5
	.cfi_def_cfa 4, 4
	ret
	.cfi_endproc
LFE4425:
	.section	.text$_ZNSt16allocator_traitsISaI5blockEE8allocateERS1_j,"x"
	.linkonce discard
	.globl	__ZNSt16allocator_traitsISaI5blockEE8allocateERS1_j
	.def	__ZNSt16allocator_traitsISaI5blockEE8allocateERS1_j;	.scl	2;	.type	32;	.endef
__ZNSt16allocator_traitsISaI5blockEE8allocateERS1_j:
LFB4426:
	.cfi_startproc
	pushl	%ebp
	.cfi_def_cfa_offset 8
	.cfi_offset 5, -8
	movl	%esp, %ebp
	.cfi_def_cfa_register 5
	subl	$24, %esp
	movl	$0, 4(%esp)
	movl	12(%ebp), %eax
	movl	%eax, (%esp)
	movl	8(%ebp), %ecx
	call	__ZN9__gnu_cxx13new_allocatorI5blockE8allocateEjPKv
	subl	$8, %esp
	leave
	.cfi_restore 5
	.cfi_def_cfa 4, 4
	ret
	.cfi_endproc
LFE4426:
	.section	.text$_ZN9__gnu_cxx13new_allocatorI5blockE10deallocateEPS1_j,"x"
	.linkonce discard
	.align 2
	.globl	__ZN9__gnu_cxx13new_allocatorI5blockE10deallocateEPS1_j
	.def	__ZN9__gnu_cxx13new_allocatorI5blockE10deallocateEPS1_j;	.scl	2;	.type	32;	.endef
__ZN9__gnu_cxx13new_allocatorI5blockE10deallocateEPS1_j:
LFB4427:
	.cfi_startproc
	pushl	%ebp
	.cfi_def_cfa_offset 8
	.cfi_offset 5, -8
	movl	%esp, %ebp
	.cfi_def_cfa_register 5
	subl	$40, %esp
	movl	%ecx, -12(%ebp)
	movl	8(%ebp), %eax
	movl	%eax, (%esp)
	call	__ZdlPv
	nop
	leave
	.cfi_restore 5
	.cfi_def_cfa 4, 4
	ret	$8
	.cfi_endproc
LFE4427:
	.section	.text$_ZNSt22__uninitialized_fill_nILb0EE15__uninit_fill_nIP5blockjS2_EET_S4_T0_RKT1_,"x"
	.linkonce discard
	.globl	__ZNSt22__uninitialized_fill_nILb0EE15__uninit_fill_nIP5blockjS2_EET_S4_T0_RKT1_
	.def	__ZNSt22__uninitialized_fill_nILb0EE15__uninit_fill_nIP5blockjS2_EET_S4_T0_RKT1_;	.scl	2;	.type	32;	.endef
__ZNSt22__uninitialized_fill_nILb0EE15__uninit_fill_nIP5blockjS2_EET_S4_T0_RKT1_:
LFB4428:
	.cfi_startproc
	pushl	%ebp
	.cfi_def_cfa_offset 8
	.cfi_offset 5, -8
	movl	%esp, %ebp
	.cfi_def_cfa_register 5
	subl	$40, %esp
	movl	8(%ebp), %eax
	movl	%eax, -12(%ebp)
L499:
	cmpl	$0, 12(%ebp)
	je	L498
	movl	-12(%ebp), %eax
	movl	%eax, (%esp)
	call	__ZSt11__addressofI5blockEPT_RS1_
	movl	16(%ebp), %edx
	movl	%edx, 4(%esp)
	movl	%eax, (%esp)
	call	__ZSt10_ConstructI5blockJRKS0_EEvPT_DpOT0_
	subl	$1, 12(%ebp)
	addl	$16, -12(%ebp)
	jmp	L499
L498:
	movl	-12(%ebp), %eax
	leave
	.cfi_restore 5
	.cfi_def_cfa 4, 4
	ret
	.cfi_endproc
LFE4428:
	.section	.text$_ZSt11__addressofI5blockEPT_RS1_,"x"
	.linkonce discard
	.globl	__ZSt11__addressofI5blockEPT_RS1_
	.def	__ZSt11__addressofI5blockEPT_RS1_;	.scl	2;	.type	32;	.endef
__ZSt11__addressofI5blockEPT_RS1_:
LFB4429:
	.cfi_startproc
	pushl	%ebp
	.cfi_def_cfa_offset 8
	.cfi_offset 5, -8
	movl	%esp, %ebp
	.cfi_def_cfa_register 5
	movl	8(%ebp), %eax
	popl	%ebp
	.cfi_restore 5
	.cfi_def_cfa 4, 4
	ret
	.cfi_endproc
LFE4429:
	.section	.text$_ZSt8_DestroyI5blockEvPT_,"x"
	.linkonce discard
	.globl	__ZSt8_DestroyI5blockEvPT_
	.def	__ZSt8_DestroyI5blockEvPT_;	.scl	2;	.type	32;	.endef
__ZSt8_DestroyI5blockEvPT_:
LFB4430:
	.cfi_startproc
	pushl	%ebp
	.cfi_def_cfa_offset 8
	.cfi_offset 5, -8
	movl	%esp, %ebp
	.cfi_def_cfa_register 5
	subl	$8, %esp
	movl	8(%ebp), %ecx
	call	__ZN5blockD1Ev
	nop
	leave
	.cfi_restore 5
	.cfi_def_cfa 4, 4
	ret
	.cfi_endproc
LFE4430:
	.section	.text$_ZNSt8__detail16_Hashtable_allocISaINS_10_Hash_nodeISt4pairIKiiELb0EEEEE17_M_node_allocatorEv,"x"
	.linkonce discard
	.align 2
	.globl	__ZNSt8__detail16_Hashtable_allocISaINS_10_Hash_nodeISt4pairIKiiELb0EEEEE17_M_node_allocatorEv
	.def	__ZNSt8__detail16_Hashtable_allocISaINS_10_Hash_nodeISt4pairIKiiELb0EEEEE17_M_node_allocatorEv;	.scl	2;	.type	32;	.endef
__ZNSt8__detail16_Hashtable_allocISaINS_10_Hash_nodeISt4pairIKiiELb0EEEEE17_M_node_allocatorEv:
LFB4431:
	.cfi_startproc
	pushl	%ebp
	.cfi_def_cfa_offset 8
	.cfi_offset 5, -8
	movl	%esp, %ebp
	.cfi_def_cfa_register 5
	subl	$40, %esp
	movl	%ecx, -12(%ebp)
	movl	-12(%ebp), %eax
	movl	%eax, (%esp)
	call	__ZNSt8__detail21_Hashtable_ebo_helperILi0ESaINS_10_Hash_nodeISt4pairIKiiELb0EEEELb1EE6_S_getERS7_
	leave
	.cfi_restore 5
	.cfi_def_cfa 4, 4
	ret
	.cfi_endproc
LFE4431:
	.section	.text$_ZNSt16allocator_traitsISaINSt8__detail10_Hash_nodeISt4pairIKiiELb0EEEEE7destroyIS4_EEvRS6_PT_,"x"
	.linkonce discard
	.globl	__ZNSt16allocator_traitsISaINSt8__detail10_Hash_nodeISt4pairIKiiELb0EEEEE7destroyIS4_EEvRS6_PT_
	.def	__ZNSt16allocator_traitsISaINSt8__detail10_Hash_nodeISt4pairIKiiELb0EEEEE7destroyIS4_EEvRS6_PT_;	.scl	2;	.type	32;	.endef
__ZNSt16allocator_traitsISaINSt8__detail10_Hash_nodeISt4pairIKiiELb0EEEEE7destroyIS4_EEvRS6_PT_:
LFB4432:
	.cfi_startproc
	pushl	%ebp
	.cfi_def_cfa_offset 8
	.cfi_offset 5, -8
	movl	%esp, %ebp
	.cfi_def_cfa_register 5
	subl	$24, %esp
	movl	12(%ebp), %eax
	movl	%eax, (%esp)
	movl	8(%ebp), %ecx
	call	__ZN9__gnu_cxx13new_allocatorINSt8__detail10_Hash_nodeISt4pairIKiiELb0EEEE7destroyIS5_EEvPT_
	subl	$4, %esp
	nop
	leave
	.cfi_restore 5
	.cfi_def_cfa 4, 4
	ret
	.cfi_endproc
LFE4432:
	.section	.text$_ZNSt8__detail16_Hashtable_allocISaINS_10_Hash_nodeISt4pairIKiiELb0EEEEE22_M_deallocate_node_ptrEPS5_,"x"
	.linkonce discard
	.align 2
	.globl	__ZNSt8__detail16_Hashtable_allocISaINS_10_Hash_nodeISt4pairIKiiELb0EEEEE22_M_deallocate_node_ptrEPS5_
	.def	__ZNSt8__detail16_Hashtable_allocISaINS_10_Hash_nodeISt4pairIKiiELb0EEEEE22_M_deallocate_node_ptrEPS5_;	.scl	2;	.type	32;	.endef
__ZNSt8__detail16_Hashtable_allocISaINS_10_Hash_nodeISt4pairIKiiELb0EEEEE22_M_deallocate_node_ptrEPS5_:
LFB4433:
	.cfi_startproc
	pushl	%ebp
	.cfi_def_cfa_offset 8
	.cfi_offset 5, -8
	movl	%esp, %ebp
	.cfi_def_cfa_register 5
	subl	$56, %esp
	movl	%ecx, -28(%ebp)
	movl	8(%ebp), %eax
	movl	%eax, (%esp)
	call	__ZNSt14pointer_traitsIPNSt8__detail10_Hash_nodeISt4pairIKiiELb0EEEE10pointer_toERS5_
	movl	%eax, -12(%ebp)
	movl	-28(%ebp), %eax
	movl	%eax, %ecx
	call	__ZNSt8__detail16_Hashtable_allocISaINS_10_Hash_nodeISt4pairIKiiELb0EEEEE17_M_node_allocatorEv
	movl	$1, 8(%esp)
	movl	-12(%ebp), %edx
	movl	%edx, 4(%esp)
	movl	%eax, (%esp)
	call	__ZNSt16allocator_traitsISaINSt8__detail10_Hash_nodeISt4pairIKiiELb0EEEEE10deallocateERS6_PS5_j
	nop
	leave
	.cfi_restore 5
