	.arch armv8-a
	.text
	.align	2
	.globl __ZnwmPv
	.weak_definition __ZnwmPv
__ZnwmPv:
LFB1044:
	sub	sp, sp, #16
LCFI0:
	str	x0, [sp, 8]
	str	x1, [sp]
	ldr	x0, [sp]
	add	sp, sp, 16
LCFI1:
	ret
LFE1044:
	.align	2
	.globl __ZdlPvS_
	.weak_definition __ZdlPvS_
__ZdlPvS_:
LFB1046:
	sub	sp, sp, #16
LCFI2:
	str	x0, [sp, 8]
	str	x1, [sp]
	nop
	add	sp, sp, 16
LCFI3:
	ret
LFE1046:
	.align	2
	.globl __ZNSt11char_traitsIcE6lengthEPKc
	.weak_definition __ZNSt11char_traitsIcE6lengthEPKc
__ZNSt11char_traitsIcE6lengthEPKc:
LFB1107:
	stp	x29, x30, [sp, -48]!
LCFI4:
	mov	x29, sp
	str	x0, [sp, 24]
	ldr	x0, [sp, 24]
	str	x0, [sp, 40]
	mov	w0, 0
	cmp	w0, 0
	beq	L6
	ldr	x0, [sp, 24]
	bl	__ZN9__gnu_cxx11char_traitsIcE6lengthEPKc
	b	L7
L6:
	ldr	x0, [sp, 24]
	bl	_strlen
	nop
L7:
	ldp	x29, x30, [sp], 48
LCFI5:
	ret
LFE1107:
	.align	2
	.globl __ZNKSt4hashIiEclEi
	.weak_definition __ZNKSt4hashIiEclEi
__ZNKSt4hashIiEclEi:
LFB1437:
	sub	sp, sp, #16
LCFI6:
	str	x0, [sp, 8]
	str	w1, [sp, 4]
	ldrsw	x0, [sp, 4]
	add	sp, sp, 16
LCFI7:
	ret
LFE1437:
	.cstring
	.align	3
lC0:
	.ascii "stoi\0"
	.text
	.align	2
	.globl __ZNSt7__cxx114stoiERKNS_12basic_stringIcSt11char_traitsIcESaIcEEEPmi
	.weak_definition __ZNSt7__cxx114stoiERKNS_12basic_stringIcSt11char_traitsIcESaIcEEEPmi
__ZNSt7__cxx114stoiERKNS_12basic_stringIcSt11char_traitsIcESaIcEEEPmi:
LFB1766:
	stp	x29, x30, [sp, -48]!
LCFI8:
	mov	x29, sp
	str	x0, [sp, 40]
	str	x1, [sp, 32]
	str	w2, [sp, 28]
	ldr	x0, [sp, 40]
	bl	__ZNKSt7__cxx1112basic_stringIcSt11char_traitsIcESaIcEE5c_strEv
	ldr	w4, [sp, 28]
	ldr	x3, [sp, 32]
	mov	x2, x0
	adrp	x0, lC0@GOTPAGE
	ldr	x1, [x0, lC0@GOTPAGEOFF];momd
	adrp	x0, _strtol@GOTPAGE
	ldr	x0, [x0, _strtol@GOTPAGEOFF];momd
	bl	__ZN9__gnu_cxx6__stoaIlicJiEEET0_PFT_PKT1_PPS3_DpT2_EPKcS5_PmS9_
	ldp	x29, x30, [sp], 48
LCFI9:
	ret
LFE1766:
	.align	2
	.globl __ZStanSt13_Ios_FmtflagsS_
	.weak_definition __ZStanSt13_Ios_FmtflagsS_
__ZStanSt13_Ios_FmtflagsS_:
LFB1951:
	sub	sp, sp, #16
LCFI10:
	str	w0, [sp, 12]
	str	w1, [sp, 8]
	ldr	w1, [sp, 12]
	ldr	w0, [sp, 8]
	and	w0, w1, w0
	add	sp, sp, 16
LCFI11:
	ret
LFE1951:
	.align	2
	.globl __ZStorSt13_Ios_FmtflagsS_
	.weak_definition __ZStorSt13_Ios_FmtflagsS_
__ZStorSt13_Ios_FmtflagsS_:
LFB1952:
	sub	sp, sp, #16
LCFI12:
	str	w0, [sp, 12]
	str	w1, [sp, 8]
	ldr	w1, [sp, 12]
	ldr	w0, [sp, 8]
	orr	w0, w1, w0
	add	sp, sp, 16
LCFI13:
	ret
LFE1952:
	.align	2
	.globl __ZStcoSt13_Ios_Fmtflags
	.weak_definition __ZStcoSt13_Ios_Fmtflags
__ZStcoSt13_Ios_Fmtflags:
LFB1954:
	sub	sp, sp, #16
LCFI14:
	str	w0, [sp, 12]
	ldr	w0, [sp, 12]
	mvn	w0, w0
	add	sp, sp, 16
LCFI15:
	ret
LFE1954:
	.align	2
	.globl __ZStoRRSt13_Ios_FmtflagsS_
	.weak_definition __ZStoRRSt13_Ios_FmtflagsS_
__ZStoRRSt13_Ios_FmtflagsS_:
LFB1955:
	stp	x29, x30, [sp, -32]!
LCFI16:
	mov	x29, sp
	str	x0, [sp, 24]
	str	w1, [sp, 20]
	ldr	x0, [sp, 24]
	ldr	w0, [x0]
	ldr	w1, [sp, 20]
	bl	__ZStorSt13_Ios_FmtflagsS_
	mov	w1, w0
	ldr	x0, [sp, 24]
	str	w1, [x0]
	ldr	x0, [sp, 24]
	ldp	x29, x30, [sp], 32
LCFI17:
	ret
LFE1955:
	.align	2
	.globl __ZStaNRSt13_Ios_FmtflagsS_
	.weak_definition __ZStaNRSt13_Ios_FmtflagsS_
__ZStaNRSt13_Ios_FmtflagsS_:
LFB1956:
	stp	x29, x30, [sp, -32]!
LCFI18:
	mov	x29, sp
	str	x0, [sp, 24]
	str	w1, [sp, 20]
	ldr	x0, [sp, 24]
	ldr	w0, [x0]
	ldr	w1, [sp, 20]
	bl	__ZStanSt13_Ios_FmtflagsS_
	mov	w1, w0
	ldr	x0, [sp, 24]
	str	w1, [x0]
	ldr	x0, [sp, 24]
	ldp	x29, x30, [sp], 32
LCFI19:
	ret
LFE1956:
	.align	2
	.globl __ZNSt8ios_base4setfESt13_Ios_FmtflagsS0_
	.weak_definition __ZNSt8ios_base4setfESt13_Ios_FmtflagsS0_
__ZNSt8ios_base4setfESt13_Ios_FmtflagsS0_:
LFB1985:
	stp	x29, x30, [sp, -48]!
LCFI20:
	mov	x29, sp
	str	x0, [sp, 24]
	str	w1, [sp, 20]
	str	w2, [sp, 16]
	ldr	x0, [sp, 24]
	ldr	w0, [x0, 24]
	str	w0, [sp, 44]
	ldr	w0, [sp, 16]
	bl	__ZStcoSt13_Ios_Fmtflags
	mov	w1, w0
	ldr	x0, [sp, 24]
	add	x0, x0, 24
	bl	__ZStaNRSt13_Ios_FmtflagsS_
	ldr	w1, [sp, 16]
	ldr	w0, [sp, 20]
	bl	__ZStanSt13_Ios_FmtflagsS_
	mov	w1, w0
	ldr	x0, [sp, 24]
	add	x0, x0, 24
	bl	__ZStoRRSt13_Ios_FmtflagsS_
	ldr	w0, [sp, 44]
	ldp	x29, x30, [sp], 48
LCFI21:
	ret
LFE1985:
	.align	2
	.globl __ZSt3hexRSt8ios_base
	.weak_definition __ZSt3hexRSt8ios_base
__ZSt3hexRSt8ios_base:
LFB2013:
	stp	x29, x30, [sp, -32]!
LCFI22:
	mov	x29, sp
	str	x0, [sp, 24]
	mov	w2, 74
	mov	w1, 8
	ldr	x0, [sp, 24]
	bl	__ZNSt8ios_base4setfESt13_Ios_FmtflagsS0_
	ldr	x0, [sp, 24]
	ldp	x29, x30, [sp], 32
LCFI23:
	ret
LFE2013:
	.zerofill __DATA,__bss,__ZStL8__ioinit,1,3
	.text
	.align	2
	.globl __ZNSt8__detail15_Hash_node_baseC2Ev
	.weak_definition __ZNSt8__detail15_Hash_node_baseC2Ev
__ZNSt8__detail15_Hash_node_baseC2Ev:
LFB3015:
	sub	sp, sp, #16
LCFI24:
	str	x0, [sp, 8]
	ldr	x0, [sp, 8]
	str	xzr, [x0]
	nop
	add	sp, sp, 16
LCFI25:
	ret
LFE3015:
	.align	2
	.globl __ZNSt8__detail15_Hash_node_baseC1Ev
	.weak_definition __ZNSt8__detail15_Hash_node_baseC1Ev
__ZNSt8__detail15_Hash_node_baseC1Ev:
LFB3016:
	sub	sp, sp, #16
LCFI26:
	str	x0, [sp, 8]
	ldr	x0, [sp, 8]
	str	xzr, [x0]
	nop
	add	sp, sp, 16
LCFI27:
	ret
LFE3016:
	.align	2
	.globl __ZNKSt8__detail18_Mod_range_hashingclEmm
	.weak_definition __ZNKSt8__detail18_Mod_range_hashingclEmm
__ZNKSt8__detail18_Mod_range_hashingclEmm:
LFB3041:
	sub	sp, sp, #32
LCFI28:
	str	x0, [sp, 24]
	str	x1, [sp, 16]
	str	x2, [sp, 8]
	ldr	x0, [sp, 16]
	ldr	x1, [sp, 8]
	udiv	x2, x0, x1
	ldr	x1, [sp, 8]
	mul	x1, x2, x1
	sub	x0, x0, x1
	add	sp, sp, 32
LCFI29:
	ret
LFE3041:
	.align	2
	.globl __ZNSt8__detail20_Prime_rehash_policyC1Ef
	.weak_definition __ZNSt8__detail20_Prime_rehash_policyC1Ef
__ZNSt8__detail20_Prime_rehash_policyC1Ef:
LFB3044:
	sub	sp, sp, #16
LCFI30:
	str	x0, [sp, 8]
	str	s0, [sp, 4]
	ldr	x0, [sp, 8]
	ldr	s0, [sp, 4]
	str	s0, [x0]
	ldr	x0, [sp, 8]
	str	xzr, [x0, 8]
	nop
	add	sp, sp, 16
LCFI31:
	ret
LFE3044:
	.align	2
	.globl __ZNKSt8__detail20_Prime_rehash_policy8_M_stateEv
	.weak_definition __ZNKSt8__detail20_Prime_rehash_policy8_M_stateEv
__ZNKSt8__detail20_Prime_rehash_policy8_M_stateEv:
LFB3047:
	sub	sp, sp, #16
LCFI32:
	str	x0, [sp, 8]
	ldr	x0, [sp, 8]
	ldr	x0, [x0, 8]
	add	sp, sp, 16
LCFI33:
	ret
LFE3047:
	.align	2
	.globl __ZNSt8__detail20_Prime_rehash_policy8_M_resetEm
	.weak_definition __ZNSt8__detail20_Prime_rehash_policy8_M_resetEm
__ZNSt8__detail20_Prime_rehash_policy8_M_resetEm:
LFB3049:
	sub	sp, sp, #16
LCFI34:
	str	x0, [sp, 8]
	str	x1, [sp]
	ldr	x0, [sp, 8]
	ldr	x1, [sp]
	str	x1, [x0, 8]
	nop
	add	sp, sp, 16
LCFI35:
	ret
LFE3049:
	.align	2
	.globl __ZSt3minImERKT_S2_S2_
	.weak_definition __ZSt3minImERKT_S2_S2_
__ZSt3minImERKT_S2_S2_:
LFB3057:
	sub	sp, sp, #16
LCFI36:
	str	x0, [sp, 8]
	str	x1, [sp]
	ldr	x0, [sp]
	ldr	x1, [x0]
	ldr	x0, [sp, 8]
	ldr	x0, [x0]
	cmp	x1, x0
	bcs	L35
	ldr	x0, [sp]
	b	L36
L35:
	ldr	x0, [sp, 8]
L36:
	add	sp, sp, 16
LCFI37:
	ret
LFE3057:
	.const
	.align	3
__ZN6__pstl9execution2v1L3seqE:
	.space 1
	.align	3
__ZN6__pstl9execution2v1L3parE:
	.space 1
	.align	3
__ZN6__pstl9execution2v1L9par_unseqE:
	.space 1
	.align	3
__ZN6__pstl9execution2v1L5unseqE:
	.space 1
	.text
	.align	2
	.globl __ZNSt8__detail17_List_node_headerC1Ev
	.weak_definition __ZNSt8__detail17_List_node_headerC1Ev
__ZNSt8__detail17_List_node_headerC1Ev:
LFB3897:
	stp	x29, x30, [sp, -32]!
LCFI38:
	mov	x29, sp
	str	x0, [sp, 24]
	ldr	x0, [sp, 24]
	bl	__ZNSt8__detail17_List_node_header7_M_initEv
	nop
	ldp	x29, x30, [sp], 32
LCFI39:
	ret
LFE3897:
	.align	2
	.globl __ZNSt8__detail17_List_node_header7_M_initEv
	.weak_definition __ZNSt8__detail17_List_node_header7_M_initEv
__ZNSt8__detail17_List_node_header7_M_initEv:
LFB3902:
	sub	sp, sp, #16
LCFI40:
	str	x0, [sp, 8]
	ldr	x1, [sp, 8]
	ldr	x0, [sp, 8]
	str	x1, [x0, 8]
	ldr	x0, [sp, 8]
	ldr	x1, [x0, 8]
	ldr	x0, [sp, 8]
	str	x1, [x0]
	ldr	x0, [sp, 8]
	str	xzr, [x0, 16]
	nop
	add	sp, sp, 16
LCFI41:
	ret
LFE3902:
	.align	2
	.globl __ZN5blockC1Ey
	.weak_definition __ZN5blockC1Ey
__ZN5blockC1Ey:
LFB4184:
	sub	sp, sp, #16
LCFI42:
	str	x0, [sp, 8]
	str	x1, [sp]
	ldr	x0, [sp, 8]
	strb	wzr, [x0]
	ldr	x0, [sp, 8]
	ldr	x1, [sp]
	str	x1, [x0, 8]
	nop
	add	sp, sp, 16
LCFI43:
	ret
LFE4184:
	.align	2
	.globl __ZN5blockD1Ev
	.weak_definition __ZN5blockD1Ev
__ZN5blockD1Ev:
LFB4187:
	sub	sp, sp, #16
LCFI44:
	str	x0, [sp, 8]
	nop
	add	sp, sp, 16
LCFI45:
	ret
LFE4187:
	.align	2
	.globl __ZNSt8__detail21_Hashtable_ebo_helperILi0ESaINS_10_Hash_nodeISt4pairIKiiELb0EEEELb1EEC2Ev
	.weak_definition __ZNSt8__detail21_Hashtable_ebo_helperILi0ESaINS_10_Hash_nodeISt4pairIKiiELb0EEEELb1EEC2Ev
__ZNSt8__detail21_Hashtable_ebo_helperILi0ESaINS_10_Hash_nodeISt4pairIKiiELb0EEEELb1EEC2Ev:
LFB4193:
	stp	x29, x30, [sp, -32]!
LCFI46:
	mov	x29, sp
	str	x0, [sp, 24]
	ldr	x0, [sp, 24]
	bl	__ZNSaINSt8__detail10_Hash_nodeISt4pairIKiiELb0EEEEC2Ev
	nop
	ldp	x29, x30, [sp], 32
LCFI47:
	ret
LFE4193:
	.align	2
	.globl __ZNSt8__detail21_Hashtable_ebo_helperILi0ESaINS_10_Hash_nodeISt4pairIKiiELb0EEEELb1EED2Ev
	.weak_definition __ZNSt8__detail21_Hashtable_ebo_helperILi0ESaINS_10_Hash_nodeISt4pairIKiiELb0EEEELb1EED2Ev
__ZNSt8__detail21_Hashtable_ebo_helperILi0ESaINS_10_Hash_nodeISt4pairIKiiELb0EEEELb1EED2Ev:
LFB4196:
	stp	x29, x30, [sp, -32]!
LCFI48:
	mov	x29, sp
	str	x0, [sp, 24]
	ldr	x0, [sp, 24]
	bl	__ZNSaINSt8__detail10_Hash_nodeISt4pairIKiiELb0EEEED2Ev
	nop
	ldp	x29, x30, [sp], 32
LCFI49:
	ret
LFE4196:
	.align	2
	.globl __ZNSt8__detail16_Hashtable_allocISaINS_10_Hash_nodeISt4pairIKiiELb0EEEEEC2Ev
	.weak_definition __ZNSt8__detail16_Hashtable_allocISaINS_10_Hash_nodeISt4pairIKiiELb0EEEEEC2Ev
__ZNSt8__detail16_Hashtable_allocISaINS_10_Hash_nodeISt4pairIKiiELb0EEEEEC2Ev:
LFB4198:
	stp	x29, x30, [sp, -32]!
LCFI50:
	mov	x29, sp
	str	x0, [sp, 24]
	ldr	x0, [sp, 24]
	bl	__ZNSt8__detail21_Hashtable_ebo_helperILi0ESaINS_10_Hash_nodeISt4pairIKiiELb0EEEELb1EEC2Ev
	nop
	ldp	x29, x30, [sp], 32
LCFI51:
	ret
LFE4198:
	.align	2
	.globl __ZNSt8__detail16_Hashtable_allocISaINS_10_Hash_nodeISt4pairIKiiELb0EEEEED2Ev
	.weak_definition __ZNSt8__detail16_Hashtable_allocISaINS_10_Hash_nodeISt4pairIKiiELb0EEEEED2Ev
__ZNSt8__detail16_Hashtable_allocISaINS_10_Hash_nodeISt4pairIKiiELb0EEEEED2Ev:
LFB4201:
	stp	x29, x30, [sp, -32]!
LCFI52:
	mov	x29, sp
	str	x0, [sp, 24]
	ldr	x0, [sp, 24]
	bl	__ZNSt8__detail21_Hashtable_ebo_helperILi0ESaINS_10_Hash_nodeISt4pairIKiiELb0EEEELb1EED2Ev
	nop
	ldp	x29, x30, [sp], 32
LCFI53:
	ret
LFE4201:
	.align	2
	.globl __ZNSt10_HashtableIiSt4pairIKiiESaIS2_ENSt8__detail10_Select1stESt8equal_toIiESt4hashIiENS4_18_Mod_range_hashingENS4_20_Default_ranged_hashENS4_20_Prime_rehash_policyENS4_17_Hashtable_traitsILb0ELb0ELb1EEEEC1Ev
	.weak_definition __ZNSt10_HashtableIiSt4pairIKiiESaIS2_ENSt8__detail10_Select1stESt8equal_toIiESt4hashIiENS4_18_Mod_range_hashingENS4_20_Default_ranged_hashENS4_20_Prime_rehash_policyENS4_17_Hashtable_traitsILb0ELb0ELb1EEEEC1Ev
__ZNSt10_HashtableIiSt4pairIKiiESaIS2_ENSt8__detail10_Select1stESt8equal_toIiESt4hashIiENS4_18_Mod_range_hashingENS4_20_Default_ranged_hashENS4_20_Prime_rehash_policyENS4_17_Hashtable_traitsILb0ELb0ELb1EEEEC1Ev:
LFB4204:
	stp	x29, x30, [sp, -32]!
LCFI54:
	mov	x29, sp
	str	x0, [sp, 24]
	ldr	x0, [sp, 24]
	bl	__ZNSt8__detail16_Hashtable_allocISaINS_10_Hash_nodeISt4pairIKiiELb0EEEEEC2Ev
	ldr	x0, [sp, 24]
	add	x1, x0, 48
	ldr	x0, [sp, 24]
	str	x1, [x0]
	ldr	x0, [sp, 24]
	mov	x1, 1
	str	x1, [x0, 8]
	ldr	x0, [sp, 24]
	add	x0, x0, 16
	bl	__ZNSt8__detail15_Hash_node_baseC1Ev
	ldr	x0, [sp, 24]
	str	xzr, [x0, 24]
	ldr	x0, [sp, 24]
	add	x0, x0, 32
	fmov	s0, 1.0e+0
	bl	__ZNSt8__detail20_Prime_rehash_policyC1Ef
	ldr	x0, [sp, 24]
	str	xzr, [x0, 48]
	nop
	ldp	x29, x30, [sp], 32
LCFI55:
	ret
LFE4204:
	.align	2
	.globl __ZNSt13unordered_mapIiiSt4hashIiESt8equal_toIiESaISt4pairIKiiEEEC1Ev
	.weak_definition __ZNSt13unordered_mapIiiSt4hashIiESt8equal_toIiESaISt4pairIKiiEEEC1Ev
__ZNSt13unordered_mapIiiSt4hashIiESt8equal_toIiESaISt4pairIKiiEEEC1Ev:
LFB4206:
	stp	x29, x30, [sp, -32]!
LCFI56:
	mov	x29, sp
	str	x0, [sp, 24]
	ldr	x0, [sp, 24]
	bl	__ZNSt10_HashtableIiSt4pairIKiiESaIS2_ENSt8__detail10_Select1stESt8equal_toIiESt4hashIiENS4_18_Mod_range_hashingENS4_20_Default_ranged_hashENS4_20_Prime_rehash_policyENS4_17_Hashtable_traitsILb0ELb0ELb1EEEEC1Ev
	nop
	ldp	x29, x30, [sp], 32
LCFI57:
	ret
LFE4206:
	.align	2
	.globl __ZNSt13unordered_mapIiiSt4hashIiESt8equal_toIiESaISt4pairIKiiEEED1Ev
	.weak_definition __ZNSt13unordered_mapIiiSt4hashIiESt8equal_toIiESaISt4pairIKiiEEED1Ev
__ZNSt13unordered_mapIiiSt4hashIiESt8equal_toIiESaISt4pairIKiiEEED1Ev:
LFB4209:
	stp	x29, x30, [sp, -32]!
LCFI58:
	mov	x29, sp
	str	x0, [sp, 24]
	ldr	x0, [sp, 24]
	bl	__ZNSt10_HashtableIiSt4pairIKiiESaIS2_ENSt8__detail10_Select1stESt8equal_toIiESt4hashIiENS4_18_Mod_range_hashingENS4_20_Default_ranged_hashENS4_20_Prime_rehash_policyENS4_17_Hashtable_traitsILb0ELb0ELb1EEEED1Ev
	nop
	ldp	x29, x30, [sp], 32
LCFI59:
	ret
LFE4209:
	.align	2
	.globl __ZNSt7__cxx1110_List_baseIiSaIiEE10_List_implD1Ev
	.weak_definition __ZNSt7__cxx1110_List_baseIiSaIiEE10_List_implD1Ev
__ZNSt7__cxx1110_List_baseIiSaIiEE10_List_implD1Ev:
LFB4215:
	stp	x29, x30, [sp, -32]!
LCFI60:
	mov	x29, sp
	str	x0, [sp, 24]
	ldr	x0, [sp, 24]
	bl	__ZNSaISt10_List_nodeIiEED2Ev
	nop
	ldp	x29, x30, [sp], 32
LCFI61:
	ret
LFE4215:
	.align	2
	.globl __ZNSt7__cxx1110_List_baseIiSaIiEEC2Ev
	.weak_definition __ZNSt7__cxx1110_List_baseIiSaIiEEC2Ev
__ZNSt7__cxx1110_List_baseIiSaIiEEC2Ev:
LFB4216:
	stp	x29, x30, [sp, -32]!
LCFI62:
	mov	x29, sp
	str	x0, [sp, 24]
	ldr	x0, [sp, 24]
	bl	__ZNSt7__cxx1110_List_baseIiSaIiEE10_List_implC1Ev
	nop
	ldp	x29, x30, [sp], 32
LCFI63:
	ret
LFE4216:
	.align	2
	.globl __ZNSt7__cxx114listIiSaIiEEC1Ev
	.weak_definition __ZNSt7__cxx114listIiSaIiEEC1Ev
__ZNSt7__cxx114listIiSaIiEEC1Ev:
LFB4219:
	stp	x29, x30, [sp, -32]!
LCFI64:
	mov	x29, sp
	str	x0, [sp, 24]
	ldr	x0, [sp, 24]
	bl	__ZNSt7__cxx1110_List_baseIiSaIiEEC2Ev
	nop
	ldp	x29, x30, [sp], 32
LCFI65:
	ret
LFE4219:
	.align	2
	.globl __ZNSt7__cxx114listIiSaIiEED1Ev
	.weak_definition __ZNSt7__cxx114listIiSaIiEED1Ev
__ZNSt7__cxx114listIiSaIiEED1Ev:
LFB4222:
	stp	x29, x30, [sp, -32]!
LCFI66:
	mov	x29, sp
	str	x0, [sp, 24]
	ldr	x0, [sp, 24]
	bl	__ZNSt7__cxx1110_List_baseIiSaIiEED2Ev
	nop
	ldp	x29, x30, [sp], 32
LCFI67:
	ret
LFE4222:
	.align	2
	.globl __ZN9cache_setC1Eii
	.weak_definition __ZN9cache_setC1Eii
__ZN9cache_setC1Eii:
LFB4224:
	stp	x29, x30, [sp, -80]!
LCFI68:
	mov	x29, sp
	stp	x19, x20, [sp, 16]
LCFI69:
	str	x0, [sp, 40]
	str	w1, [sp, 36]
	str	w2, [sp, 32]
	ldr	x0, [sp, 40]
	ldr	w1, [sp, 36]
	str	w1, [x0]
	ldr	x0, [sp, 40]
	ldr	w1, [sp, 32]
	str	w1, [x0, 4]
	ldr	x0, [sp, 40]
	add	x19, x0, 8
	ldrsw	x20, [sp, 36]
	add	x0, sp, 56
	mov	x1, 0
	bl	__ZN5blockC1Ey
	add	x0, sp, 72
	bl	__ZNSaI5blockEC1Ev
	add	x1, sp, 72
	add	x0, sp, 56
	mov	x3, x1
	mov	x2, x0
	mov	x1, x20
	mov	x0, x19
LEHB0:
	bl	__ZNSt6vectorI5blockSaIS0_EEC1EmRKS0_RKS1_
LEHE0:
	add	x0, sp, 72
	bl	__ZNSaI5blockED1Ev
	add	x0, sp, 56
	bl	__ZN5blockD1Ev
	ldr	x0, [sp, 40]
	add	x0, x0, 32
	bl	__ZNSt13unordered_mapIiiSt4hashIiESt8equal_toIiESaISt4pairIKiiEEEC1Ev
	ldr	x0, [sp, 40]
	add	x0, x0, 88
	bl	__ZNSt7__cxx114listIiSaIiEEC1Ev
	b	L55
L54:
	mov	x19, x0
	add	x0, sp, 72
	bl	__ZNSaI5blockED1Ev
	add	x0, sp, 56
	bl	__ZN5blockD1Ev
	mov	x0, x19
LEHB1:
	bl	__Unwind_Resume
LEHE1:
L55:
	ldp	x19, x20, [sp, 16]
	ldp	x29, x30, [sp], 80
LCFI70:
	ret
LFE4224:
	.section __DATA,__gcc_except_tab
_GCC_except_table0:
LLSDA4224:
	.byte	0xff
	.byte	0xff
	.byte	0x1
	.uleb128 LLSDACSE4224-LLSDACSB4224
LLSDACSB4224:
	.uleb128 LEHB0-LFB4224
	.uleb128 LEHE0-LEHB0
	.uleb128 L54-LFB4224
	.uleb128 0
	.uleb128 LEHB1-LFB4224
	.uleb128 LEHE1-LEHB1
	.uleb128 0
	.uleb128 0
LLSDACSE4224:
	.text
	.align	2
	.globl __ZN9cache_setD1Ev
	.weak_definition __ZN9cache_setD1Ev
__ZN9cache_setD1Ev:
LFB4227:
	stp	x29, x30, [sp, -32]!
LCFI71:
	mov	x29, sp
	str	x0, [sp, 24]
	ldr	x0, [sp, 24]
	add	x0, x0, 88
	bl	__ZNSt7__cxx114listIiSaIiEED1Ev
	ldr	x0, [sp, 24]
	add	x0, x0, 32
	bl	__ZNSt13unordered_mapIiiSt4hashIiESt8equal_toIiESaISt4pairIKiiEEED1Ev
	ldr	x0, [sp, 24]
	add	x0, x0, 8
	bl	__ZNSt6vectorI5blockSaIS0_EED1Ev
	nop
	ldp	x29, x30, [sp], 32
LCFI72:
	ret
LFE4227:
	.align	2
	.globl __ZN5cacheC1Eciiiii6cache_
	.weak_definition __ZN5cacheC1Eciiiii6cache_
__ZN5cacheC1Eciiiii6cache_:
LFB4230:
	stp	x29, x30, [sp, -208]!
LCFI73:
	mov	x29, sp
	stp	x19, x20, [sp, 16]
	str	x21, [sp, 32]
LCFI74:
	str	x0, [sp, 72]
	strb	w1, [sp, 71]
	str	w2, [sp, 64]
	str	w3, [sp, 60]
	str	w4, [sp, 56]
	str	w5, [sp, 52]
	str	w6, [sp, 48]
	mov	x21, x7
	ldr	x0, [sp, 72]
	ldrb	w1, [sp, 71]
	strb	w1, [x0]
	ldr	x0, [sp, 72]
	ldr	w1, [sp, 64]
	str	w1, [x0, 4]
	ldr	x0, [sp, 72]
	ldr	w1, [sp, 60]
	str	w1, [x0, 8]
	ldr	x0, [sp, 72]
	ldr	w1, [sp, 56]
	str	w1, [x0, 12]
	ldr	x0, [sp, 72]
	ldr	w1, [sp, 52]
	str	w1, [x0, 16]
	ldr	x0, [sp, 72]
	ldr	w1, [sp, 48]
	str	w1, [x0, 20]
	ldr	x0, [sp, 72]
	str	xzr, [x0, 24]
	ldr	x0, [sp, 72]
	str	xzr, [x0, 32]
	ldr	x0, [sp, 72]
	str	xzr, [x0, 40]
	ldr	x0, [sp, 72]
	str	xzr, [x0, 48]
	ldr	x0, [sp, 72]
	add	x19, x0, 56
	ldr	x0, [sp, 72]
	ldr	w0, [x0, 20]
	sxtw	x20, w0
	ldr	x0, [sp, 72]
	ldr	w1, [x0, 16]
	ldr	x0, [sp, 72]
	ldr	w2, [x0, 8]
	add	x0, sp, 88
LEHB2:
	bl	__ZN9cache_setC1Eii
LEHE2:
	add	x0, sp, 200
	bl	__ZNSaI9cache_setEC1Ev
	add	x1, sp, 200
	add	x0, sp, 88
	mov	x3, x1
	mov	x2, x0
	mov	x1, x20
	mov	x0, x19
LEHB3:
	bl	__ZNSt6vectorI9cache_setSaIS0_EEC1EmRKS0_RKS1_
LEHE3:
	add	x0, sp, 200
	bl	__ZNSaI9cache_setED1Ev
	add	x0, sp, 88
	bl	__ZN9cache_setD1Ev
	ldr	x0, [sp, 72]
	add	x0, x0, 80
	mov	x2, x0
	mov	x3, x21
	ldp	x0, x1, [x3]
	stp	x0, x1, [x2]
	ldr	x0, [x3, 16]
	str	x0, [x2, 16]
	b	L60
L59:
	mov	x19, x0
	add	x0, sp, 200
	bl	__ZNSaI9cache_setED1Ev
	add	x0, sp, 88
	bl	__ZN9cache_setD1Ev
	mov	x0, x19
LEHB4:
	bl	__Unwind_Resume
LEHE4:
L60:
	ldp	x19, x20, [sp, 16]
	ldr	x21, [sp, 32]
	ldp	x29, x30, [sp], 208
LCFI75:
	ret
LFE4230:
	.section __DATA,__gcc_except_tab
_GCC_except_table1:
LLSDA4230:
	.byte	0xff
	.byte	0xff
	.byte	0x1
	.uleb128 LLSDACSE4230-LLSDACSB4230
LLSDACSB4230:
	.uleb128 LEHB2-LFB4230
	.uleb128 LEHE2-LEHB2
	.uleb128 0
	.uleb128 0
	.uleb128 LEHB3-LFB4230
	.uleb128 LEHE3-LEHB3
	.uleb128 L59-LFB4230
	.uleb128 0
	.uleb128 LEHB4-LFB4230
	.uleb128 LEHE4-LEHB4
	.uleb128 0
	.uleb128 0
LLSDACSE4230:
	.text
	.align	2
	.globl __ZN5cacheD1Ev
	.weak_definition __ZN5cacheD1Ev
__ZN5cacheD1Ev:
LFB4233:
	stp	x29, x30, [sp, -32]!
LCFI76:
	mov	x29, sp
	str	x0, [sp, 24]
	ldr	x0, [sp, 24]
	add	x0, x0, 56
	bl	__ZNSt6vectorI9cache_setSaIS0_EED1Ev
	nop
	ldp	x29, x30, [sp], 32
LCFI77:
	ret
LFE4233:
	.cstring
	.align	3
lC1:
	.ascii "Errors on Input Loading!\0"
	.text
	.align	2
	.globl __Z3insRKNSt7__cxx1112basic_stringIcSt11char_traitsIcESaIcEEERcRy
__Z3insRKNSt7__cxx1112basic_stringIcSt11char_traitsIcESaIcEEERcRy:
LFB4234:
	stp	x29, x30, [sp, -480]!
LCFI78:
	mov	x29, sp
	str	x19, [sp, 16]
LCFI79:
	str	x0, [sp, 56]
	str	x1, [sp, 48]
	str	x2, [sp, 40]
	ldr	x0, [sp, 56]
	bl	__ZNKSt7__cxx1112basic_stringIcSt11char_traitsIcESaIcEE5emptyEv
	and	w0, w0, 255
	eor	w0, w0, 1
	and	w0, w0, 255
	cmp	w0, 0
	beq	L63
	mov	x2, 0
	mov	w1, 114
	ldr	x0, [sp, 56]
	bl	__ZNKSt7__cxx1112basic_stringIcSt11char_traitsIcESaIcEE4findEcm
	cmn	x0, #1
	cset	w0, ne
	and	w0, w0, 255
	cmp	w0, 0
	beq	L64
	ldr	x0, [sp, 48]
	mov	w1, 114
	strb	w1, [x0]
	b	L65
L64:
	mov	x2, 0
	mov	w1, 119
	ldr	x0, [sp, 56]
	bl	__ZNKSt7__cxx1112basic_stringIcSt11char_traitsIcESaIcEE4findEcm
	cmn	x0, #1
	cset	w0, ne
	and	w0, w0, 255
	cmp	w0, 0
	beq	L66
	ldr	x0, [sp, 48]
	mov	w1, 119
	strb	w1, [x0]
	b	L65
L66:
	mov	w19, 0
	b	L68
L65:
	add	x0, sp, 64
	mov	x8, x0
	mov	x2, -1
	mov	x1, 2
	ldr	x0, [sp, 56]
LEHB5:
	bl	__ZNKSt7__cxx1112basic_stringIcSt11char_traitsIcESaIcEE6substrEmm
LEHE5:
	add	x1, sp, 64
	add	x0, sp, 96
	mov	w2, 8
LEHB6:
	bl	__ZNSt7__cxx1119basic_istringstreamIcSt11char_traitsIcESaIcEEC1ERKNS_12basic_stringIcS2_S3_EESt13_Ios_Openmode
LEHE6:
	add	x2, sp, 96
	adrp	x0, __ZSt3hexRSt8ios_base@GOTPAGE
	ldr	x1, [x0, __ZSt3hexRSt8ios_base@GOTPAGEOFF];momd
	mov	x0, x2
LEHB7:
	bl	__ZNSirsEPFRSt8ios_baseS0_E
	ldr	x1, [sp, 40]
	bl	__ZNSirsERy
LEHE7:
	mov	w19, 1
	add	x0, sp, 96
	bl	__ZNSt7__cxx1119basic_istringstreamIcSt11char_traitsIcESaIcEED1Ev
	add	x0, sp, 64
	bl	__ZNSt7__cxx1112basic_stringIcSt11char_traitsIcESaIcEED1Ev
	b	L68
L63:
	adrp	x0, lC1@GOTPAGE
	ldr	x1, [x0, lC1@GOTPAGEOFF];momd
	adrp	x0, __ZSt4cout@GOTPAGE
	ldr	x0, [x0, __ZSt4cout@GOTPAGEOFF];momd
LEHB8:
	bl	__ZStlsISt11char_traitsIcEERSt13basic_ostreamIcT_ES5_PKc
	mov	x2, x0
	adrp	x0, __ZSt4endlIcSt11char_traitsIcEERSt13basic_ostreamIT_T0_ES6_@GOTPAGE
	ldr	x1, [x0, __ZSt4endlIcSt11char_traitsIcEERSt13basic_ostreamIT_T0_ES6_@GOTPAGEOFF];momd
	mov	x0, x2
	bl	__ZNSolsEPFRSoS_E
	mov	w19, 0
L68:
	mov	w0, w19
	b	L73
L72:
	mov	x19, x0
	add	x0, sp, 96
	bl	__ZNSt7__cxx1119basic_istringstreamIcSt11char_traitsIcESaIcEED1Ev
	b	L70
L71:
	mov	x19, x0
L70:
	add	x0, sp, 64
	bl	__ZNSt7__cxx1112basic_stringIcSt11char_traitsIcESaIcEED1Ev
	mov	x0, x19
	bl	__Unwind_Resume
LEHE8:
L73:
	ldr	x19, [sp, 16]
	ldp	x29, x30, [sp], 480
LCFI80:
	ret
LFE4234:
	.section __DATA,__gcc_except_tab
_GCC_except_table2:
LLSDA4234:
	.byte	0xff
	.byte	0xff
	.byte	0x1
	.uleb128 LLSDACSE4234-LLSDACSB4234
LLSDACSB4234:
	.uleb128 LEHB5-LFB4234
	.uleb128 LEHE5-LEHB5
	.uleb128 0
	.uleb128 0
	.uleb128 LEHB6-LFB4234
	.uleb128 LEHE6-LEHB6
	.uleb128 L71-LFB4234
	.uleb128 0
	.uleb128 LEHB7-LFB4234
	.uleb128 LEHE7-LEHB7
	.uleb128 L72-LFB4234
	.uleb128 0
	.uleb128 LEHB8-LFB4234
	.uleb128 LEHE8-LEHB8
	.uleb128 0
	.uleb128 0
LLSDACSE4234:
	.text
	.align	2
	.globl __Z8fetchingRK6cache_yRS_
__Z8fetchingRK6cache_yRS_:
LFB4235:
	sub	sp, sp, #48
LCFI81:
	str	x0, [sp, 24]
	str	x1, [sp, 16]
	str	x2, [sp, 8]
	str	xzr, [sp, 40]
	str	xzr, [sp, 32]
	ldr	x0, [sp, 24]
	ldr	x0, [x0]
	mov	w1, w0
	mov	w0, 64
	sub	w0, w0, w1
	ldr	x1, [sp, 16]
	lsr	x0, x1, x0
	and	x1, x0, 16777215
	ldr	x0, [sp, 8]
	str	x1, [x0]
	ldr	x0, [sp, 24]
	ldr	x0, [x0]
	mov	w1, w0
	ldr	x0, [sp, 16]
	lsl	x0, x0, x1
	str	x0, [sp, 40]
	ldr	x0, [sp, 24]
	ldr	x0, [x0]
	mov	w1, w0
	ldr	x0, [sp, 24]
	ldr	x0, [x0, 16]
	add	w0, w1, w0
	ldr	x1, [sp, 40]
	lsr	x1, x1, x0
	ldr	x0, [sp, 8]
	str	x1, [x0, 8]
	ldr	x0, [sp, 24]
	ldr	x0, [x0, 16]
	mov	w1, w0
	mov	w0, 64
	sub	w0, w0, w1
	ldr	x1, [sp, 16]
	lsl	x0, x1, x0
	str	x0, [sp, 32]
	ldr	x0, [sp, 24]
	ldr	x0, [x0, 16]
	mov	w1, w0
	mov	w0, 64
	sub	w0, w0, w1
	ldr	x1, [sp, 32]
	lsr	x1, x1, x0
	ldr	x0, [sp, 8]
	str	x1, [x0, 16]
	nop
	add	sp, sp, 48
LCFI82:
	ret
LFE4235:
	.align	2
	.globl __Z10addr_validR5cacheRK6cache_
__Z10addr_validR5cacheRK6cache_:
LFB4236:
	stp	x29, x30, [sp, -128]!
LCFI83:
	mov	x29, sp
	str	x19, [sp, 16]
LCFI84:
	str	x0, [sp, 40]
	str	x1, [sp, 32]
	str	wzr, [sp, 84]
	b	L76
L84:
	ldr	x0, [sp, 40]
	add	x2, x0, 56
	ldr	x0, [sp, 32]
	ldr	x0, [x0, 8]
	mov	x1, x0
	mov	x0, x2
	bl	__ZNSt6vectorI9cache_setSaIS0_EEixEm
	add	x0, x0, 8
	ldr	w1, [sp, 84]
	sxtw	x1, w1
	bl	__ZNSt6vectorI5blockSaIS0_EEixEm
	ldrb	w0, [x0]
	cmp	w0, 0
	beq	L77
	ldr	x0, [sp, 40]
	add	x2, x0, 56
	ldr	x0, [sp, 32]
	ldr	x0, [x0, 8]
	mov	x1, x0
	mov	x0, x2
	bl	__ZNSt6vectorI9cache_setSaIS0_EEixEm
	add	x0, x0, 8
	ldr	w1, [sp, 84]
	sxtw	x1, w1
	bl	__ZNSt6vectorI5blockSaIS0_EEixEm
	ldr	x1, [x0, 8]
	ldr	x0, [sp, 32]
	ldr	x0, [x0]
	cmp	x1, x0
	bne	L77
	mov	w0, 1
	b	L78
L77:
	mov	w0, 0
L78:
	cmp	w0, 0
	beq	L79
	ldr	x0, [sp, 40]
	ldrsb	w0, [x0]
	cmp	w0, 108
	bne	L80
	ldr	x0, [sp, 40]
	add	x2, x0, 56
	ldr	x0, [sp, 32]
	ldr	x0, [x0, 8]
	mov	x1, x0
	mov	x0, x2
	bl	__ZNSt6vectorI9cache_setSaIS0_EEixEm
	add	x0, x0, 32
	add	x1, sp, 84
	bl	__ZNSt13unordered_mapIiiSt4hashIiESt8equal_toIiESaISt4pairIKiiEEE4findERS5_
	str	x0, [sp, 72]
	ldr	x0, [sp, 40]
	add	x2, x0, 56
	ldr	x0, [sp, 32]
	ldr	x0, [x0, 8]
	mov	x1, x0
	mov	x0, x2
	bl	__ZNSt6vectorI9cache_setSaIS0_EEixEm
	add	x0, x0, 32
	bl	__ZNSt13unordered_mapIiiSt4hashIiESt8equal_toIiESaISt4pairIKiiEEE3endEv
	str	x0, [sp, 88]
	add	x1, sp, 88
	add	x0, sp, 72
	bl	__ZNSt8__detailneERKNS_19_Node_iterator_baseISt4pairIKiiELb0EEES6_
	and	w0, w0, 255
	cmp	w0, 0
	beq	L80
	add	x0, sp, 72
	bl	__ZNKSt8__detail14_Node_iteratorISt4pairIKiiELb0ELb0EEptEv
	ldr	w0, [x0, 4]
	str	w0, [sp, 124]
	ldr	x0, [sp, 40]
	add	x2, x0, 56
	ldr	x0, [sp, 32]
	ldr	x0, [x0, 8]
	mov	x1, x0
	mov	x0, x2
	bl	__ZNSt6vectorI9cache_setSaIS0_EEixEm
	add	x0, x0, 88
	bl	__ZNSt7__cxx114listIiSaIiEE5beginEv
	mov	x19, x0
	ldr	x0, [sp, 40]
	add	x2, x0, 56
	ldr	x0, [sp, 32]
	ldr	x0, [x0, 8]
	mov	x1, x0
	mov	x0, x2
	bl	__ZNSt6vectorI9cache_setSaIS0_EEixEm
	add	x0, x0, 88
	bl	__ZNSt7__cxx114listIiSaIiEE3endEv
	mov	x1, x0
	add	x0, sp, 84
	mov	x2, x0
	mov	x0, x19
	bl	__ZSt4findISt14_List_iteratorIiEiET_S2_S2_RKT0_
	str	x0, [sp, 64]
	ldr	x0, [sp, 40]
	add	x2, x0, 56
	ldr	x0, [sp, 32]
	ldr	x0, [x0, 8]
	mov	x1, x0
	mov	x0, x2
	bl	__ZNSt6vectorI9cache_setSaIS0_EEixEm
	add	x0, x0, 88
	bl	__ZNSt7__cxx114listIiSaIiEE3endEv
	str	x0, [sp, 96]
	add	x1, sp, 96
	add	x0, sp, 64
	bl	__ZStneRKSt14_List_iteratorIiES2_
	and	w0, w0, 255
	cmp	w0, 0
	beq	L82
	ldr	x0, [sp, 40]
	add	x2, x0, 56
	ldr	x0, [sp, 32]
	ldr	x0, [x0, 8]
	mov	x1, x0
	mov	x0, x2
	bl	__ZNSt6vectorI9cache_setSaIS0_EEixEm
	add	x19, x0, 88
	add	x1, sp, 64
	add	x0, sp, 104
	bl	__ZNSt20_List_const_iteratorIiEC1ERKSt14_List_iteratorIiE
	ldr	x1, [sp, 104]
	mov	x0, x19
	bl	__ZNSt7__cxx114listIiSaIiEE5eraseESt20_List_const_iteratorIiE
L82:
	ldr	x0, [sp, 40]
	add	x2, x0, 56
	ldr	x0, [sp, 32]
	ldr	x0, [x0, 8]
	mov	x1, x0
	mov	x0, x2
	bl	__ZNSt6vectorI9cache_setSaIS0_EEixEm
	add	x0, x0, 32
	ldr	x1, [sp, 72]
	bl	__ZNSt13unordered_mapIiiSt4hashIiESt8equal_toIiESaISt4pairIKiiEEE5eraseENSt8__detail14_Node_iteratorIS6_Lb0ELb0EEE
	ldr	x0, [sp, 40]
	add	x2, x0, 56
	ldr	x0, [sp, 32]
	ldr	x0, [x0, 8]
	mov	x1, x0
	mov	x0, x2
	bl	__ZNSt6vectorI9cache_setSaIS0_EEixEm
	add	x0, x0, 88
	bl	__ZNKSt7__cxx114listIiSaIiEE4sizeEv
	str	w0, [sp, 60]
	ldr	x0, [sp, 40]
	add	x2, x0, 56
	ldr	x0, [sp, 32]
	ldr	x0, [x0, 8]
	mov	x1, x0
	mov	x0, x2
	bl	__ZNSt6vectorI9cache_setSaIS0_EEixEm
	add	x0, x0, 88
	add	x1, sp, 84
	bl	__ZNSt7__cxx114listIiSaIiEE9push_backERKi
	ldr	x0, [sp, 40]
	add	x2, x0, 56
	ldr	x0, [sp, 32]
	ldr	x0, [x0, 8]
	mov	x1, x0
	mov	x0, x2
	bl	__ZNSt6vectorI9cache_setSaIS0_EEixEm
	add	x19, x0, 32
	add	x1, sp, 60
	add	x0, sp, 84
	bl	__ZSt9make_pairIRiS0_ESt4pairINSt25__strip_reference_wrapperINSt5decayIT_E4typeEE6__typeENS2_INS3_IT0_E4typeEE6__typeEEOS4_OS9_
	str	x0, [sp, 112]
	add	x0, sp, 112
	mov	x1, x0
	mov	x0, x19
	bl	__ZNSt13unordered_mapIiiSt4hashIiESt8equal_toIiESaISt4pairIKiiEEE6insertIS4_IiiEEENSt9enable_ifIXsrSt16is_constructibleIS6_JOT_EE5valueES4_INSt8__detail14_Node_iteratorIS6_Lb0ELb0EEEbEE4typeESE_
L80:
	mov	w0, 1
	b	L83
L79:
	ldr	w0, [sp, 84]
	add	w0, w0, 1
	str	w0, [sp, 84]
L76:
	ldr	x0, [sp, 40]
	ldr	w1, [x0, 16]
	ldr	w0, [sp, 84]
	cmp	w1, w0
	bgt	L84
	mov	w0, 0
L83:
	ldr	x19, [sp, 16]
	ldp	x29, x30, [sp], 128
LCFI85:
	ret
LFE4236:
	.cstring
	.align	3
lC2:
	.ascii "Errors on Replacement Declaration!\0"
	.text
	.align	2
	.globl __Z7replaceR5cacheRK6cache_
__Z7replaceR5cacheRK6cache_:
LFB4244:
	stp	x29, x30, [sp, -128]!
LCFI86:
	mov	x29, sp
	str	x19, [sp, 16]
LCFI87:
	str	x0, [sp, 40]
	str	x1, [sp, 32]
	ldr	x0, [sp, 40]
	ldr	w0, [x0, 16]
	str	w0, [sp, 124]
	str	wzr, [sp, 76]
	b	L86
L88:
	ldr	x0, [sp, 40]
	add	x2, x0, 56
	ldr	x0, [sp, 32]
	ldr	x0, [x0, 8]
	mov	x1, x0
	mov	x0, x2
	bl	__ZNSt6vectorI9cache_setSaIS0_EEixEm
	add	x0, x0, 8
	ldr	w1, [sp, 76]
	sxtw	x1, w1
	bl	__ZNSt6vectorI5blockSaIS0_EEixEm
	ldrb	w0, [x0]
	cmp	w0, 0
	cset	w0, eq
	and	w0, w0, 255
	cmp	w0, 0
	beq	L87
	ldr	x0, [sp, 40]
	add	x2, x0, 56
	ldr	x0, [sp, 32]
	ldr	x0, [x0, 8]
	mov	x1, x0
	mov	x0, x2
	bl	__ZNSt6vectorI9cache_setSaIS0_EEixEm
	add	x0, x0, 8
	ldr	w1, [sp, 76]
	sxtw	x1, w1
	bl	__ZNSt6vectorI5blockSaIS0_EEixEm
	mov	x1, x0
	mov	w0, 1
	strb	w0, [x1]
	ldr	x0, [sp, 32]
	ldr	x19, [x0]
	ldr	x0, [sp, 40]
	add	x2, x0, 56
	ldr	x0, [sp, 32]
	ldr	x0, [x0, 8]
	mov	x1, x0
	mov	x0, x2
	bl	__ZNSt6vectorI9cache_setSaIS0_EEixEm
	add	x0, x0, 8
	ldr	w1, [sp, 76]
	sxtw	x1, w1
	bl	__ZNSt6vectorI5blockSaIS0_EEixEm
	str	x19, [x0, 8]
	ldr	x0, [sp, 40]
	add	x2, x0, 56
	ldr	x0, [sp, 32]
	ldr	x0, [x0, 8]
	mov	x1, x0
	mov	x0, x2
	bl	__ZNSt6vectorI9cache_setSaIS0_EEixEm
	add	x0, x0, 88
	bl	__ZNKSt7__cxx114listIiSaIiEE4sizeEv
	str	w0, [sp, 72]
	ldr	x0, [sp, 40]
	add	x2, x0, 56
	ldr	x0, [sp, 32]
	ldr	x0, [x0, 8]
	mov	x1, x0
	mov	x0, x2
	bl	__ZNSt6vectorI9cache_setSaIS0_EEixEm
	add	x0, x0, 88
	add	x1, sp, 76
	bl	__ZNSt7__cxx114listIiSaIiEE9push_backERKi
	ldr	x0, [sp, 40]
	add	x2, x0, 56
	ldr	x0, [sp, 32]
	ldr	x0, [x0, 8]
	mov	x1, x0
	mov	x0, x2
	bl	__ZNSt6vectorI9cache_setSaIS0_EEixEm
	add	x19, x0, 32
	add	x1, sp, 72
	add	x0, sp, 76
	bl	__ZSt9make_pairIRiS0_ESt4pairINSt25__strip_reference_wrapperINSt5decayIT_E4typeEE6__typeENS2_INS3_IT0_E4typeEE6__typeEEOS4_OS9_
	str	x0, [sp, 80]
	add	x0, sp, 80
	mov	x1, x0
	mov	x0, x19
	bl	__ZNSt13unordered_mapIiiSt4hashIiESt8equal_toIiESaISt4pairIKiiEEE6insertIS4_IiiEEENSt9enable_ifIXsrSt16is_constructibleIS6_JOT_EE5valueES4_INSt8__detail14_Node_iteratorIS6_Lb0ELb0EEEbEE4typeESE_
L87:
	ldr	w0, [sp, 76]
	add	w0, w0, 1
	str	w0, [sp, 76]
L86:
	ldr	x0, [sp, 40]
	ldr	w1, [x0, 16]
	ldr	w0, [sp, 76]
	cmp	w1, w0
	bgt	L88
	ldr	x0, [sp, 40]
	ldrsb	w0, [x0]
	cmp	w0, 108
	bne	L89
	ldr	x0, [sp, 40]
	add	x2, x0, 56
	ldr	x0, [sp, 32]
	ldr	x0, [x0, 8]
	mov	x1, x0
	mov	x0, x2
	bl	__ZNSt6vectorI9cache_setSaIS0_EEixEm
	add	x0, x0, 88
	bl	__ZNSt7__cxx114listIiSaIiEE5frontEv
	ldr	w0, [x0]
	str	w0, [sp, 68]
	ldr	x0, [sp, 40]
	add	x2, x0, 56
	ldr	x0, [sp, 32]
	ldr	x0, [x0, 8]
	mov	x1, x0
	mov	x0, x2
	bl	__ZNSt6vectorI9cache_setSaIS0_EEixEm
	add	x19, x0, 88
	ldr	x0, [sp, 40]
	add	x2, x0, 56
	ldr	x0, [sp, 32]
	ldr	x0, [x0, 8]
	mov	x1, x0
	mov	x0, x2
	bl	__ZNSt6vectorI9cache_setSaIS0_EEixEm
	add	x0, x0, 88
	bl	__ZNSt7__cxx114listIiSaIiEE5beginEv
	str	x0, [sp, 96]
	add	x1, sp, 96
	add	x0, sp, 88
	bl	__ZNSt20_List_const_iteratorIiEC1ERKSt14_List_iteratorIiE
	ldr	x1, [sp, 88]
	mov	x0, x19
	bl	__ZNSt7__cxx114listIiSaIiEE5eraseESt20_List_const_iteratorIiE
	ldr	x0, [sp, 40]
	add	x2, x0, 56
	ldr	x0, [sp, 32]
	ldr	x0, [x0, 8]
	mov	x1, x0
	mov	x0, x2
	bl	__ZNSt6vectorI9cache_setSaIS0_EEixEm
	add	x0, x0, 32
	add	x1, sp, 68
	bl	__ZNSt13unordered_mapIiiSt4hashIiESt8equal_toIiESaISt4pairIKiiEEE4findERS5_
	str	x0, [sp, 56]
	ldr	x0, [sp, 40]
	add	x2, x0, 56
	ldr	x0, [sp, 32]
	ldr	x0, [x0, 8]
	mov	x1, x0
	mov	x0, x2
	bl	__ZNSt6vectorI9cache_setSaIS0_EEixEm
	add	x0, x0, 32
	bl	__ZNSt13unordered_mapIiiSt4hashIiESt8equal_toIiESaISt4pairIKiiEEE3endEv
	str	x0, [sp, 104]
	add	x1, sp, 104
	add	x0, sp, 56
	bl	__ZNSt8__detailneERKNS_19_Node_iterator_baseISt4pairIKiiELb0EEES6_
	and	w0, w0, 255
	cmp	w0, 0
	beq	L94
	ldr	x0, [sp, 40]
	add	x2, x0, 56
	ldr	x0, [sp, 32]
	ldr	x0, [x0, 8]
	mov	x1, x0
	mov	x0, x2
	bl	__ZNSt6vectorI9cache_setSaIS0_EEixEm
	add	x0, x0, 32
	ldr	x1, [sp, 56]
	bl	__ZNSt13unordered_mapIiiSt4hashIiESt8equal_toIiESaISt4pairIKiiEEE5eraseENSt8__detail14_Node_iteratorIS6_Lb0ELb0EEE
	ldr	x0, [sp, 40]
	add	x2, x0, 56
	ldr	x0, [sp, 32]
	ldr	x0, [x0, 8]
	mov	x1, x0
	mov	x0, x2
	bl	__ZNSt6vectorI9cache_setSaIS0_EEixEm
	add	x0, x0, 88
	bl	__ZNKSt7__cxx114listIiSaIiEE4sizeEv
	str	w0, [sp, 52]
	ldr	x0, [sp, 40]
	add	x2, x0, 56
	ldr	x0, [sp, 32]
	ldr	x0, [x0, 8]
	mov	x1, x0
	mov	x0, x2
	bl	__ZNSt6vectorI9cache_setSaIS0_EEixEm
	add	x0, x0, 88
	add	x1, sp, 68
	bl	__ZNSt7__cxx114listIiSaIiEE9push_backERKi
	ldr	x0, [sp, 40]
	add	x2, x0, 56
	ldr	x0, [sp, 32]
	ldr	x0, [x0, 8]
	mov	x1, x0
	mov	x0, x2
	bl	__ZNSt6vectorI9cache_setSaIS0_EEixEm
	add	x19, x0, 32
	add	x1, sp, 52
	add	x0, sp, 68
	bl	__ZSt9make_pairIRiS0_ESt4pairINSt25__strip_reference_wrapperINSt5decayIT_E4typeEE6__typeENS2_INS3_IT0_E4typeEE6__typeEEOS4_OS9_
	str	x0, [sp, 112]
	add	x0, sp, 112
	mov	x1, x0
	mov	x0, x19
	bl	__ZNSt13unordered_mapIiiSt4hashIiESt8equal_toIiESaISt4pairIKiiEEE6insertIS4_IiiEEENSt9enable_ifIXsrSt16is_constructibleIS6_JOT_EE5valueES4_INSt8__detail14_Node_iteratorIS6_Lb0ELb0EEEbEE4typeESE_
	ldr	x0, [sp, 32]
	ldr	x19, [x0]
	ldr	x0, [sp, 40]
	add	x2, x0, 56
	ldr	x0, [sp, 32]
	ldr	x0, [x0, 8]
	mov	x1, x0
	mov	x0, x2
	bl	__ZNSt6vectorI9cache_setSaIS0_EEixEm
	add	x0, x0, 8
	ldr	w1, [sp, 68]
	sxtw	x1, w1
	bl	__ZNSt6vectorI5blockSaIS0_EEixEm
	str	x19, [x0, 8]
	b	L94
L89:
	ldr	x0, [sp, 40]
	ldrsb	w0, [x0]
	cmp	w0, 114
	bne	L92
	mov	x0, 0
	bl	_time
	bl	_srand
	ldr	x0, [sp, 40]
	ldr	w0, [x0, 16]
	cmp	w0, 1
	ble	L93
	ldr	w0, [sp, 124]
	sub	w0, w0, #1
	str	w0, [sp, 124]
L93:
	bl	_rand
	ldr	w1, [sp, 124]
	sdiv	w2, w0, w1
	ldr	w1, [sp, 124]
	mul	w1, w2, w1
	sub	w0, w0, w1
	str	w0, [sp, 120]
	ldr	x0, [sp, 32]
	ldr	x19, [x0]
	ldr	x0, [sp, 40]
	add	x2, x0, 56
	ldr	x0, [sp, 32]
	ldr	x0, [x0, 8]
	mov	x1, x0
	mov	x0, x2
	bl	__ZNSt6vectorI9cache_setSaIS0_EEixEm
	add	x0, x0, 8
	ldrsw	x1, [sp, 120]
	bl	__ZNSt6vectorI5blockSaIS0_EEixEm
	str	x19, [x0, 8]
	b	L94
L92:
	adrp	x0, lC2@GOTPAGE
	ldr	x1, [x0, lC2@GOTPAGEOFF];momd
	adrp	x0, __ZSt4cout@GOTPAGE
	ldr	x0, [x0, __ZSt4cout@GOTPAGEOFF];momd
	bl	__ZStlsISt11char_traitsIcEERSt13basic_ostreamIcT_ES5_PKc
	mov	x2, x0
	adrp	x0, __ZSt4endlIcSt11char_traitsIcEERSt13basic_ostreamIT_T0_ES6_@GOTPAGE
	ldr	x1, [x0, __ZSt4endlIcSt11char_traitsIcEERSt13basic_ostreamIT_T0_ES6_@GOTPAGEOFF];momd
	mov	x0, x2
	bl	__ZNSolsEPFRSoS_E
L94:
	nop
	ldr	x19, [sp, 16]
	ldp	x29, x30, [sp], 128
LCFI88:
	ret
LFE4244:
	.cstring
	.align	3
lC3:
	.ascii "Input Error!!\0"
	.align	3
lC4:
	.ascii "Errors on fetching instructions!\0"
	.align	3
lC5:
	.ascii "Error!\0"
	.align	3
lC6:
	.ascii " \0"
	.align	3
lC7:
	.ascii "% \0"
	.align	3
lC8:
	.ascii "%\0"
	.text
	.align	2
	.globl _main
_main:
LFB4245:
	stp	x29, x30, [sp, -496]!
LCFI89:
	mov	x29, sp
	stp	x19, x20, [sp, 16]
	str	d8, [sp, 32]
LCFI90:
	str	w0, [sp, 92]
	str	x1, [sp, 80]
	ldr	w0, [sp, 92]
	cmp	w0, 5
	beq	L96
	adrp	x0, lC3@GOTPAGE
	ldr	x1, [x0, lC3@GOTPAGEOFF];momd
	adrp	x0, __ZSt4cout@GOTPAGE
	ldr	x0, [x0, __ZSt4cout@GOTPAGEOFF];momd
LEHB9:
	bl	__ZStlsISt11char_traitsIcEERSt13basic_ostreamIcT_ES5_PKc
	mov	x2, x0
	adrp	x0, __ZSt4endlIcSt11char_traitsIcEERSt13basic_ostreamIT_T0_ES6_@GOTPAGE
	ldr	x1, [x0, __ZSt4endlIcSt11char_traitsIcEERSt13basic_ostreamIT_T0_ES6_@GOTPAGEOFF];momd
	mov	x0, x2
	bl	__ZNSolsEPFRSoS_E
LEHE9:
	b	L97
L96:
	ldr	x0, [sp, 80]
	add	x0, x0, 8
	ldr	x19, [x0]
	add	x0, sp, 328
	bl	__ZNSaIcEC1Ev
	add	x1, sp, 328
	add	x0, sp, 296
	mov	x2, x1
	mov	x1, x19
LEHB10:
	bl	__ZNSt7__cxx1112basic_stringIcSt11char_traitsIcESaIcEEC1IS3_EEPKcRKS3_
LEHE10:
	add	x0, sp, 296
	mov	w2, 10
	mov	x1, 0
LEHB11:
	bl	__ZNSt7__cxx114stoiERKNS_12basic_stringIcSt11char_traitsIcESaIcEEEPmi
LEHE11:
	str	w0, [sp, 492]
	add	x0, sp, 296
	bl	__ZNSt7__cxx1112basic_stringIcSt11char_traitsIcESaIcEED1Ev
	add	x0, sp, 328
	bl	__ZNSaIcED1Ev
	ldr	x0, [sp, 80]
	add	x0, x0, 16
	ldr	x19, [x0]
	add	x0, sp, 368
	bl	__ZNSaIcEC1Ev
	add	x1, sp, 368
	add	x0, sp, 336
	mov	x2, x1
	mov	x1, x19
LEHB12:
	bl	__ZNSt7__cxx1112basic_stringIcSt11char_traitsIcESaIcEEC1IS3_EEPKcRKS3_
LEHE12:
	add	x0, sp, 336
	mov	w2, 10
	mov	x1, 0
LEHB13:
	bl	__ZNSt7__cxx114stoiERKNS_12basic_stringIcSt11char_traitsIcESaIcEEEPmi
LEHE13:
	str	w0, [sp, 488]
	add	x0, sp, 336
	bl	__ZNSt7__cxx1112basic_stringIcSt11char_traitsIcESaIcEED1Ev
	add	x0, sp, 368
	bl	__ZNSaIcED1Ev
	ldr	x0, [sp, 80]
	add	x0, x0, 24
	ldr	x19, [x0]
	add	x0, sp, 408
	bl	__ZNSaIcEC1Ev
	add	x1, sp, 408
	add	x0, sp, 376
	mov	x2, x1
	mov	x1, x19
LEHB14:
	bl	__ZNSt7__cxx1112basic_stringIcSt11char_traitsIcESaIcEEC1IS3_EEPKcRKS3_
LEHE14:
	add	x0, sp, 376
	mov	w2, 10
	mov	x1, 0
LEHB15:
	bl	__ZNSt7__cxx114stoiERKNS_12basic_stringIcSt11char_traitsIcESaIcEEEPmi
LEHE15:
	str	w0, [sp, 484]
	add	x0, sp, 376
	bl	__ZNSt7__cxx1112basic_stringIcSt11char_traitsIcESaIcEED1Ev
	add	x0, sp, 408
	bl	__ZNSaIcED1Ev
	ldr	x0, [sp, 80]
	add	x0, x0, 32
	ldr	x0, [x0]
	ldrb	w0, [x0]
	strb	w0, [sp, 483]
L97:
	ldr	w1, [sp, 488]
	ldr	w0, [sp, 484]
	mul	w0, w1, w0
	str	w0, [sp, 472]
	ldr	w0, [sp, 492]
	lsl	w1, w0, 10
	ldr	w0, [sp, 472]
	sdiv	w0, w1, w0
	str	w0, [sp, 468]
	ldr	w0, [sp, 468]
	bl	__ZSt4log2IiEN9__gnu_cxx11__enable_ifIXsrSt12__is_integerIT_E7__valueEdE6__typeES3_
	mov	x0, 4634204016564240384
	fmov	d1, x0
	fsub	d8, d1, d0
	ldr	w0, [sp, 484]
	bl	__ZSt4log2IiEN9__gnu_cxx11__enable_ifIXsrSt12__is_integerIT_E7__valueEdE6__typeES3_
	fsub	d0, d8, d0
	fcvtzu	d0, d0
	str	d0, [sp, 272]
	ldr	w0, [sp, 468]
	bl	__ZSt4log2IiEN9__gnu_cxx11__enable_ifIXsrSt12__is_integerIT_E7__valueEdE6__typeES3_
	fcvtzu	d0, d0
	str	d0, [sp, 280]
	ldr	w0, [sp, 484]
	bl	__ZSt4log2IiEN9__gnu_cxx11__enable_ifIXsrSt12__is_integerIT_E7__valueEdE6__typeES3_
	fcvtzu	d0, d0
	str	d0, [sp, 288]
	add	x2, sp, 48
	add	x3, sp, 272
	ldp	x0, x1, [x3]
	stp	x0, x1, [x2]
	ldr	x0, [x3, 16]
	str	x0, [x2, 16]
	add	x1, sp, 48
	add	x0, sp, 168
	mov	x7, x1
	ldr	w6, [sp, 468]
	ldr	w5, [sp, 488]
	ldr	w4, [sp, 472]
	ldr	w3, [sp, 484]
	ldr	w2, [sp, 492]
	ldrb	w1, [sp, 483]
LEHB16:
	bl	__ZN5cacheC1Eciiiii6cache_
LEHE16:
	add	x0, sp, 136
	bl	__ZNSt7__cxx1112basic_stringIcSt11char_traitsIcESaIcEEC1Ev
	str	wzr, [sp, 476]
	b	L98
L108:
	ldr	w0, [sp, 476]
	add	w0, w0, 1
	str	w0, [sp, 476]
	str	xzr, [sp, 120]
	add	x2, sp, 120
	add	x1, sp, 135
	add	x0, sp, 136
LEHB17:
	bl	__Z3insRKNSt7__cxx1112basic_stringIcSt11char_traitsIcESaIcEEERcRy
	and	w0, w0, 255
	cmp	w0, 0
	beq	L99
	ldr	x1, [sp, 120]
	add	x2, sp, 96
	add	x0, sp, 272
	bl	__Z8fetchingRK6cache_yRS_
	b	L127
L99:
	adrp	x0, lC4@GOTPAGE
	ldr	x1, [x0, lC4@GOTPAGEOFF];momd
	adrp	x0, __ZSt4cout@GOTPAGE
	ldr	x0, [x0, __ZSt4cout@GOTPAGEOFF];momd
	bl	__ZStlsISt11char_traitsIcEERSt13basic_ostreamIcT_ES5_PKc
	mov	x2, x0
	adrp	x0, __ZSt4endlIcSt11char_traitsIcEERSt13basic_ostreamIT_T0_ES6_@GOTPAGE
	ldr	x1, [x0, __ZSt4endlIcSt11char_traitsIcEERSt13basic_ostreamIT_T0_ES6_@GOTPAGEOFF];momd
	mov	x0, x2
	bl	__ZNSolsEPFRSoS_E
	mov	w20, 0
	b	L101
L127:
	ldrsb	w0, [sp, 135]
	cmp	w0, 114
	bne	L102
	ldr	x0, [sp, 192]
	add	x0, x0, 1
	str	x0, [sp, 192]
	add	x1, sp, 96
	add	x0, sp, 168
	bl	__Z10addr_validR5cacheRK6cache_
	and	w0, w0, 255
	cmp	w0, 0
	beq	L103
	ldr	x0, [sp, 200]
	add	x0, x0, 1
	str	x0, [sp, 200]
	b	L98
L103:
	add	x1, sp, 96
	add	x0, sp, 168
	bl	__Z7replaceR5cacheRK6cache_
	b	L98
L102:
	ldrsb	w0, [sp, 135]
	cmp	w0, 119
	bne	L105
	ldr	x0, [sp, 208]
	add	x0, x0, 1
	str	x0, [sp, 208]
	add	x1, sp, 96
	add	x0, sp, 168
	bl	__Z10addr_validR5cacheRK6cache_
	and	w0, w0, 255
	cmp	w0, 0
	beq	L106
	ldr	x0, [sp, 216]
	add	x0, x0, 1
	str	x0, [sp, 216]
	b	L98
L106:
	add	x1, sp, 96
	add	x0, sp, 168
	bl	__Z7replaceR5cacheRK6cache_
	b	L98
L105:
	adrp	x0, lC5@GOTPAGE
	ldr	x1, [x0, lC5@GOTPAGEOFF];momd
	adrp	x0, __ZSt4cout@GOTPAGE
	ldr	x0, [x0, __ZSt4cout@GOTPAGEOFF];momd
	bl	__ZStlsISt11char_traitsIcEERSt13basic_ostreamIcT_ES5_PKc
	mov	x2, x0
	adrp	x0, __ZSt4endlIcSt11char_traitsIcEERSt13basic_ostreamIT_T0_ES6_@GOTPAGE
	ldr	x1, [x0, __ZSt4endlIcSt11char_traitsIcEERSt13basic_ostreamIT_T0_ES6_@GOTPAGEOFF];momd
	mov	x0, x2
	bl	__ZNSolsEPFRSoS_E
	mov	w20, 0
L101:
	mov	w19, 0
	b	L107
L98:
	add	x0, sp, 136
	mov	x1, x0
	adrp	x0, __ZSt3cin@GOTPAGE
	ldr	x0, [x0, __ZSt3cin@GOTPAGEOFF];momd
	bl	__ZSt7getlineIcSt11char_traitsIcESaIcEERSt13basic_istreamIT_T0_ES7_RNSt7__cxx1112basic_stringIS4_S5_T1_EE
	ldr	x1, [x0]
	sub	x1, x1, #24
	ldr	x1, [x1]
	add	x0, x0, x1
	bl	__ZNKSt9basic_iosIcSt11char_traitsIcEEcvbEv
	and	w0, w0, 255
	cmp	w0, 0
	bne	L108
	ldr	x1, [sp, 192]
	ldr	x0, [sp, 200]
	sub	x0, x1, x0
	str	x0, [sp, 456]
	ldr	x1, [sp, 208]
	ldr	x0, [sp, 216]
	sub	x0, x1, x0
	str	x0, [sp, 448]
	ldr	d0, [sp, 456]
	ucvtf	d0, d0
	mov	x0, 4636737291354636288
	fmov	d1, x0
	fmul	d1, d0, d1
	ldr	d0, [sp, 192]
	ucvtf	d0, d0
	fdiv	d0, d1, d0
	str	d0, [sp, 440]
	ldr	d0, [sp, 448]
	ucvtf	d0, d0
	mov	x0, 4636737291354636288
	fmov	d1, x0
	fmul	d1, d0, d1
	ldr	d0, [sp, 208]
	ucvtf	d0, d0
	fdiv	d0, d1, d0
	str	d0, [sp, 432]
	ldr	x1, [sp, 456]
	ldr	x0, [sp, 448]
	add	x0, x1, x0
	str	x0, [sp, 424]
	ldr	d0, [sp, 424]
	ucvtf	d0, d0
	mov	x0, 4636737291354636288
	fmov	d1, x0
	fmul	d1, d0, d1
	ldr	x1, [sp, 192]
	ldr	x0, [sp, 208]
	add	x0, x1, x0
	fmov	d0, x0
	ucvtf	d0, d0
	fdiv	d0, d1, d0
	str	d0, [sp, 416]
	ldr	x1, [sp, 424]
	adrp	x0, __ZSt4cout@GOTPAGE
	ldr	x0, [x0, __ZSt4cout@GOTPAGEOFF];momd
	bl	__ZNSolsEy
	mov	x2, x0
	adrp	x0, lC6@GOTPAGE
	ldr	x1, [x0, lC6@GOTPAGEOFF];momd
	mov	x0, x2
	bl	__ZStlsISt11char_traitsIcEERSt13basic_ostreamIcT_ES5_PKc
	ldr	d0, [sp, 416]
	bl	__ZNSolsEd
	mov	x2, x0
	adrp	x0, lC7@GOTPAGE
	ldr	x1, [x0, lC7@GOTPAGEOFF];momd
	mov	x0, x2
	bl	__ZStlsISt11char_traitsIcEERSt13basic_ostreamIcT_ES5_PKc
	ldr	x1, [sp, 456]
	bl	__ZNSolsEy
	mov	x2, x0
	adrp	x0, lC6@GOTPAGE
	ldr	x1, [x0, lC6@GOTPAGEOFF];momd
	mov	x0, x2
	bl	__ZStlsISt11char_traitsIcEERSt13basic_ostreamIcT_ES5_PKc
	ldr	d0, [sp, 440]
	bl	__ZNSolsEd
	mov	x2, x0
	adrp	x0, lC7@GOTPAGE
	ldr	x1, [x0, lC7@GOTPAGEOFF];momd
	mov	x0, x2
	bl	__ZStlsISt11char_traitsIcEERSt13basic_ostreamIcT_ES5_PKc
	ldr	x1, [sp, 448]
	bl	__ZNSolsEy
	mov	x2, x0
	adrp	x0, lC6@GOTPAGE
	ldr	x1, [x0, lC6@GOTPAGEOFF];momd
	mov	x0, x2
	bl	__ZStlsISt11char_traitsIcEERSt13basic_ostreamIcT_ES5_PKc
	ldr	d0, [sp, 432]
	bl	__ZNSolsEd
	mov	x2, x0
	adrp	x0, lC8@GOTPAGE
	ldr	x1, [x0, lC8@GOTPAGEOFF];momd
	mov	x0, x2
	bl	__ZStlsISt11char_traitsIcEERSt13basic_ostreamIcT_ES5_PKc
	mov	x2, x0
	adrp	x0, __ZSt4endlIcSt11char_traitsIcEERSt13basic_ostreamIT_T0_ES6_@GOTPAGE
	ldr	x1, [x0, __ZSt4endlIcSt11char_traitsIcEERSt13basic_ostreamIT_T0_ES6_@GOTPAGEOFF];momd
	mov	x0, x2
	bl	__ZNSolsEPFRSoS_E
LEHE17:
	mov	w19, 1
L107:
	add	x0, sp, 136
	bl	__ZNSt7__cxx1112basic_stringIcSt11char_traitsIcESaIcEED1Ev
	cmp	w19, 1
	bne	L109
	mov	w19, 1
	b	L110
L109:
	mov	w19, 0
L110:
	add	x0, sp, 168
	bl	__ZN5cacheD1Ev
	cmp	w19, 1
	bne	L112
	mov	w20, 0
L112:
	mov	w0, w20
	b	L128
L121:
	mov	x19, x0
	add	x0, sp, 296
	bl	__ZNSt7__cxx1112basic_stringIcSt11char_traitsIcESaIcEED1Ev
	b	L114
L120:
	mov	x19, x0
L114:
	add	x0, sp, 328
	bl	__ZNSaIcED1Ev
	mov	x0, x19
LEHB18:
	bl	__Unwind_Resume
L123:
	mov	x19, x0
	add	x0, sp, 336
	bl	__ZNSt7__cxx1112basic_stringIcSt11char_traitsIcESaIcEED1Ev
	b	L116
L122:
	mov	x19, x0
L116:
	add	x0, sp, 368
	bl	__ZNSaIcED1Ev
	mov	x0, x19
	bl	__Unwind_Resume
L125:
	mov	x19, x0
	add	x0, sp, 376
	bl	__ZNSt7__cxx1112basic_stringIcSt11char_traitsIcESaIcEED1Ev
	b	L118
L124:
	mov	x19, x0
L118:
	add	x0, sp, 408
	bl	__ZNSaIcED1Ev
	mov	x0, x19
	bl	__Unwind_Resume
L126:
	mov	x19, x0
	add	x0, sp, 136
	bl	__ZNSt7__cxx1112basic_stringIcSt11char_traitsIcESaIcEED1Ev
	add	x0, sp, 168
	bl	__ZN5cacheD1Ev
	mov	x0, x19
	bl	__Unwind_Resume
LEHE18:
L128:
	ldr	d8, [sp, 32]
	ldp	x19, x20, [sp, 16]
	ldp	x29, x30, [sp], 496
LCFI91:
	ret
LFE4245:
	.section __DATA,__gcc_except_tab
_GCC_except_table3:
LLSDA4245:
	.byte	0xff
	.byte	0xff
	.byte	0x1
	.uleb128 LLSDACSE4245-LLSDACSB4245
LLSDACSB4245:
	.uleb128 LEHB9-LFB4245
	.uleb128 LEHE9-LEHB9
	.uleb128 0
	.uleb128 0
	.uleb128 LEHB10-LFB4245
	.uleb128 LEHE10-LEHB10
	.uleb128 L120-LFB4245
	.uleb128 0
	.uleb128 LEHB11-LFB4245
	.uleb128 LEHE11-LEHB11
	.uleb128 L121-LFB4245
	.uleb128 0
	.uleb128 LEHB12-LFB4245
	.uleb128 LEHE12-LEHB12
	.uleb128 L122-LFB4245
	.uleb128 0
	.uleb128 LEHB13-LFB4245
	.uleb128 LEHE13-LEHB13
	.uleb128 L123-LFB4245
	.uleb128 0
	.uleb128 LEHB14-LFB4245
	.uleb128 LEHE14-LEHB14
	.uleb128 L124-LFB4245
	.uleb128 0
	.uleb128 LEHB15-LFB4245
	.uleb128 LEHE15-LEHB15
	.uleb128 L125-LFB4245
	.uleb128 0
	.uleb128 LEHB16-LFB4245
	.uleb128 LEHE16-LEHB16
	.uleb128 0
	.uleb128 0
	.uleb128 LEHB17-LFB4245
	.uleb128 LEHE17-LEHB17
	.uleb128 L126-LFB4245
	.uleb128 0
	.uleb128 LEHB18-LFB4245
	.uleb128 LEHE18-LEHB18
	.uleb128 0
	.uleb128 0
LLSDACSE4245:
	.text
	.align	2
	.globl __ZN9__gnu_cxx11char_traitsIcE2eqERKcS3_
	.weak_definition __ZN9__gnu_cxx11char_traitsIcE2eqERKcS3_
__ZN9__gnu_cxx11char_traitsIcE2eqERKcS3_:
LFB4299:
	sub	sp, sp, #16
LCFI92:
	str	x0, [sp, 8]
	str	x1, [sp]
	ldr	x0, [sp, 8]
	ldrsb	w1, [x0]
	ldr	x0, [sp]
	ldrsb	w0, [x0]
	cmp	w1, w0
	cset	w0, eq
	and	w0, w0, 255
	add	sp, sp, 16
LCFI93:
	ret
LFE4299:
	.align	2
	.globl __ZN9__gnu_cxx11char_traitsIcE6lengthEPKc
	.weak_definition __ZN9__gnu_cxx11char_traitsIcE6lengthEPKc
__ZN9__gnu_cxx11char_traitsIcE6lengthEPKc:
LFB4298:
	stp	x29, x30, [sp, -48]!
LCFI94:
	mov	x29, sp
	str	x0, [sp, 24]
	str	xzr, [sp, 40]
	b	L132
L133:
	ldr	x0, [sp, 40]
	add	x0, x0, 1
	str	x0, [sp, 40]
L132:
	ldr	x1, [sp, 24]
	ldr	x0, [sp, 40]
	add	x0, x1, x0
	strb	wzr, [sp, 39]
	add	x1, sp, 39
	bl	__ZN9__gnu_cxx11char_traitsIcE2eqERKcS3_
	and	w0, w0, 255
	eor	w0, w0, 1
	and	w0, w0, 255
	cmp	w0, 0
	bne	L133
	ldr	x0, [sp, 40]
	ldp	x29, x30, [sp], 48
LCFI95:
	ret
LFE4298:
	.align	2
	.globl __ZZN9__gnu_cxx6__stoaIlicJiEEET0_PFT_PKT1_PPS3_DpT2_EPKcS5_PmS9_EN11_Save_errnoC1Ev
	.weak_definition __ZZN9__gnu_cxx6__stoaIlicJiEEET0_PFT_PKT1_PPS3_DpT2_EPKcS5_PmS9_EN11_Save_errnoC1Ev
__ZZN9__gnu_cxx6__stoaIlicJiEEET0_PFT_PKT1_PPS3_DpT2_EPKcS5_PmS9_EN11_Save_errnoC1Ev:
LFB4329:
	stp	x29, x30, [sp, -32]!
LCFI96:
	mov	x29, sp
	str	x0, [sp, 24]
	bl	___error
	ldr	w1, [x0]
	ldr	x0, [sp, 24]
	str	w1, [x0]
	bl	___error
	str	wzr, [x0]
	nop
	ldp	x29, x30, [sp], 32
LCFI97:
	ret
LFE4329:
	.align	2
	.globl __ZZN9__gnu_cxx6__stoaIlicJiEEET0_PFT_PKT1_PPS3_DpT2_EPKcS5_PmS9_EN11_Save_errnoD1Ev
	.weak_definition __ZZN9__gnu_cxx6__stoaIlicJiEEET0_PFT_PKT1_PPS3_DpT2_EPKcS5_PmS9_EN11_Save_errnoD1Ev
__ZZN9__gnu_cxx6__stoaIlicJiEEET0_PFT_PKT1_PPS3_DpT2_EPKcS5_PmS9_EN11_Save_errnoD1Ev:
LFB4332:
	stp	x29, x30, [sp, -48]!
LCFI98:
	mov	x29, sp
	str	x19, [sp, 16]
LCFI99:
	str	x0, [sp, 40]
	bl	___error
	ldr	w0, [x0]
	cmp	w0, 0
	cset	w0, eq
	and	w0, w0, 255
	cmp	w0, 0
	beq	L138
	ldr	x0, [sp, 40]
	ldr	w19, [x0]
	bl	___error
	str	w19, [x0]
L138:
	nop
	ldr	x19, [sp, 16]
	ldp	x29, x30, [sp], 48
LCFI100:
	ret
LFE4332:
	.section __DATA,__gcc_except_tab
_GCC_except_table4:
LLSDA4332:
	.byte	0xff
	.byte	0xff
	.byte	0x1
	.uleb128 LLSDACSE4332-LLSDACSB4332
LLSDACSB4332:
LLSDACSE4332:
	.text
	.align	2
	.globl __ZZN9__gnu_cxx6__stoaIlicJiEEET0_PFT_PKT1_PPS3_DpT2_EPKcS5_PmS9_EN10_Range_chk6_S_chkElSt17integral_constantIbLb1EE
	.weak_definition __ZZN9__gnu_cxx6__stoaIlicJiEEET0_PFT_PKT1_PPS3_DpT2_EPKcS5_PmS9_EN10_Range_chk6_S_chkElSt17integral_constantIbLb1EE
__ZZN9__gnu_cxx6__stoaIlicJiEEET0_PFT_PKT1_PPS3_DpT2_EPKcS5_PmS9_EN10_Range_chk6_S_chkElSt17integral_constantIbLb1EE:
LFB4334:
	sub	sp, sp, #16
LCFI101:
	str	x0, [sp, 8]
	strb	w1, [sp]
	ldr	x1, [sp, 8]
	mov	x0, -2147483648
	cmp	x1, x0
	blt	L140
	ldr	x1, [sp, 8]
	mov	x0, 2147483647
	cmp	x1, x0
	ble	L141
L140:
	mov	w0, 1
	b	L142
L141:
	mov	w0, 0
L142:
	add	sp, sp, 16
LCFI102:
	ret
LFE4334:
	.align	2
	.globl __ZN9__gnu_cxx6__stoaIlicJiEEET0_PFT_PKT1_PPS3_DpT2_EPKcS5_PmS9_
	.weak_definition __ZN9__gnu_cxx6__stoaIlicJiEEET0_PFT_PKT1_PPS3_DpT2_EPKcS5_PmS9_
__ZN9__gnu_cxx6__stoaIlicJiEEET0_PFT_PKT1_PPS3_DpT2_EPKcS5_PmS9_:
LFB4326:
	stp	x29, x30, [sp, -112]!
LCFI103:
	mov	x29, sp
	str	x19, [sp, 16]
LCFI104:
	str	x0, [sp, 72]
	str	x1, [sp, 64]
	str	x2, [sp, 56]
	str	x3, [sp, 48]
	str	w4, [sp, 44]
	add	x0, sp, 80
LEHB19:
	bl	__ZZN9__gnu_cxx6__stoaIlicJiEEET0_PFT_PKT1_PPS3_DpT2_EPKcS5_PmS9_EN11_Save_errnoC1Ev
LEHE19:
	ldr	x3, [sp, 72]
	add	x0, sp, 88
	ldr	w2, [sp, 44]
	mov	x1, x0
	ldr	x0, [sp, 56]
LEHB20:
	blr	x3
	str	x0, [sp, 104]
	ldr	x0, [sp, 88]
	ldr	x1, [sp, 56]
	cmp	x1, x0
	bne	L145
	ldr	x0, [sp, 64]
	bl	__ZSt24__throw_invalid_argumentPKc
L145:
	bl	___error
	ldr	w0, [x0]
	cmp	w0, 34
	beq	L146
	mov	w1, w19
	ldr	x0, [sp, 104]
	bl	__ZZN9__gnu_cxx6__stoaIlicJiEEET0_PFT_PKT1_PPS3_DpT2_EPKcS5_PmS9_EN10_Range_chk6_S_chkElSt17integral_constantIbLb1EE
	and	w0, w0, 255
	cmp	w0, 0
	beq	L147
L146:
	mov	w0, 1
	b	L148
L147:
	mov	w0, 0
L148:
	cmp	w0, 0
	beq	L149
	ldr	x0, [sp, 64]
	bl	__ZSt20__throw_out_of_rangePKc
LEHE20:
L149:
	ldr	x0, [sp, 104]
	str	w0, [sp, 100]
	ldr	x0, [sp, 48]
	cmp	x0, 0
	beq	L150
	ldr	x1, [sp, 88]
	ldr	x0, [sp, 56]
	sub	x0, x1, x0
	mov	x1, x0
	ldr	x0, [sp, 48]
	str	x1, [x0]
L150:
	ldr	w19, [sp, 100]
	add	x0, sp, 80
	bl	__ZZN9__gnu_cxx6__stoaIlicJiEEET0_PFT_PKT1_PPS3_DpT2_EPKcS5_PmS9_EN11_Save_errnoD1Ev
	mov	w0, w19
	b	L154
L153:
	mov	x19, x0
	add	x0, sp, 80
	bl	__ZZN9__gnu_cxx6__stoaIlicJiEEET0_PFT_PKT1_PPS3_DpT2_EPKcS5_PmS9_EN11_Save_errnoD1Ev
	mov	x0, x19
LEHB21:
	bl	__Unwind_Resume
LEHE21:
L154:
	ldr	x19, [sp, 16]
	ldp	x29, x30, [sp], 112
LCFI105:
	ret
LFE4326:
	.section __DATA,__gcc_except_tab
_GCC_except_table5:
LLSDA4326:
	.byte	0xff
	.byte	0xff
	.byte	0x1
	.uleb128 LLSDACSE4326-LLSDACSB4326
LLSDACSB4326:
	.uleb128 LEHB19-LFB4326
	.uleb128 LEHE19-LEHB19
	.uleb128 0
	.uleb128 0
	.uleb128 LEHB20-LFB4326
	.uleb128 LEHE20-LEHB20
	.uleb128 L153-LFB4326
	.uleb128 0
	.uleb128 LEHB21-LFB4326
	.uleb128 LEHE21-LEHB21
	.uleb128 0
	.uleb128 0
LLSDACSE4326:
	.text
	.align	2
	.globl __ZNSt7__cxx1112basic_stringIcSt11char_traitsIcESaIcEE12_Alloc_hiderD1Ev
	.weak_definition __ZNSt7__cxx1112basic_stringIcSt11char_traitsIcESaIcEE12_Alloc_hiderD1Ev
__ZNSt7__cxx1112basic_stringIcSt11char_traitsIcESaIcEE12_Alloc_hiderD1Ev:
LFB4407:
	stp	x29, x30, [sp, -32]!
LCFI106:
	mov	x29, sp
	str	x0, [sp, 24]
	ldr	x0, [sp, 24]
	bl	__ZNSaIcED2Ev
	nop
	ldp	x29, x30, [sp], 32
LCFI107:
	ret
LFE4407:
	.align	2
	.globl __ZSt7forwardIiEOT_RNSt16remove_referenceIS0_E4typeE
	.weak_definition __ZSt7forwardIiEOT_RNSt16remove_referenceIS0_E4typeE
__ZSt7forwardIiEOT_RNSt16remove_referenceIS0_E4typeE:
LFB4563:
	sub	sp, sp, #16
LCFI108:
	str	x0, [sp, 8]
	ldr	x0, [sp, 8]
	add	sp, sp, 16
LCFI109:
	ret
LFE4563:
	.align	2
	.globl __ZNSaI5blockEC1Ev
	.weak_definition __ZNSaI5blockEC1Ev
__ZNSaI5blockEC1Ev:
LFB4586:
	stp	x29, x30, [sp, -32]!
LCFI110:
	mov	x29, sp
	str	x0, [sp, 24]
	ldr	x0, [sp, 24]
	bl	__ZN9__gnu_cxx13new_allocatorI5blockEC2Ev
	nop
	ldp	x29, x30, [sp], 32
LCFI111:
	ret
LFE4586:
	.align	2
	.globl __ZNSaI5blockED2Ev
	.weak_definition __ZNSaI5blockED2Ev
__ZNSaI5blockED2Ev:
LFB4588:
	stp	x29, x30, [sp, -32]!
LCFI112:
	mov	x29, sp
	str	x0, [sp, 24]
	ldr	x0, [sp, 24]
	bl	__ZN9__gnu_cxx13new_allocatorI5blockED2Ev
	nop
	ldp	x29, x30, [sp], 32
LCFI113:
	ret
LFE4588:
	.align	2
	.globl __ZNSaI5blockED1Ev
	.weak_definition __ZNSaI5blockED1Ev
__ZNSaI5blockED1Ev:
LFB4589:
	stp	x29, x30, [sp, -32]!
LCFI114:
	mov	x29, sp
	str	x0, [sp, 24]
	ldr	x0, [sp, 24]
	bl	__ZN9__gnu_cxx13new_allocatorI5blockED2Ev
	nop
	ldp	x29, x30, [sp], 32
LCFI115:
	ret
LFE4589:
	.align	2
	.globl __ZNSt6vectorI5blockSaIS0_EEC1EmRKS0_RKS1_
	.weak_definition __ZNSt6vectorI5blockSaIS0_EEC1EmRKS0_RKS1_
__ZNSt6vectorI5blockSaIS0_EEC1EmRKS0_RKS1_:
LFB4592:
	stp	x29, x30, [sp, -64]!
LCFI116:
	mov	x29, sp
	str	x19, [sp, 16]
LCFI117:
	str	x0, [sp, 56]
	str	x1, [sp, 48]
	str	x2, [sp, 40]
	str	x3, [sp, 32]
	ldr	x19, [sp, 56]
	ldr	x1, [sp, 32]
	ldr	x0, [sp, 48]
LEHB22:
	bl	__ZNSt6vectorI5blockSaIS0_EE17_S_check_init_lenEmRKS1_
	ldr	x2, [sp, 32]
	mov	x1, x0
	mov	x0, x19
	bl	__ZNSt12_Vector_baseI5blockSaIS0_EEC2EmRKS1_
LEHE22:
	ldr	x2, [sp, 40]
	ldr	x1, [sp, 48]
	ldr	x0, [sp, 56]
LEHB23:
	bl	__ZNSt6vectorI5blockSaIS0_EE18_M_fill_initializeEmRKS0_
LEHE23:
	b	L164
L163:
	mov	x19, x0
	ldr	x0, [sp, 56]
	bl	__ZNSt12_Vector_baseI5blockSaIS0_EED2Ev
	mov	x0, x19
LEHB24:
	bl	__Unwind_Resume
LEHE24:
L164:
	ldr	x19, [sp, 16]
	ldp	x29, x30, [sp], 64
LCFI118:
	ret
LFE4592:
	.section __DATA,__gcc_except_tab
_GCC_except_table6:
LLSDA4592:
	.byte	0xff
	.byte	0xff
	.byte	0x1
	.uleb128 LLSDACSE4592-LLSDACSB4592
LLSDACSB4592:
	.uleb128 LEHB22-LFB4592
	.uleb128 LEHE22-LEHB22
	.uleb128 0
	.uleb128 0
	.uleb128 LEHB23-LFB4592
	.uleb128 LEHE23-LEHB23
	.uleb128 L163-LFB4592
	.uleb128 0
	.uleb128 LEHB24-LFB4592
	.uleb128 LEHE24-LEHB24
	.uleb128 0
	.uleb128 0
LLSDACSE4592:
	.text
	.align	2
	.globl __ZNSt6vectorI5blockSaIS0_EED1Ev
	.weak_definition __ZNSt6vectorI5blockSaIS0_EED1Ev
__ZNSt6vectorI5blockSaIS0_EED1Ev:
LFB4595:
	stp	x29, x30, [sp, -48]!
LCFI119:
	mov	x29, sp
	stp	x19, x20, [sp, 16]
LCFI120:
	str	x0, [sp, 40]
	ldr	x0, [sp, 40]
	ldr	x19, [x0]
	ldr	x0, [sp, 40]
	ldr	x20, [x0, 8]
	ldr	x0, [sp, 40]
	bl	__ZNSt12_Vector_baseI5blockSaIS0_EE19_M_get_Tp_allocatorEv
	mov	x2, x0
	mov	x1, x20
	mov	x0, x19
	bl	__ZSt8_DestroyIP5blockS0_EvT_S2_RSaIT0_E
	ldr	x0, [sp, 40]
	bl	__ZNSt12_Vector_baseI5blockSaIS0_EED2Ev
	nop
	ldp	x19, x20, [sp, 16]
	ldp	x29, x30, [sp], 48
LCFI121:
	ret
LFE4595:
	.section __DATA,__gcc_except_tab
_GCC_except_table7:
LLSDA4595:
	.byte	0xff
	.byte	0xff
	.byte	0x1
	.uleb128 LLSDACSE4595-LLSDACSB4595
LLSDACSB4595:
LLSDACSE4595:
	.text
	.align	2
	.globl __ZNSaINSt8__detail10_Hash_nodeISt4pairIKiiELb0EEEEC2Ev
	.weak_definition __ZNSaINSt8__detail10_Hash_nodeISt4pairIKiiELb0EEEEC2Ev
__ZNSaINSt8__detail10_Hash_nodeISt4pairIKiiELb0EEEEC2Ev:
LFB4597:
	stp	x29, x30, [sp, -32]!
LCFI122:
	mov	x29, sp
	str	x0, [sp, 24]
	ldr	x0, [sp, 24]
	bl	__ZN9__gnu_cxx13new_allocatorINSt8__detail10_Hash_nodeISt4pairIKiiELb0EEEEC2Ev
	nop
	ldp	x29, x30, [sp], 32
LCFI123:
	ret
LFE4597:
	.align	2
	.globl __ZNSaINSt8__detail10_Hash_nodeISt4pairIKiiELb0EEEED2Ev
	.weak_definition __ZNSaINSt8__detail10_Hash_nodeISt4pairIKiiELb0EEEED2Ev
__ZNSaINSt8__detail10_Hash_nodeISt4pairIKiiELb0EEEED2Ev:
LFB4600:
	stp	x29, x30, [sp, -32]!
LCFI124:
	mov	x29, sp
	str	x0, [sp, 24]
	ldr	x0, [sp, 24]
	bl	__ZN9__gnu_cxx13new_allocatorINSt8__detail10_Hash_nodeISt4pairIKiiELb0EEEED2Ev
	nop
	ldp	x29, x30, [sp], 32
LCFI125:
	ret
LFE4600:
	.align	2
	.globl __ZNSaINSt8__detail10_Hash_nodeISt4pairIKiiELb0EEEED1Ev
	.weak_definition __ZNSaINSt8__detail10_Hash_nodeISt4pairIKiiELb0EEEED1Ev
__ZNSaINSt8__detail10_Hash_nodeISt4pairIKiiELb0EEEED1Ev:
LFB4601:
	stp	x29, x30, [sp, -32]!
LCFI126:
	mov	x29, sp
	str	x0, [sp, 24]
	ldr	x0, [sp, 24]
	bl	__ZN9__gnu_cxx13new_allocatorINSt8__detail10_Hash_nodeISt4pairIKiiELb0EEEED2Ev
	nop
	ldp	x29, x30, [sp], 32
LCFI127:
	ret
LFE4601:
	.align	2
	.globl __ZNSt10_HashtableIiSt4pairIKiiESaIS2_ENSt8__detail10_Select1stESt8equal_toIiESt4hashIiENS4_18_Mod_range_hashingENS4_20_Default_ranged_hashENS4_20_Prime_rehash_policyENS4_17_Hashtable_traitsILb0ELb0ELb1EEEED1Ev
	.weak_definition __ZNSt10_HashtableIiSt4pairIKiiESaIS2_ENSt8__detail10_Select1stESt8equal_toIiESt4hashIiENS4_18_Mod_range_hashingENS4_20_Default_ranged_hashENS4_20_Prime_rehash_policyENS4_17_Hashtable_traitsILb0ELb0ELb1EEEED1Ev
__ZNSt10_HashtableIiSt4pairIKiiESaIS2_ENSt8__detail10_Select1stESt8equal_toIiESt4hashIiENS4_18_Mod_range_hashingENS4_20_Default_ranged_hashENS4_20_Prime_rehash_policyENS4_17_Hashtable_traitsILb0ELb0ELb1EEEED1Ev:
LFB4604:
	stp	x29, x30, [sp, -32]!
LCFI128:
	mov	x29, sp
	str	x0, [sp, 24]
	ldr	x0, [sp, 24]
	bl	__ZNSt10_HashtableIiSt4pairIKiiESaIS2_ENSt8__detail10_Select1stESt8equal_toIiESt4hashIiENS4_18_Mod_range_hashingENS4_20_Default_ranged_hashENS4_20_Prime_rehash_policyENS4_17_Hashtable_traitsILb0ELb0ELb1EEEE5clearEv
	ldr	x0, [sp, 24]
	bl	__ZNSt10_HashtableIiSt4pairIKiiESaIS2_ENSt8__detail10_Select1stESt8equal_toIiESt4hashIiENS4_18_Mod_range_hashingENS4_20_Default_ranged_hashENS4_20_Prime_rehash_policyENS4_17_Hashtable_traitsILb0ELb0ELb1EEEE21_M_deallocate_bucketsEv
	ldr	x0, [sp, 24]
	bl	__ZNSt8__detail16_Hashtable_allocISaINS_10_Hash_nodeISt4pairIKiiELb0EEEEED2Ev
	nop
	ldp	x29, x30, [sp], 32
LCFI129:
	ret
LFE4604:
	.section __DATA,__gcc_except_tab
_GCC_except_table8:
LLSDA4604:
	.byte	0xff
	.byte	0xff
	.byte	0x1
	.uleb128 LLSDACSE4604-LLSDACSB4604
LLSDACSB4604:
LLSDACSE4604:
	.text
	.align	2
	.globl __ZNSt7__cxx1110_List_baseIiSaIiEE10_List_implC1Ev
	.weak_definition __ZNSt7__cxx1110_List_baseIiSaIiEE10_List_implC1Ev
__ZNSt7__cxx1110_List_baseIiSaIiEE10_List_implC1Ev:
LFB4607:
	stp	x29, x30, [sp, -32]!
LCFI130:
	mov	x29, sp
	str	x0, [sp, 24]
	ldr	x0, [sp, 24]
	bl	__ZNSaISt10_List_nodeIiEEC2Ev
	ldr	x0, [sp, 24]
	bl	__ZNSt8__detail17_List_node_headerC1Ev
	nop
	ldp	x29, x30, [sp], 32
LCFI131:
	ret
LFE4607:
	.align	2
	.globl __ZNSaISt10_List_nodeIiEED2Ev
	.weak_definition __ZNSaISt10_List_nodeIiEED2Ev
__ZNSaISt10_List_nodeIiEED2Ev:
LFB4609:
	stp	x29, x30, [sp, -32]!
LCFI132:
	mov	x29, sp
	str	x0, [sp, 24]
	ldr	x0, [sp, 24]
	bl	__ZN9__gnu_cxx13new_allocatorISt10_List_nodeIiEED2Ev
	nop
	ldp	x29, x30, [sp], 32
LCFI133:
	ret
LFE4609:
	.align	2
	.globl __ZNSaISt10_List_nodeIiEED1Ev
	.weak_definition __ZNSaISt10_List_nodeIiEED1Ev
__ZNSaISt10_List_nodeIiEED1Ev:
LFB4610:
	stp	x29, x30, [sp, -32]!
LCFI134:
	mov	x29, sp
	str	x0, [sp, 24]
	ldr	x0, [sp, 24]
	bl	__ZN9__gnu_cxx13new_allocatorISt10_List_nodeIiEED2Ev
	nop
	ldp	x29, x30, [sp], 32
LCFI135:
	ret
LFE4610:
	.align	2
	.globl __ZNSt7__cxx1110_List_baseIiSaIiEED2Ev
	.weak_definition __ZNSt7__cxx1110_List_baseIiSaIiEED2Ev
__ZNSt7__cxx1110_List_baseIiSaIiEED2Ev:
LFB4612:
	stp	x29, x30, [sp, -32]!
LCFI136:
	mov	x29, sp
	str	x0, [sp, 24]
	ldr	x0, [sp, 24]
	bl	__ZNSt7__cxx1110_List_baseIiSaIiEE8_M_clearEv
	ldr	x0, [sp, 24]
	bl	__ZNSt7__cxx1110_List_baseIiSaIiEE10_List_implD1Ev
	nop
	ldp	x29, x30, [sp], 32
LCFI137:
	ret
LFE4612:
	.align	2
	.globl __ZNSaI9cache_setEC1Ev
	.weak_definition __ZNSaI9cache_setEC1Ev
__ZNSaI9cache_setEC1Ev:
LFB4616:
	stp	x29, x30, [sp, -32]!
LCFI138:
	mov	x29, sp
	str	x0, [sp, 24]
	ldr	x0, [sp, 24]
	bl	__ZN9__gnu_cxx13new_allocatorI9cache_setEC2Ev
	nop
	ldp	x29, x30, [sp], 32
LCFI139:
	ret
LFE4616:
	.align	2
	.globl __ZNSaI9cache_setED2Ev
	.weak_definition __ZNSaI9cache_setED2Ev
__ZNSaI9cache_setED2Ev:
LFB4618:
	stp	x29, x30, [sp, -32]!
LCFI140:
	mov	x29, sp
	str	x0, [sp, 24]
	ldr	x0, [sp, 24]
	bl	__ZN9__gnu_cxx13new_allocatorI9cache_setED2Ev
	nop
	ldp	x29, x30, [sp], 32
LCFI141:
	ret
LFE4618:
	.align	2
	.globl __ZNSaI9cache_setED1Ev
	.weak_definition __ZNSaI9cache_setED1Ev
__ZNSaI9cache_setED1Ev:
LFB4619:
	stp	x29, x30, [sp, -32]!
LCFI142:
	mov	x29, sp
	str	x0, [sp, 24]
	ldr	x0, [sp, 24]
	bl	__ZN9__gnu_cxx13new_allocatorI9cache_setED2Ev
	nop
	ldp	x29, x30, [sp], 32
LCFI143:
	ret
LFE4619:
	.align	2
	.globl __ZNSt6vectorI9cache_setSaIS0_EEC1EmRKS0_RKS1_
	.weak_definition __ZNSt6vectorI9cache_setSaIS0_EEC1EmRKS0_RKS1_
__ZNSt6vectorI9cache_setSaIS0_EEC1EmRKS0_RKS1_:
LFB4622:
	stp	x29, x30, [sp, -64]!
LCFI144:
	mov	x29, sp
	str	x19, [sp, 16]
LCFI145:
	str	x0, [sp, 56]
	str	x1, [sp, 48]
	str	x2, [sp, 40]
	str	x3, [sp, 32]
	ldr	x19, [sp, 56]
	ldr	x1, [sp, 32]
	ldr	x0, [sp, 48]
LEHB25:
	bl	__ZNSt6vectorI9cache_setSaIS0_EE17_S_check_init_lenEmRKS1_
	ldr	x2, [sp, 32]
	mov	x1, x0
	mov	x0, x19
	bl	__ZNSt12_Vector_baseI9cache_setSaIS0_EEC2EmRKS1_
LEHE25:
	ldr	x2, [sp, 40]
	ldr	x1, [sp, 48]
	ldr	x0, [sp, 56]
LEHB26:
	bl	__ZNSt6vectorI9cache_setSaIS0_EE18_M_fill_initializeEmRKS0_
LEHE26:
	b	L180
L179:
	mov	x19, x0
	ldr	x0, [sp, 56]
	bl	__ZNSt12_Vector_baseI9cache_setSaIS0_EED2Ev
	mov	x0, x19
LEHB27:
	bl	__Unwind_Resume
LEHE27:
L180:
	ldr	x19, [sp, 16]
	ldp	x29, x30, [sp], 64
LCFI146:
	ret
LFE4622:
	.section __DATA,__gcc_except_tab
_GCC_except_table9:
LLSDA4622:
	.byte	0xff
	.byte	0xff
	.byte	0x1
	.uleb128 LLSDACSE4622-LLSDACSB4622
LLSDACSB4622:
	.uleb128 LEHB25-LFB4622
	.uleb128 LEHE25-LEHB25
	.uleb128 0
	.uleb128 0
	.uleb128 LEHB26-LFB4622
	.uleb128 LEHE26-LEHB26
	.uleb128 L179-LFB4622
	.uleb128 0
	.uleb128 LEHB27-LFB4622
	.uleb128 LEHE27-LEHB27
	.uleb128 0
	.uleb128 0
LLSDACSE4622:
	.text
	.align	2
	.globl __ZNSt6vectorI9cache_setSaIS0_EED1Ev
	.weak_definition __ZNSt6vectorI9cache_setSaIS0_EED1Ev
__ZNSt6vectorI9cache_setSaIS0_EED1Ev:
LFB4625:
	stp	x29, x30, [sp, -48]!
LCFI147:
	mov	x29, sp
	stp	x19, x20, [sp, 16]
LCFI148:
	str	x0, [sp, 40]
	ldr	x0, [sp, 40]
	ldr	x19, [x0]
	ldr	x0, [sp, 40]
	ldr	x20, [x0, 8]
	ldr	x0, [sp, 40]
	bl	__ZNSt12_Vector_baseI9cache_setSaIS0_EE19_M_get_Tp_allocatorEv
	mov	x2, x0
	mov	x1, x20
	mov	x0, x19
	bl	__ZSt8_DestroyIP9cache_setS0_EvT_S2_RSaIT0_E
	ldr	x0, [sp, 40]
	bl	__ZNSt12_Vector_baseI9cache_setSaIS0_EED2Ev
	nop
	ldp	x19, x20, [sp, 16]
	ldp	x29, x30, [sp], 48
LCFI149:
	ret
LFE4625:
	.section __DATA,__gcc_except_tab
_GCC_except_table10:
LLSDA4625:
	.byte	0xff
	.byte	0xff
	.byte	0x1
	.uleb128 LLSDACSE4625-LLSDACSB4625
LLSDACSB4625:
LLSDACSE4625:
	.text
	.align	2
	.globl __ZNSt6vectorI9cache_setSaIS0_EEixEm
	.weak_definition __ZNSt6vectorI9cache_setSaIS0_EEixEm
__ZNSt6vectorI9cache_setSaIS0_EEixEm:
LFB4644:
	sub	sp, sp, #16
LCFI150:
	str	x0, [sp, 8]
	str	x1, [sp]
	ldr	x0, [sp, 8]
	ldr	x2, [x0]
	ldr	x1, [sp]
	mov	x0, x1
	lsl	x0, x0, 3
	sub	x0, x0, x1
	lsl	x0, x0, 4
	add	x0, x2, x0
	add	sp, sp, 16
LCFI151:
	ret
LFE4644:
	.align	2
	.globl __ZNSt6vectorI5blockSaIS0_EEixEm
	.weak_definition __ZNSt6vectorI5blockSaIS0_EEixEm
__ZNSt6vectorI5blockSaIS0_EEixEm:
LFB4645:
	sub	sp, sp, #16
LCFI152:
	str	x0, [sp, 8]
	str	x1, [sp]
	ldr	x0, [sp, 8]
	ldr	x1, [x0]
	ldr	x0, [sp]
	lsl	x0, x0, 4
	add	x0, x1, x0
	add	sp, sp, 16
LCFI153:
	ret
LFE4645:
	.align	2
	.globl __ZNSt13unordered_mapIiiSt4hashIiESt8equal_toIiESaISt4pairIKiiEEE4findERS5_
	.weak_definition __ZNSt13unordered_mapIiiSt4hashIiESt8equal_toIiESaISt4pairIKiiEEE4findERS5_
__ZNSt13unordered_mapIiiSt4hashIiESt8equal_toIiESaISt4pairIKiiEEE4findERS5_:
LFB4646:
	stp	x29, x30, [sp, -32]!
LCFI154:
	mov	x29, sp
	str	x0, [sp, 24]
	str	x1, [sp, 16]
	ldr	x0, [sp, 24]
	ldr	x1, [sp, 16]
	bl	__ZNSt10_HashtableIiSt4pairIKiiESaIS2_ENSt8__detail10_Select1stESt8equal_toIiESt4hashIiENS4_18_Mod_range_hashingENS4_20_Default_ranged_hashENS4_20_Prime_rehash_policyENS4_17_Hashtable_traitsILb0ELb0ELb1EEEE4findERS1_
	ldp	x29, x30, [sp], 32
LCFI155:
	ret
LFE4646:
	.align	2
	.globl __ZNSt13unordered_mapIiiSt4hashIiESt8equal_toIiESaISt4pairIKiiEEE3endEv
	.weak_definition __ZNSt13unordered_mapIiiSt4hashIiESt8equal_toIiESaISt4pairIKiiEEE3endEv
__ZNSt13unordered_mapIiiSt4hashIiESt8equal_toIiESaISt4pairIKiiEEE3endEv:
LFB4647:
	stp	x29, x30, [sp, -32]!
LCFI156:
	mov	x29, sp
	str	x0, [sp, 24]
	ldr	x0, [sp, 24]
	bl	__ZNSt10_HashtableIiSt4pairIKiiESaIS2_ENSt8__detail10_Select1stESt8equal_toIiESt4hashIiENS4_18_Mod_range_hashingENS4_20_Default_ranged_hashENS4_20_Prime_rehash_policyENS4_17_Hashtable_traitsILb0ELb0ELb1EEEE3endEv
	ldp	x29, x30, [sp], 32
LCFI157:
	ret
LFE4647:
	.align	2
	.globl __ZNSt8__detailneERKNS_19_Node_iterator_baseISt4pairIKiiELb0EEES6_
	.weak_definition __ZNSt8__detailneERKNS_19_Node_iterator_baseISt4pairIKiiELb0EEES6_
__ZNSt8__detailneERKNS_19_Node_iterator_baseISt4pairIKiiELb0EEES6_:
LFB4648:
	sub	sp, sp, #16
LCFI158:
	str	x0, [sp, 8]
	str	x1, [sp]
	ldr	x0, [sp, 8]
	ldr	x1, [x0]
	ldr	x0, [sp]
	ldr	x0, [x0]
	cmp	x1, x0
	cset	w0, ne
	and	w0, w0, 255
	add	sp, sp, 16
LCFI159:
	ret
LFE4648:
	.align	2
	.globl __ZNKSt8__detail14_Node_iteratorISt4pairIKiiELb0ELb0EEptEv
	.weak_definition __ZNKSt8__detail14_Node_iteratorISt4pairIKiiELb0ELb0EEptEv
__ZNKSt8__detail14_Node_iteratorISt4pairIKiiELb0ELb0EEptEv:
LFB4649:
	stp	x29, x30, [sp, -32]!
LCFI160:
	mov	x29, sp
	str	x0, [sp, 24]
	ldr	x0, [sp, 24]
	ldr	x0, [x0]
	add	x0, x0, 8
	bl	__ZNSt8__detail21_Hash_node_value_baseISt4pairIKiiEE9_M_valptrEv
	ldp	x29, x30, [sp], 32
LCFI161:
	ret
LFE4649:
	.align	2
	.globl __ZNSt7__cxx114listIiSaIiEE5beginEv
	.weak_definition __ZNSt7__cxx114listIiSaIiEE5beginEv
__ZNSt7__cxx114listIiSaIiEE5beginEv:
LFB4650:
	stp	x29, x30, [sp, -48]!
LCFI162:
	mov	x29, sp
	str	x0, [sp, 24]
	ldr	x0, [sp, 24]
	ldr	x1, [x0]
	add	x0, sp, 40
	bl	__ZNSt14_List_iteratorIiEC1EPNSt8__detail15_List_node_baseE
	ldr	x0, [sp, 40]
	ldp	x29, x30, [sp], 48
LCFI163:
	ret
LFE4650:
	.align	2
	.globl __ZNSt7__cxx114listIiSaIiEE3endEv
	.weak_definition __ZNSt7__cxx114listIiSaIiEE3endEv
__ZNSt7__cxx114listIiSaIiEE3endEv:
LFB4651:
	stp	x29, x30, [sp, -48]!
LCFI164:
	mov	x29, sp
	str	x0, [sp, 24]
	ldr	x1, [sp, 24]
	add	x0, sp, 40
	bl	__ZNSt14_List_iteratorIiEC1EPNSt8__detail15_List_node_baseE
	ldr	x0, [sp, 40]
	ldp	x29, x30, [sp], 48
LCFI165:
	ret
LFE4651:
	.align	2
	.globl __ZSt4findISt14_List_iteratorIiEiET_S2_S2_RKT0_
	.weak_definition __ZSt4findISt14_List_iteratorIiEiET_S2_S2_RKT0_
__ZSt4findISt14_List_iteratorIiEiET_S2_S2_RKT0_:
LFB4652:
	stp	x29, x30, [sp, -48]!
LCFI166:
	mov	x29, sp
	str	x0, [sp, 40]
	str	x1, [sp, 32]
	str	x2, [sp, 24]
	ldr	x0, [sp, 24]
	bl	__ZN9__gnu_cxx5__ops17__iter_equals_valIKiEENS0_16_Iter_equals_valIT_EERS4_
	mov	x2, x0
	ldr	x1, [sp, 32]
	ldr	x0, [sp, 40]
	bl	__ZSt9__find_ifISt14_List_iteratorIiEN9__gnu_cxx5__ops16_Iter_equals_valIKiEEET_S7_S7_T0_
	ldp	x29, x30, [sp], 48
LCFI167:
	ret
LFE4652:
	.align	2
	.globl __ZStneRKSt14_List_iteratorIiES2_
	.weak_definition __ZStneRKSt14_List_iteratorIiES2_
__ZStneRKSt14_List_iteratorIiES2_:
LFB4653:
	sub	sp, sp, #16
LCFI168:
	str	x0, [sp, 8]
	str	x1, [sp]
	ldr	x0, [sp, 8]
	ldr	x1, [x0]
	ldr	x0, [sp]
	ldr	x0, [x0]
	cmp	x1, x0
	cset	w0, ne
	and	w0, w0, 255
	add	sp, sp, 16
LCFI169:
	ret
LFE4653:
	.align	2
	.globl __ZNSt20_List_const_iteratorIiEC1ERKSt14_List_iteratorIiE
	.weak_definition __ZNSt20_List_const_iteratorIiEC1ERKSt14_List_iteratorIiE
__ZNSt20_List_const_iteratorIiEC1ERKSt14_List_iteratorIiE:
LFB4656:
	sub	sp, sp, #16
LCFI170:
	str	x0, [sp, 8]
	str	x1, [sp]
	ldr	x0, [sp]
	ldr	x1, [x0]
	ldr	x0, [sp, 8]
	str	x1, [x0]
	nop
	add	sp, sp, 16
LCFI171:
	ret
LFE4656:
	.align	2
	.globl __ZNSt7__cxx114listIiSaIiEE5eraseESt20_List_const_iteratorIiE
	.weak_definition __ZNSt7__cxx114listIiSaIiEE5eraseESt20_List_const_iteratorIiE
__ZNSt7__cxx114listIiSaIiEE5eraseESt20_List_const_iteratorIiE:
LFB4657:
	stp	x29, x30, [sp, -48]!
LCFI172:
	mov	x29, sp
	str	x0, [sp, 24]
	str	x1, [sp, 16]
	ldr	x0, [sp, 16]
	ldr	x1, [x0]
	add	x0, sp, 40
	bl	__ZNSt14_List_iteratorIiEC1EPNSt8__detail15_List_node_baseE
	add	x0, sp, 16
	bl	__ZNKSt20_List_const_iteratorIiE13_M_const_castEv
	mov	x1, x0
	ldr	x0, [sp, 24]
	bl	__ZNSt7__cxx114listIiSaIiEE8_M_eraseESt14_List_iteratorIiE
	ldr	x0, [sp, 40]
	ldp	x29, x30, [sp], 48
LCFI173:
	ret
LFE4657:
	.align	2
	.globl __ZNSt13unordered_mapIiiSt4hashIiESt8equal_toIiESaISt4pairIKiiEEE5eraseENSt8__detail14_Node_iteratorIS6_Lb0ELb0EEE
	.weak_definition __ZNSt13unordered_mapIiiSt4hashIiESt8equal_toIiESaISt4pairIKiiEEE5eraseENSt8__detail14_Node_iteratorIS6_Lb0ELb0EEE
__ZNSt13unordered_mapIiiSt4hashIiESt8equal_toIiESaISt4pairIKiiEEE5eraseENSt8__detail14_Node_iteratorIS6_Lb0ELb0EEE:
LFB4658:
	stp	x29, x30, [sp, -32]!
LCFI174:
	mov	x29, sp
	str	x0, [sp, 24]
	str	x1, [sp, 16]
	ldr	x0, [sp, 24]
	ldr	x1, [sp, 16]
	bl	__ZNSt10_HashtableIiSt4pairIKiiESaIS2_ENSt8__detail10_Select1stESt8equal_toIiESt4hashIiENS4_18_Mod_range_hashingENS4_20_Default_ranged_hashENS4_20_Prime_rehash_policyENS4_17_Hashtable_traitsILb0ELb0ELb1EEEE5eraseENS4_14_Node_iteratorIS2_Lb0ELb0EEE
	ldp	x29, x30, [sp], 32
LCFI175:
	ret
LFE4658:
	.align	2
	.globl __ZNKSt7__cxx114listIiSaIiEE4sizeEv
	.weak_definition __ZNKSt7__cxx114listIiSaIiEE4sizeEv
__ZNKSt7__cxx114listIiSaIiEE4sizeEv:
LFB4659:
	stp	x29, x30, [sp, -32]!
LCFI176:
	mov	x29, sp
	str	x0, [sp, 24]
	ldr	x0, [sp, 24]
	bl	__ZNKSt7__cxx114listIiSaIiEE13_M_node_countEv
	ldp	x29, x30, [sp], 32
LCFI177:
	ret
LFE4659:
	.section __DATA,__gcc_except_tab
_GCC_except_table11:
LLSDA4659:
	.byte	0xff
	.byte	0xff
	.byte	0x1
	.uleb128 LLSDACSE4659-LLSDACSB4659
LLSDACSB4659:
LLSDACSE4659:
	.text
	.align	2
	.globl __ZNSt7__cxx114listIiSaIiEE9push_backERKi
	.weak_definition __ZNSt7__cxx114listIiSaIiEE9push_backERKi
__ZNSt7__cxx114listIiSaIiEE9push_backERKi:
LFB4660:
	stp	x29, x30, [sp, -32]!
LCFI178:
	mov	x29, sp
	str	x0, [sp, 24]
	str	x1, [sp, 16]
	ldr	x0, [sp, 24]
	bl	__ZNSt7__cxx114listIiSaIiEE3endEv
	ldr	x2, [sp, 16]
	mov	x1, x0
	ldr	x0, [sp, 24]
	bl	__ZNSt7__cxx114listIiSaIiEE9_M_insertIJRKiEEEvSt14_List_iteratorIiEDpOT_
	nop
	ldp	x29, x30, [sp], 32
LCFI179:
	ret
LFE4660:
	.align	2
	.globl __ZSt9make_pairIRiS0_ESt4pairINSt25__strip_reference_wrapperINSt5decayIT_E4typeEE6__typeENS2_INS3_IT0_E4typeEE6__typeEEOS4_OS9_
	.weak_definition __ZSt9make_pairIRiS0_ESt4pairINSt25__strip_reference_wrapperINSt5decayIT_E4typeEE6__typeENS2_INS3_IT0_E4typeEE6__typeEEOS4_OS9_
__ZSt9make_pairIRiS0_ESt4pairINSt25__strip_reference_wrapperINSt5decayIT_E4typeEE6__typeENS2_INS3_IT0_E4typeEE6__typeEEOS4_OS9_:
LFB4661:
	stp	x29, x30, [sp, -64]!
LCFI180:
	mov	x29, sp
	str	x19, [sp, 16]
LCFI181:
	str	x0, [sp, 40]
	str	x1, [sp, 32]
	ldr	x0, [sp, 40]
	bl	__ZSt7forwardIRiEOT_RNSt16remove_referenceIS1_E4typeE
	mov	x19, x0
	ldr	x0, [sp, 32]
	bl	__ZSt7forwardIRiEOT_RNSt16remove_referenceIS1_E4typeE
	mov	x1, x0
	add	x0, sp, 56
	mov	x2, x1
	mov	x1, x19
	bl	__ZNSt4pairIiiEC1IRiS2_Lb1EEEOT_OT0_
	ldr	x0, [sp, 56]
	ldr	x19, [sp, 16]
	ldp	x29, x30, [sp], 64
LCFI182:
	ret
LFE4661:
	.align	2
	.globl __ZNSt13unordered_mapIiiSt4hashIiESt8equal_toIiESaISt4pairIKiiEEE6insertIS4_IiiEEENSt9enable_ifIXsrSt16is_constructibleIS6_JOT_EE5valueES4_INSt8__detail14_Node_iteratorIS6_Lb0ELb0EEEbEE4typeESE_
	.weak_definition __ZNSt13unordered_mapIiiSt4hashIiESt8equal_toIiESaISt4pairIKiiEEE6insertIS4_IiiEEENSt9enable_ifIXsrSt16is_constructibleIS6_JOT_EE5valueES4_INSt8__detail14_Node_iteratorIS6_Lb0ELb0EEEbEE4typeESE_
__ZNSt13unordered_mapIiiSt4hashIiESt8equal_toIiESaISt4pairIKiiEEE6insertIS4_IiiEEENSt9enable_ifIXsrSt16is_constructibleIS6_JOT_EE5valueES4_INSt8__detail14_Node_iteratorIS6_Lb0ELb0EEEbEE4typeESE_:
LFB4670:
	stp	x29, x30, [sp, -48]!
LCFI183:
	mov	x29, sp
	str	x19, [sp, 16]
LCFI184:
	str	x0, [sp, 40]
	str	x1, [sp, 32]
	ldr	x19, [sp, 40]
	ldr	x0, [sp, 32]
	bl	__ZSt7forwardISt4pairIiiEEOT_RNSt16remove_referenceIS2_E4typeE
	mov	x1, x0
	mov	x0, x19
	bl	__ZNSt10_HashtableIiSt4pairIKiiESaIS2_ENSt8__detail10_Select1stESt8equal_toIiESt4hashIiENS4_18_Mod_range_hashingENS4_20_Default_ranged_hashENS4_20_Prime_rehash_policyENS4_17_Hashtable_traitsILb0ELb0ELb1EEEE7emplaceIJS0_IiiEEEES0_INS4_14_Node_iteratorIS2_Lb0ELb0EEEbEDpOT_
	ldr	x19, [sp, 16]
	ldp	x29, x30, [sp], 48
LCFI185:
	ret
LFE4670:
	.align	2
	.globl __ZNSt7__cxx114listIiSaIiEE5frontEv
	.weak_definition __ZNSt7__cxx114listIiSaIiEE5frontEv
__ZNSt7__cxx114listIiSaIiEE5frontEv:
LFB4671:
	stp	x29, x30, [sp, -48]!
LCFI186:
	mov	x29, sp
	str	x0, [sp, 24]
	ldr	x0, [sp, 24]
	bl	__ZNSt7__cxx114listIiSaIiEE5beginEv
	str	x0, [sp, 40]
	add	x0, sp, 40
	bl	__ZNKSt14_List_iteratorIiEdeEv
	ldp	x29, x30, [sp], 48
LCFI187:
	ret
LFE4671:
	.align	2
	.globl __ZNSt7__cxx1112basic_stringIcSt11char_traitsIcESaIcEEC1IS3_EEPKcRKS3_
	.weak_definition __ZNSt7__cxx1112basic_stringIcSt11char_traitsIcESaIcEEC1IS3_EEPKcRKS3_
__ZNSt7__cxx1112basic_stringIcSt11char_traitsIcESaIcEEC1IS3_EEPKcRKS3_:
LFB4674:
	stp	x29, x30, [sp, -80]!
LCFI188:
	mov	x29, sp
	stp	x19, x20, [sp, 16]
LCFI189:
	str	x0, [sp, 56]
	str	x1, [sp, 48]
	str	x2, [sp, 40]
	ldr	x19, [sp, 56]
	ldr	x0, [sp, 56]
LEHB28:
	bl	__ZNSt7__cxx1112basic_stringIcSt11char_traitsIcESaIcEE13_M_local_dataEv
	ldr	x2, [sp, 40]
	mov	x1, x0
	mov	x0, x19
	bl	__ZNSt7__cxx1112basic_stringIcSt11char_traitsIcESaIcEE12_Alloc_hiderC1EPcRKS3_
LEHE28:
	ldr	x0, [sp, 48]
	cmp	x0, 0
	beq	L217
	ldr	x0, [sp, 48]
LEHB29:
	bl	__ZNSt11char_traitsIcE6lengthEPKc
	mov	x1, x0
	ldr	x0, [sp, 48]
	add	x0, x0, x1
	b	L218
L217:
	mov	x0, 1
L218:
	str	x0, [sp, 72]
	mov	w3, w20
	ldr	x2, [sp, 72]
	ldr	x1, [sp, 48]
	ldr	x0, [sp, 56]
	bl	__ZNSt7__cxx1112basic_stringIcSt11char_traitsIcESaIcEE12_M_constructIPKcEEvT_S8_St20forward_iterator_tag
LEHE29:
	b	L221
L220:
	mov	x19, x0
	ldr	x0, [sp, 56]
	bl	__ZNSt7__cxx1112basic_stringIcSt11char_traitsIcESaIcEE12_Alloc_hiderD1Ev
	mov	x0, x19
LEHB30:
	bl	__Unwind_Resume
LEHE30:
L221:
	ldp	x19, x20, [sp, 16]
	ldp	x29, x30, [sp], 80
LCFI190:
	ret
LFE4674:
	.section __DATA,__gcc_except_tab
_GCC_except_table12:
LLSDA4674:
	.byte	0xff
	.byte	0xff
	.byte	0x1
	.uleb128 LLSDACSE4674-LLSDACSB4674
LLSDACSB4674:
	.uleb128 LEHB28-LFB4674
	.uleb128 LEHE28-LEHB28
	.uleb128 0
	.uleb128 0
	.uleb128 LEHB29-LFB4674
	.uleb128 LEHE29-LEHB29
	.uleb128 L220-LFB4674
	.uleb128 0
	.uleb128 LEHB30-LFB4674
	.uleb128 LEHE30-LEHB30
	.uleb128 0
	.uleb128 0
LLSDACSE4674:
	.text
	.align	2
	.globl __ZSt4log2IiEN9__gnu_cxx11__enable_ifIXsrSt12__is_integerIT_E7__valueEdE6__typeES3_
	.weak_definition __ZSt4log2IiEN9__gnu_cxx11__enable_ifIXsrSt12__is_integerIT_E7__valueEdE6__typeES3_
__ZSt4log2IiEN9__gnu_cxx11__enable_ifIXsrSt12__is_integerIT_E7__valueEdE6__typeES3_:
LFB4675:
	stp	x29, x30, [sp, -32]!
LCFI191:
	mov	x29, sp
	str	w0, [sp, 28]
	ldr	w0, [sp, 28]
	scvtf	d0, w0
	bl	_log2
	ldp	x29, x30, [sp], 32
LCFI192:
	ret
LFE4675:
	.align	2
	.globl __ZSt7forwardIbEOT_RNSt16remove_referenceIS0_E4typeE
	.weak_definition __ZSt7forwardIbEOT_RNSt16remove_referenceIS0_E4typeE
__ZSt7forwardIbEOT_RNSt16remove_referenceIS0_E4typeE:
LFB4810:
	sub	sp, sp, #16
LCFI193:
	str	x0, [sp, 8]
	ldr	x0, [sp, 8]
	add	sp, sp, 16
LCFI194:
	ret
LFE4810:
	.align	2
	.globl __ZN9__gnu_cxx13new_allocatorI5blockEC2Ev
	.weak_definition __ZN9__gnu_cxx13new_allocatorI5blockEC2Ev
__ZN9__gnu_cxx13new_allocatorI5blockEC2Ev:
LFB4813:
	sub	sp, sp, #16
LCFI195:
	str	x0, [sp, 8]
	nop
	add	sp, sp, 16
LCFI196:
	ret
LFE4813:
	.align	2
	.globl __ZN9__gnu_cxx13new_allocatorI5blockED2Ev
	.weak_definition __ZN9__gnu_cxx13new_allocatorI5blockED2Ev
__ZN9__gnu_cxx13new_allocatorI5blockED2Ev:
LFB4816:
	sub	sp, sp, #16
LCFI197:
	str	x0, [sp, 8]
	nop
	add	sp, sp, 16
LCFI198:
	ret
LFE4816:
	.cstring
	.align	3
lC9:
	.ascii "cannot create std::vector larger than max_size()\0"
	.text
	.align	2
	.globl __ZNSt6vectorI5blockSaIS0_EE17_S_check_init_lenEmRKS1_
	.weak_definition __ZNSt6vectorI5blockSaIS0_EE17_S_check_init_lenEmRKS1_
__ZNSt6vectorI5blockSaIS0_EE17_S_check_init_lenEmRKS1_:
LFB4818:
	stp	x29, x30, [sp, -64]!
LCFI199:
	mov	x29, sp
	str	x19, [sp, 16]
LCFI200:
	str	x0, [sp, 40]
	str	x1, [sp, 32]
	add	x0, sp, 56
	ldr	x1, [sp, 32]
	bl	__ZNSaI5blockEC1ERKS0_
	add	x0, sp, 56
	bl	__ZNSt6vectorI5blockSaIS0_EE11_S_max_sizeERKS1_
	mov	x1, x0
	ldr	x0, [sp, 40]
	cmp	x0, x1
	cset	w0, hi
	and	w19, w0, 255
	add	x0, sp, 56
	bl	__ZNSaI5blockED1Ev
	cmp	w19, 0
	beq	L229
	adrp	x0, lC9@GOTPAGE
	ldr	x0, [x0, lC9@GOTPAGEOFF];momd
	bl	__ZSt20__throw_length_errorPKc
L229:
	ldr	x0, [sp, 40]
	ldr	x19, [sp, 16]
	ldp	x29, x30, [sp], 64
LCFI201:
	ret
LFE4818:
	.align	2
	.globl __ZNSt12_Vector_baseI5blockSaIS0_EE12_Vector_implD1Ev
	.weak_definition __ZNSt12_Vector_baseI5blockSaIS0_EE12_Vector_implD1Ev
__ZNSt12_Vector_baseI5blockSaIS0_EE12_Vector_implD1Ev:
LFB4822:
	stp	x29, x30, [sp, -32]!
LCFI202:
	mov	x29, sp
	str	x0, [sp, 24]
	ldr	x0, [sp, 24]
	bl	__ZNSaI5blockED2Ev
	nop
	ldp	x29, x30, [sp], 32
LCFI203:
	ret
LFE4822:
	.align	2
	.globl __ZNSt12_Vector_baseI5blockSaIS0_EEC2EmRKS1_
	.weak_definition __ZNSt12_Vector_baseI5blockSaIS0_EEC2EmRKS1_
__ZNSt12_Vector_baseI5blockSaIS0_EEC2EmRKS1_:
LFB4823:
	stp	x29, x30, [sp, -64]!
LCFI204:
	mov	x29, sp
	str	x19, [sp, 16]
LCFI205:
	str	x0, [sp, 56]
	str	x1, [sp, 48]
	str	x2, [sp, 40]
	ldr	x0, [sp, 56]
	ldr	x1, [sp, 40]
	bl	__ZNSt12_Vector_baseI5blockSaIS0_EE12_Vector_implC1ERKS1_
	ldr	x1, [sp, 48]
	ldr	x0, [sp, 56]
LEHB31:
	bl	__ZNSt12_Vector_baseI5blockSaIS0_EE17_M_create_storageEm
LEHE31:
	b	L235
L234:
	mov	x19, x0
	ldr	x0, [sp, 56]
	bl	__ZNSt12_Vector_baseI5blockSaIS0_EE12_Vector_implD1Ev
	mov	x0, x19
LEHB32:
	bl	__Unwind_Resume
LEHE32:
L235:
	ldr	x19, [sp, 16]
	ldp	x29, x30, [sp], 64
LCFI206:
	ret
LFE4823:
	.section __DATA,__gcc_except_tab
_GCC_except_table13:
LLSDA4823:
	.byte	0xff
	.byte	0xff
	.byte	0x1
	.uleb128 LLSDACSE4823-LLSDACSB4823
LLSDACSB4823:
	.uleb128 LEHB31-LFB4823
	.uleb128 LEHE31-LEHB31
	.uleb128 L234-LFB4823
	.uleb128 0
	.uleb128 LEHB32-LFB4823
	.uleb128 LEHE32-LEHB32
	.uleb128 0
	.uleb128 0
LLSDACSE4823:
	.text
	.align	2
	.globl __ZNSt12_Vector_baseI5blockSaIS0_EED2Ev
	.weak_definition __ZNSt12_Vector_baseI5blockSaIS0_EED2Ev
__ZNSt12_Vector_baseI5blockSaIS0_EED2Ev:
LFB4826:
	stp	x29, x30, [sp, -32]!
LCFI207:
	mov	x29, sp
	str	x0, [sp, 24]
	ldr	x0, [sp, 24]
	ldr	x3, [x0]
	ldr	x0, [sp, 24]
	ldr	x1, [x0, 16]
	ldr	x0, [sp, 24]
	ldr	x0, [x0]
	sub	x0, x1, x0
	asr	x0, x0, 4
	mov	x2, x0
	mov	x1, x3
	ldr	x0, [sp, 24]
	bl	__ZNSt12_Vector_baseI5blockSaIS0_EE13_M_deallocateEPS0_m
	ldr	x0, [sp, 24]
	bl	__ZNSt12_Vector_baseI5blockSaIS0_EE12_Vector_implD1Ev
	nop
	ldp	x29, x30, [sp], 32
LCFI208:
	ret
LFE4826:
	.section __DATA,__gcc_except_tab
_GCC_except_table14:
LLSDA4826:
	.byte	0xff
	.byte	0xff
	.byte	0x1
	.uleb128 LLSDACSE4826-LLSDACSB4826
LLSDACSB4826:
LLSDACSE4826:
	.text
	.align	2
	.globl __ZNSt6vectorI5blockSaIS0_EE18_M_fill_initializeEmRKS0_
	.weak_definition __ZNSt6vectorI5blockSaIS0_EE18_M_fill_initializeEmRKS0_
__ZNSt6vectorI5blockSaIS0_EE18_M_fill_initializeEmRKS0_:
LFB4828:
	stp	x29, x30, [sp, -64]!
LCFI209:
	mov	x29, sp
	str	x19, [sp, 16]
LCFI210:
	str	x0, [sp, 56]
	str	x1, [sp, 48]
	str	x2, [sp, 40]
	ldr	x0, [sp, 56]
	ldr	x19, [x0]
	ldr	x0, [sp, 56]
	bl	__ZNSt12_Vector_baseI5blockSaIS0_EE19_M_get_Tp_allocatorEv
	mov	x3, x0
	ldr	x2, [sp, 40]
	ldr	x1, [sp, 48]
	mov	x0, x19
	bl	__ZSt24__uninitialized_fill_n_aIP5blockmS0_S0_ET_S2_T0_RKT1_RSaIT2_E
	mov	x1, x0
	ldr	x0, [sp, 56]
	str	x1, [x0, 8]
	nop
	ldr	x19, [sp, 16]
	ldp	x29, x30, [sp], 64
LCFI211:
	ret
LFE4828:
	.align	2
	.globl __ZNSt12_Vector_baseI5blockSaIS0_EE19_M_get_Tp_allocatorEv
	.weak_definition __ZNSt12_Vector_baseI5blockSaIS0_EE19_M_get_Tp_allocatorEv
__ZNSt12_Vector_baseI5blockSaIS0_EE19_M_get_Tp_allocatorEv:
LFB4829:
	sub	sp, sp, #16
LCFI212:
	str	x0, [sp, 8]
	ldr	x0, [sp, 8]
	add	sp, sp, 16
LCFI213:
	ret
LFE4829:
	.align	2
	.globl __ZSt8_DestroyIP5blockS0_EvT_S2_RSaIT0_E
	.weak_definition __ZSt8_DestroyIP5blockS0_EvT_S2_RSaIT0_E
__ZSt8_DestroyIP5blockS0_EvT_S2_RSaIT0_E:
LFB4830:
	stp	x29, x30, [sp, -48]!
LCFI214:
	mov	x29, sp
	str	x0, [sp, 40]
	str	x1, [sp, 32]
	str	x2, [sp, 24]
	ldr	x1, [sp, 32]
	ldr	x0, [sp, 40]
	bl	__ZSt8_DestroyIP5blockEvT_S2_
	nop
	ldp	x29, x30, [sp], 48
LCFI215:
	ret
LFE4830:
	.align	2
	.globl __ZN9__gnu_cxx13new_allocatorINSt8__detail10_Hash_nodeISt4pairIKiiELb0EEEEC2Ev
	.weak_definition __ZN9__gnu_cxx13new_allocatorINSt8__detail10_Hash_nodeISt4pairIKiiELb0EEEEC2Ev
__ZN9__gnu_cxx13new_allocatorINSt8__detail10_Hash_nodeISt4pairIKiiELb0EEEEC2Ev:
LFB4832:
	sub	sp, sp, #16
LCFI216:
	str	x0, [sp, 8]
	nop
	add	sp, sp, 16
LCFI217:
	ret
LFE4832:
	.align	2
	.globl __ZN9__gnu_cxx13new_allocatorINSt8__detail10_Hash_nodeISt4pairIKiiELb0EEEED2Ev
	.weak_definition __ZN9__gnu_cxx13new_allocatorINSt8__detail10_Hash_nodeISt4pairIKiiELb0EEEED2Ev
__ZN9__gnu_cxx13new_allocatorINSt8__detail10_Hash_nodeISt4pairIKiiELb0EEEED2Ev:
LFB4835:
	sub	sp, sp, #16
LCFI218:
	str	x0, [sp, 8]
	nop
	add	sp, sp, 16
LCFI219:
	ret
LFE4835:
	.align	2
	.globl __ZNSt10_HashtableIiSt4pairIKiiESaIS2_ENSt8__detail10_Select1stESt8equal_toIiESt4hashIiENS4_18_Mod_range_hashingENS4_20_Default_ranged_hashENS4_20_Prime_rehash_policyENS4_17_Hashtable_traitsILb0ELb0ELb1EEEE5clearEv
	.weak_definition __ZNSt10_HashtableIiSt4pairIKiiESaIS2_ENSt8__detail10_Select1stESt8equal_toIiESt4hashIiENS4_18_Mod_range_hashingENS4_20_Default_ranged_hashENS4_20_Prime_rehash_policyENS4_17_Hashtable_traitsILb0ELb0ELb1EEEE5clearEv
__ZNSt10_HashtableIiSt4pairIKiiESaIS2_ENSt8__detail10_Select1stESt8equal_toIiESt4hashIiENS4_18_Mod_range_hashingENS4_20_Default_ranged_hashENS4_20_Prime_rehash_policyENS4_17_Hashtable_traitsILb0ELb0ELb1EEEE5clearEv:
LFB4837:
	stp	x29, x30, [sp, -32]!
LCFI220:
	mov	x29, sp
	str	x0, [sp, 24]
	ldr	x0, [sp, 24]
	bl	__ZNKSt10_HashtableIiSt4pairIKiiESaIS2_ENSt8__detail10_Select1stESt8equal_toIiESt4hashIiENS4_18_Mod_range_hashingENS4_20_Default_ranged_hashENS4_20_Prime_rehash_policyENS4_17_Hashtable_traitsILb0ELb0ELb1EEEE8_M_beginEv
	mov	x1, x0
	ldr	x0, [sp, 24]
	bl	__ZNSt8__detail16_Hashtable_allocISaINS_10_Hash_nodeISt4pairIKiiELb0EEEEE19_M_deallocate_nodesEPS5_
	ldr	x0, [sp, 24]
	ldr	x1, [x0]
	ldr	x0, [sp, 24]
	ldr	x0, [x0, 8]
	lsl	x0, x0, 3
	mov	x3, x1
	mov	x2, x0
	mov	w1, 0
	mov	x0, x3
	bl	_memset
	ldr	x0, [sp, 24]
	str	xzr, [x0, 24]
	ldr	x0, [sp, 24]
	str	xzr, [x0, 16]
	nop
	ldp	x29, x30, [sp], 32
LCFI221:
	ret
LFE4837:
	.section __DATA,__gcc_except_tab
_GCC_except_table15:
LLSDA4837:
	.byte	0xff
	.byte	0xff
	.byte	0x1
	.uleb128 LLSDACSE4837-LLSDACSB4837
LLSDACSB4837:
LLSDACSE4837:
	.text
	.align	2
	.globl __ZNSt10_HashtableIiSt4pairIKiiESaIS2_ENSt8__detail10_Select1stESt8equal_toIiESt4hashIiENS4_18_Mod_range_hashingENS4_20_Default_ranged_hashENS4_20_Prime_rehash_policyENS4_17_Hashtable_traitsILb0ELb0ELb1EEEE21_M_deallocate_bucketsEv
	.weak_definition __ZNSt10_HashtableIiSt4pairIKiiESaIS2_ENSt8__detail10_Select1stESt8equal_toIiESt4hashIiENS4_18_Mod_range_hashingENS4_20_Default_ranged_hashENS4_20_Prime_rehash_policyENS4_17_Hashtable_traitsILb0ELb0ELb1EEEE21_M_deallocate_bucketsEv
__ZNSt10_HashtableIiSt4pairIKiiESaIS2_ENSt8__detail10_Select1stESt8equal_toIiESt4hashIiENS4_18_Mod_range_hashingENS4_20_Default_ranged_hashENS4_20_Prime_rehash_policyENS4_17_Hashtable_traitsILb0ELb0ELb1EEEE21_M_deallocate_bucketsEv:
LFB4838:
	stp	x29, x30, [sp, -32]!
LCFI222:
	mov	x29, sp
	str	x0, [sp, 24]
	ldr	x0, [sp, 24]
	ldr	x1, [x0]
	ldr	x0, [sp, 24]
	ldr	x0, [x0, 8]
	mov	x2, x0
	ldr	x0, [sp, 24]
	bl	__ZNSt10_HashtableIiSt4pairIKiiESaIS2_ENSt8__detail10_Select1stESt8equal_toIiESt4hashIiENS4_18_Mod_range_hashingENS4_20_Default_ranged_hashENS4_20_Prime_rehash_policyENS4_17_Hashtable_traitsILb0ELb0ELb1EEEE21_M_deallocate_bucketsEPPNS4_15_Hash_node_baseEm
	nop
	ldp	x29, x30, [sp], 32
LCFI223:
	ret
LFE4838:
	.align	2
	.globl __ZNSaISt10_List_nodeIiEEC2Ev
	.weak_definition __ZNSaISt10_List_nodeIiEEC2Ev
__ZNSaISt10_List_nodeIiEEC2Ev:
LFB4840:
	stp	x29, x30, [sp, -32]!
LCFI224:
	mov	x29, sp
	str	x0, [sp, 24]
	ldr	x0, [sp, 24]
	bl	__ZN9__gnu_cxx13new_allocatorISt10_List_nodeIiEEC2Ev
	nop
	ldp	x29, x30, [sp], 32
LCFI225:
	ret
LFE4840:
	.align	2
	.globl __ZN9__gnu_cxx13new_allocatorISt10_List_nodeIiEED2Ev
	.weak_definition __ZN9__gnu_cxx13new_allocatorISt10_List_nodeIiEED2Ev
__ZN9__gnu_cxx13new_allocatorISt10_List_nodeIiEED2Ev:
LFB4843:
	sub	sp, sp, #16
LCFI226:
	str	x0, [sp, 8]
	nop
	add	sp, sp, 16
LCFI227:
	ret
LFE4843:
	.align	2
	.globl __ZNSt7__cxx1110_List_baseIiSaIiEE8_M_clearEv
	.weak_definition __ZNSt7__cxx1110_List_baseIiSaIiEE8_M_clearEv
__ZNSt7__cxx1110_List_baseIiSaIiEE8_M_clearEv:
LFB4845:
	stp	x29, x30, [sp, -64]!
LCFI228:
	mov	x29, sp
	str	x0, [sp, 24]
	ldr	x0, [sp, 24]
	ldr	x0, [x0]
	str	x0, [sp, 56]
	b	L248
L249:
	ldr	x0, [sp, 56]
	str	x0, [sp, 48]
	ldr	x0, [sp, 48]
	ldr	x0, [x0]
	str	x0, [sp, 56]
	ldr	x0, [sp, 48]
	bl	__ZNSt10_List_nodeIiE9_M_valptrEv
	str	x0, [sp, 40]
	ldr	x0, [sp, 24]
	bl	__ZNSt7__cxx1110_List_baseIiSaIiEE21_M_get_Node_allocatorEv
	ldr	x1, [sp, 40]
	bl	__ZNSt16allocator_traitsISaISt10_List_nodeIiEEE7destroyIiEEvRS2_PT_
	ldr	x1, [sp, 48]
	ldr	x0, [sp, 24]
	bl	__ZNSt7__cxx1110_List_baseIiSaIiEE11_M_put_nodeEPSt10_List_nodeIiE
L248:
	ldr	x0, [sp, 24]
	ldr	x1, [sp, 56]
	cmp	x1, x0
	bne	L249
	nop
	nop
	ldp	x29, x30, [sp], 64
LCFI229:
	ret
LFE4845:
	.align	2
	.globl __ZN9__gnu_cxx13new_allocatorI9cache_setEC2Ev
	.weak_definition __ZN9__gnu_cxx13new_allocatorI9cache_setEC2Ev
__ZN9__gnu_cxx13new_allocatorI9cache_setEC2Ev:
LFB4847:
	sub	sp, sp, #16
LCFI230:
	str	x0, [sp, 8]
	nop
	add	sp, sp, 16
LCFI231:
	ret
LFE4847:
	.align	2
	.globl __ZN9__gnu_cxx13new_allocatorI9cache_setED2Ev
	.weak_definition __ZN9__gnu_cxx13new_allocatorI9cache_setED2Ev
__ZN9__gnu_cxx13new_allocatorI9cache_setED2Ev:
LFB4850:
	sub	sp, sp, #16
LCFI232:
	str	x0, [sp, 8]
	nop
	add	sp, sp, 16
LCFI233:
	ret
LFE4850:
	.align	2
	.globl __ZNSt6vectorI9cache_setSaIS0_EE17_S_check_init_lenEmRKS1_
	.weak_definition __ZNSt6vectorI9cache_setSaIS0_EE17_S_check_init_lenEmRKS1_
__ZNSt6vectorI9cache_setSaIS0_EE17_S_check_init_lenEmRKS1_:
LFB4852:
	stp	x29, x30, [sp, -64]!
LCFI234:
	mov	x29, sp
	str	x19, [sp, 16]
LCFI235:
	str	x0, [sp, 40]
	str	x1, [sp, 32]
	add	x0, sp, 56
	ldr	x1, [sp, 32]
	bl	__ZNSaI9cache_setEC1ERKS0_
	add	x0, sp, 56
	bl	__ZNSt6vectorI9cache_setSaIS0_EE11_S_max_sizeERKS1_
	mov	x1, x0
	ldr	x0, [sp, 40]
	cmp	x0, x1
	cset	w0, hi
	and	w19, w0, 255
	add	x0, sp, 56
	bl	__ZNSaI9cache_setED1Ev
	cmp	w19, 0
	beq	L253
	adrp	x0, lC9@GOTPAGE
	ldr	x0, [x0, lC9@GOTPAGEOFF];momd
	bl	__ZSt20__throw_length_errorPKc
L253:
	ldr	x0, [sp, 40]
	ldr	x19, [sp, 16]
	ldp	x29, x30, [sp], 64
LCFI236:
	ret
LFE4852:
	.align	2
	.globl __ZNSt12_Vector_baseI9cache_setSaIS0_EE12_Vector_implD1Ev
	.weak_definition __ZNSt12_Vector_baseI9cache_setSaIS0_EE12_Vector_implD1Ev
__ZNSt12_Vector_baseI9cache_setSaIS0_EE12_Vector_implD1Ev:
LFB4856:
	stp	x29, x30, [sp, -32]!
LCFI237:
	mov	x29, sp
	str	x0, [sp, 24]
	ldr	x0, [sp, 24]
	bl	__ZNSaI9cache_setED2Ev
	nop
	ldp	x29, x30, [sp], 32
LCFI238:
	ret
LFE4856:
	.align	2
	.globl __ZNSt12_Vector_baseI9cache_setSaIS0_EEC2EmRKS1_
	.weak_definition __ZNSt12_Vector_baseI9cache_setSaIS0_EEC2EmRKS1_
__ZNSt12_Vector_baseI9cache_setSaIS0_EEC2EmRKS1_:
LFB4857:
	stp	x29, x30, [sp, -64]!
LCFI239:
	mov	x29, sp
	str	x19, [sp, 16]
LCFI240:
	str	x0, [sp, 56]
	str	x1, [sp, 48]
	str	x2, [sp, 40]
	ldr	x0, [sp, 56]
	ldr	x1, [sp, 40]
	bl	__ZNSt12_Vector_baseI9cache_setSaIS0_EE12_Vector_implC1ERKS1_
	ldr	x1, [sp, 48]
	ldr	x0, [sp, 56]
LEHB33:
	bl	__ZNSt12_Vector_baseI9cache_setSaIS0_EE17_M_create_storageEm
LEHE33:
	b	L259
L258:
	mov	x19, x0
	ldr	x0, [sp, 56]
	bl	__ZNSt12_Vector_baseI9cache_setSaIS0_EE12_Vector_implD1Ev
	mov	x0, x19
LEHB34:
	bl	__Unwind_Resume
LEHE34:
L259:
	ldr	x19, [sp, 16]
	ldp	x29, x30, [sp], 64
LCFI241:
	ret
LFE4857:
	.section __DATA,__gcc_except_tab
_GCC_except_table16:
LLSDA4857:
	.byte	0xff
	.byte	0xff
	.byte	0x1
	.uleb128 LLSDACSE4857-LLSDACSB4857
LLSDACSB4857:
	.uleb128 LEHB33-LFB4857
	.uleb128 LEHE33-LEHB33
	.uleb128 L258-LFB4857
	.uleb128 0
	.uleb128 LEHB34-LFB4857
	.uleb128 LEHE34-LEHB34
	.uleb128 0
	.uleb128 0
LLSDACSE4857:
	.text
	.align	2
	.globl __ZNSt12_Vector_baseI9cache_setSaIS0_EED2Ev
	.weak_definition __ZNSt12_Vector_baseI9cache_setSaIS0_EED2Ev
__ZNSt12_Vector_baseI9cache_setSaIS0_EED2Ev:
LFB4860:
	stp	x29, x30, [sp, -32]!
LCFI242:
	mov	x29, sp
	str	x0, [sp, 24]
	ldr	x0, [sp, 24]
	ldr	x3, [x0]
	ldr	x0, [sp, 24]
	ldr	x1, [x0, 16]
	ldr	x0, [sp, 24]
	ldr	x0, [x0]
	sub	x0, x1, x0
	asr	x1, x0, 4
	mov	x0, 28087
	movk	x0, 0xb6db, lsl 16
	movk	x0, 0xdb6d, lsl 32
	movk	x0, 0x6db6, lsl 48
	mul	x0, x1, x0
	mov	x2, x0
	mov	x1, x3
	ldr	x0, [sp, 24]
	bl	__ZNSt12_Vector_baseI9cache_setSaIS0_EE13_M_deallocateEPS0_m
	ldr	x0, [sp, 24]
	bl	__ZNSt12_Vector_baseI9cache_setSaIS0_EE12_Vector_implD1Ev
	nop
	ldp	x29, x30, [sp], 32
LCFI243:
	ret
LFE4860:
	.section __DATA,__gcc_except_tab
_GCC_except_table17:
LLSDA4860:
	.byte	0xff
	.byte	0xff
	.byte	0x1
	.uleb128 LLSDACSE4860-LLSDACSB4860
LLSDACSB4860:
LLSDACSE4860:
	.text
	.align	2
	.globl __ZNSt6vectorI9cache_setSaIS0_EE18_M_fill_initializeEmRKS0_
	.weak_definition __ZNSt6vectorI9cache_setSaIS0_EE18_M_fill_initializeEmRKS0_
__ZNSt6vectorI9cache_setSaIS0_EE18_M_fill_initializeEmRKS0_:
LFB4862:
	stp	x29, x30, [sp, -64]!
LCFI244:
	mov	x29, sp
	str	x19, [sp, 16]
LCFI245:
	str	x0, [sp, 56]
	str	x1, [sp, 48]
	str	x2, [sp, 40]
	ldr	x0, [sp, 56]
	ldr	x19, [x0]
	ldr	x0, [sp, 56]
	bl	__ZNSt12_Vector_baseI9cache_setSaIS0_EE19_M_get_Tp_allocatorEv
	mov	x3, x0
	ldr	x2, [sp, 40]
	ldr	x1, [sp, 48]
	mov	x0, x19
	bl	__ZSt24__uninitialized_fill_n_aIP9cache_setmS0_S0_ET_S2_T0_RKT1_RSaIT2_E
	mov	x1, x0
	ldr	x0, [sp, 56]
	str	x1, [x0, 8]
	nop
	ldr	x19, [sp, 16]
	ldp	x29, x30, [sp], 64
LCFI246:
	ret
LFE4862:
	.align	2
	.globl __ZNSt12_Vector_baseI9cache_setSaIS0_EE19_M_get_Tp_allocatorEv
	.weak_definition __ZNSt12_Vector_baseI9cache_setSaIS0_EE19_M_get_Tp_allocatorEv
__ZNSt12_Vector_baseI9cache_setSaIS0_EE19_M_get_Tp_allocatorEv:
LFB4863:
	sub	sp, sp, #16
LCFI247:
	str	x0, [sp, 8]
	ldr	x0, [sp, 8]
	add	sp, sp, 16
LCFI248:
	ret
LFE4863:
	.align	2
	.globl __ZSt8_DestroyIP9cache_setS0_EvT_S2_RSaIT0_E
	.weak_definition __ZSt8_DestroyIP9cache_setS0_EvT_S2_RSaIT0_E
__ZSt8_DestroyIP9cache_setS0_EvT_S2_RSaIT0_E:
LFB4864:
	stp	x29, x30, [sp, -48]!
LCFI249:
	mov	x29, sp
	str	x0, [sp, 40]
	str	x1, [sp, 32]
	str	x2, [sp, 24]
	ldr	x1, [sp, 32]
	ldr	x0, [sp, 40]
	bl	__ZSt8_DestroyIP9cache_setEvT_S2_
	nop
	ldp	x29, x30, [sp], 48
LCFI250:
	ret
LFE4864:
	.align	2
	.globl __ZNSt10_HashtableIiSt4pairIKiiESaIS2_ENSt8__detail10_Select1stESt8equal_toIiESt4hashIiENS4_18_Mod_range_hashingENS4_20_Default_ranged_hashENS4_20_Prime_rehash_policyENS4_17_Hashtable_traitsILb0ELb0ELb1EEEE4findERS1_
	.weak_definition __ZNSt10_HashtableIiSt4pairIKiiESaIS2_ENSt8__detail10_Select1stESt8equal_toIiESt4hashIiENS4_18_Mod_range_hashingENS4_20_Default_ranged_hashENS4_20_Prime_rehash_policyENS4_17_Hashtable_traitsILb0ELb0ELb1EEEE4findERS1_
__ZNSt10_HashtableIiSt4pairIKiiESaIS2_ENSt8__detail10_Select1stESt8equal_toIiESt4hashIiENS4_18_Mod_range_hashingENS4_20_Default_ranged_hashENS4_20_Prime_rehash_policyENS4_17_Hashtable_traitsILb0ELb0ELb1EEEE4findERS1_:
LFB4893:
	stp	x29, x30, [sp, -64]!
LCFI251:
	mov	x29, sp
	str	x0, [sp, 24]
	str	x1, [sp, 16]
	ldr	x1, [sp, 16]
	ldr	x0, [sp, 24]
	bl	__ZNKSt8__detail15_Hash_code_baseIiSt4pairIKiiENS_10_Select1stESt4hashIiENS_18_Mod_range_hashingENS_20_Default_ranged_hashELb0EE12_M_hash_codeERS2_
	str	x0, [sp, 56]
	ldr	x1, [sp, 56]
	ldr	x0, [sp, 24]
	bl	__ZNKSt10_HashtableIiSt4pairIKiiESaIS2_ENSt8__detail10_Select1stESt8equal_toIiESt4hashIiENS4_18_Mod_range_hashingENS4_20_Default_ranged_hashENS4_20_Prime_rehash_policyENS4_17_Hashtable_traitsILb0ELb0ELb1EEEE15_M_bucket_indexEm
	str	x0, [sp, 48]
	ldr	x3, [sp, 56]
	ldr	x2, [sp, 16]
	ldr	x1, [sp, 48]
	ldr	x0, [sp, 24]
	bl	__ZNKSt10_HashtableIiSt4pairIKiiESaIS2_ENSt8__detail10_Select1stESt8equal_toIiESt4hashIiENS4_18_Mod_range_hashingENS4_20_Default_ranged_hashENS4_20_Prime_rehash_policyENS4_17_Hashtable_traitsILb0ELb0ELb1EEEE12_M_find_nodeEmRS1_m
	mov	x1, x0
	add	x0, sp, 40
	bl	__ZNSt8__detail14_Node_iteratorISt4pairIKiiELb0ELb0EEC1EPNS_10_Hash_nodeIS3_Lb0EEE
	ldr	x0, [sp, 40]
	ldp	x29, x30, [sp], 64
LCFI252:
	ret
LFE4893:
	.align	2
	.globl __ZNSt10_HashtableIiSt4pairIKiiESaIS2_ENSt8__detail10_Select1stESt8equal_toIiESt4hashIiENS4_18_Mod_range_hashingENS4_20_Default_ranged_hashENS4_20_Prime_rehash_policyENS4_17_Hashtable_traitsILb0ELb0ELb1EEEE3endEv
	.weak_definition __ZNSt10_HashtableIiSt4pairIKiiESaIS2_ENSt8__detail10_Select1stESt8equal_toIiESt4hashIiENS4_18_Mod_range_hashingENS4_20_Default_ranged_hashENS4_20_Prime_rehash_policyENS4_17_Hashtable_traitsILb0ELb0ELb1EEEE3endEv
__ZNSt10_HashtableIiSt4pairIKiiESaIS2_ENSt8__detail10_Select1stESt8equal_toIiESt4hashIiENS4_18_Mod_range_hashingENS4_20_Default_ranged_hashENS4_20_Prime_rehash_policyENS4_17_Hashtable_traitsILb0ELb0ELb1EEEE3endEv:
LFB4894:
	stp	x29, x30, [sp, -48]!
LCFI253:
	mov	x29, sp
	str	x0, [sp, 24]
	add	x0, sp, 40
	mov	x1, 0
	bl	__ZNSt8__detail14_Node_iteratorISt4pairIKiiELb0ELb0EEC1EPNS_10_Hash_nodeIS3_Lb0EEE
	ldr	x0, [sp, 40]
	ldp	x29, x30, [sp], 48
LCFI254:
	ret
LFE4894:
	.align	2
	.globl __ZNSt8__detail21_Hash_node_value_baseISt4pairIKiiEE9_M_valptrEv
	.weak_definition __ZNSt8__detail21_Hash_node_value_baseISt4pairIKiiEE9_M_valptrEv
__ZNSt8__detail21_Hash_node_value_baseISt4pairIKiiEE9_M_valptrEv:
LFB4895:
	stp	x29, x30, [sp, -32]!
LCFI255:
	mov	x29, sp
	str	x0, [sp, 24]
	ldr	x0, [sp, 24]
	bl	__ZN9__gnu_cxx16__aligned_bufferISt4pairIKiiEE6_M_ptrEv
	ldp	x29, x30, [sp], 32
LCFI256:
	ret
LFE4895:
	.align	2
	.globl __ZNSt14_List_iteratorIiEC1EPNSt8__detail15_List_node_baseE
	.weak_definition __ZNSt14_List_iteratorIiEC1EPNSt8__detail15_List_node_baseE
__ZNSt14_List_iteratorIiEC1EPNSt8__detail15_List_node_baseE:
LFB4898:
	sub	sp, sp, #16
LCFI257:
	str	x0, [sp, 8]
	str	x1, [sp]
	ldr	x0, [sp, 8]
	ldr	x1, [sp]
	str	x1, [x0]
	nop
	add	sp, sp, 16
LCFI258:
	ret
LFE4898:
	.align	2
	.globl __ZN9__gnu_cxx5__ops17__iter_equals_valIKiEENS0_16_Iter_equals_valIT_EERS4_
	.weak_definition __ZN9__gnu_cxx5__ops17__iter_equals_valIKiEENS0_16_Iter_equals_valIT_EERS4_
__ZN9__gnu_cxx5__ops17__iter_equals_valIKiEENS0_16_Iter_equals_valIT_EERS4_:
LFB4899:
	stp	x29, x30, [sp, -48]!
LCFI259:
	mov	x29, sp
	str	x0, [sp, 24]
	add	x0, sp, 40
	ldr	x1, [sp, 24]
	bl	__ZN9__gnu_cxx5__ops16_Iter_equals_valIKiEC1ERS2_
	ldr	x0, [sp, 40]
	ldp	x29, x30, [sp], 48
LCFI260:
	ret
LFE4899:
	.align	2
	.globl __ZSt9__find_ifISt14_List_iteratorIiEN9__gnu_cxx5__ops16_Iter_equals_valIKiEEET_S7_S7_T0_
	.weak_definition __ZSt9__find_ifISt14_List_iteratorIiEN9__gnu_cxx5__ops16_Iter_equals_valIKiEEET_S7_S7_T0_
__ZSt9__find_ifISt14_List_iteratorIiEN9__gnu_cxx5__ops16_Iter_equals_valIKiEEET_S7_S7_T0_:
LFB4900:
	stp	x29, x30, [sp, -80]!
LCFI261:
	mov	x29, sp
	str	x19, [sp, 16]
LCFI262:
	str	x0, [sp, 56]
	str	x1, [sp, 48]
	str	x2, [sp, 40]
	add	x0, sp, 56
	bl	__ZSt19__iterator_categoryISt14_List_iteratorIiEENSt15iterator_traitsIT_E17iterator_categoryERKS3_
	mov	w3, w19
	ldr	x2, [sp, 40]
	ldr	x1, [sp, 48]
	ldr	x0, [sp, 56]
	bl	__ZSt9__find_ifISt14_List_iteratorIiEN9__gnu_cxx5__ops16_Iter_equals_valIKiEEET_S7_S7_T0_St18input_iterator_tag
	ldr	x19, [sp, 16]
	ldp	x29, x30, [sp], 80
LCFI263:
	ret
LFE4900:
	.align	2
	.globl __ZNSt7__cxx114listIiSaIiEE8_M_eraseESt14_List_iteratorIiE
	.weak_definition __ZNSt7__cxx114listIiSaIiEE8_M_eraseESt14_List_iteratorIiE
__ZNSt7__cxx114listIiSaIiEE8_M_eraseESt14_List_iteratorIiE:
LFB4901:
	stp	x29, x30, [sp, -64]!
LCFI264:
	mov	x29, sp
	str	x19, [sp, 16]
LCFI265:
	str	x0, [sp, 40]
	str	x1, [sp, 32]
	ldr	x0, [sp, 40]
	mov	x1, 1
	bl	__ZNSt7__cxx1110_List_baseIiSaIiEE11_M_dec_sizeEm
	ldr	x0, [sp, 32]
	bl	__ZNSt8__detail15_List_node_base9_M_unhookEv
	ldr	x0, [sp, 32]
	str	x0, [sp, 56]
	ldr	x0, [sp, 40]
	bl	__ZNSt7__cxx1110_List_baseIiSaIiEE21_M_get_Node_allocatorEv
	mov	x19, x0
	ldr	x0, [sp, 56]
	bl	__ZNSt10_List_nodeIiE9_M_valptrEv
	mov	x1, x0
	mov	x0, x19
	bl	__ZNSt16allocator_traitsISaISt10_List_nodeIiEEE7destroyIiEEvRS2_PT_
	ldr	x0, [sp, 40]
	ldr	x1, [sp, 56]
	bl	__ZNSt7__cxx1110_List_baseIiSaIiEE11_M_put_nodeEPSt10_List_nodeIiE
	nop
	ldr	x19, [sp, 16]
	ldp	x29, x30, [sp], 64
LCFI266:
	ret
LFE4901:
	.align	2
	.globl __ZNKSt20_List_const_iteratorIiE13_M_const_castEv
	.weak_definition __ZNKSt20_List_const_iteratorIiE13_M_const_castEv
__ZNKSt20_List_const_iteratorIiE13_M_const_castEv:
LFB4902:
	stp	x29, x30, [sp, -48]!
LCFI267:
	mov	x29, sp
	str	x0, [sp, 24]
	ldr	x0, [sp, 24]
	ldr	x1, [x0]
	add	x0, sp, 40
	bl	__ZNSt14_List_iteratorIiEC1EPNSt8__detail15_List_node_baseE
	ldr	x0, [sp, 40]
	ldp	x29, x30, [sp], 48
LCFI268:
	ret
LFE4902:
	.align	2
	.globl __ZNSt10_HashtableIiSt4pairIKiiESaIS2_ENSt8__detail10_Select1stESt8equal_toIiESt4hashIiENS4_18_Mod_range_hashingENS4_20_Default_ranged_hashENS4_20_Prime_rehash_policyENS4_17_Hashtable_traitsILb0ELb0ELb1EEEE5eraseENS4_14_Node_iteratorIS2_Lb0ELb0EEE
	.weak_definition __ZNSt10_HashtableIiSt4pairIKiiESaIS2_ENSt8__detail10_Select1stESt8equal_toIiESt4hashIiENS4_18_Mod_range_hashingENS4_20_Default_ranged_hashENS4_20_Prime_rehash_policyENS4_17_Hashtable_traitsILb0ELb0ELb1EEEE5eraseENS4_14_Node_iteratorIS2_Lb0ELb0EEE
__ZNSt10_HashtableIiSt4pairIKiiESaIS2_ENSt8__detail10_Select1stESt8equal_toIiESt4hashIiENS4_18_Mod_range_hashingENS4_20_Default_ranged_hashENS4_20_Prime_rehash_policyENS4_17_Hashtable_traitsILb0ELb0ELb1EEEE5eraseENS4_14_Node_iteratorIS2_Lb0ELb0EEE:
LFB4903:
	stp	x29, x30, [sp, -48]!
LCFI269:
	mov	x29, sp
	str	x0, [sp, 24]
	str	x1, [sp, 16]
	add	x1, sp, 16
	add	x0, sp, 40
	bl	__ZNSt8__detail20_Node_const_iteratorISt4pairIKiiELb0ELb0EEC1ERKNS_14_Node_iteratorIS3_Lb0ELb0EEE
	ldr	x1, [sp, 40]
	ldr	x0, [sp, 24]
	bl	__ZNSt10_HashtableIiSt4pairIKiiESaIS2_ENSt8__detail10_Select1stESt8equal_toIiESt4hashIiENS4_18_Mod_range_hashingENS4_20_Default_ranged_hashENS4_20_Prime_rehash_policyENS4_17_Hashtable_traitsILb0ELb0ELb1EEEE5eraseENS4_20_Node_const_iteratorIS2_Lb0ELb0EEE
	ldp	x29, x30, [sp], 48
LCFI270:
	ret
LFE4903:
	.align	2
	.globl __ZNKSt7__cxx114listIiSaIiEE13_M_node_countEv
	.weak_definition __ZNKSt7__cxx114listIiSaIiEE13_M_node_countEv
__ZNKSt7__cxx114listIiSaIiEE13_M_node_countEv:
LFB4904:
	stp	x29, x30, [sp, -32]!
LCFI271:
	mov	x29, sp
	str	x0, [sp, 24]
	ldr	x0, [sp, 24]
	bl	__ZNKSt7__cxx1110_List_baseIiSaIiEE11_M_get_sizeEv
	ldp	x29, x30, [sp], 32
LCFI272:
	ret
LFE4904:
	.align	2
	.globl __ZNSt7__cxx114listIiSaIiEE9_M_insertIJRKiEEEvSt14_List_iteratorIiEDpOT_
	.weak_definition __ZNSt7__cxx114listIiSaIiEE9_M_insertIJRKiEEEvSt14_List_iteratorIiEDpOT_
__ZNSt7__cxx114listIiSaIiEE9_M_insertIJRKiEEEvSt14_List_iteratorIiEDpOT_:
LFB4905:
	stp	x29, x30, [sp, -64]!
LCFI273:
	mov	x29, sp
	str	x0, [sp, 40]
	str	x1, [sp, 32]
	str	x2, [sp, 24]
	ldr	x0, [sp, 24]
	bl	__ZSt7forwardIRKiEOT_RNSt16remove_referenceIS2_E4typeE
	mov	x1, x0
	ldr	x0, [sp, 40]
	bl	__ZNSt7__cxx114listIiSaIiEE14_M_create_nodeIJRKiEEEPSt10_List_nodeIiEDpOT_
	str	x0, [sp, 56]
	ldr	x0, [sp, 56]
	ldr	x1, [sp, 32]
	bl	__ZNSt8__detail15_List_node_base7_M_hookEPS0_
	ldr	x0, [sp, 40]
	mov	x1, 1
	bl	__ZNSt7__cxx1110_List_baseIiSaIiEE11_M_inc_sizeEm
	nop
	ldp	x29, x30, [sp], 64
LCFI274:
	ret
LFE4905:
	.align	2
	.globl __ZSt7forwardIRiEOT_RNSt16remove_referenceIS1_E4typeE
	.weak_definition __ZSt7forwardIRiEOT_RNSt16remove_referenceIS1_E4typeE
__ZSt7forwardIRiEOT_RNSt16remove_referenceIS1_E4typeE:
LFB4906:
	sub	sp, sp, #16
LCFI275:
	str	x0, [sp, 8]
	ldr	x0, [sp, 8]
	add	sp, sp, 16
LCFI276:
	ret
LFE4906:
	.align	2
	.globl __ZNSt4pairIiiEC1IRiS2_Lb1EEEOT_OT0_
	.weak_definition __ZNSt4pairIiiEC1IRiS2_Lb1EEEOT_OT0_
__ZNSt4pairIiiEC1IRiS2_Lb1EEEOT_OT0_:
LFB4909:
	stp	x29, x30, [sp, -48]!
LCFI277:
	mov	x29, sp
	str	x0, [sp, 40]
	str	x1, [sp, 32]
	str	x2, [sp, 24]
	ldr	x0, [sp, 32]
	bl	__ZSt7forwardIRiEOT_RNSt16remove_referenceIS1_E4typeE
	ldr	w1, [x0]
	ldr	x0, [sp, 40]
	str	w1, [x0]
	ldr	x0, [sp, 24]
	bl	__ZSt7forwardIRiEOT_RNSt16remove_referenceIS1_E4typeE
	ldr	w1, [x0]
	ldr	x0, [sp, 40]
	str	w1, [x0, 4]
	nop
	ldp	x29, x30, [sp], 48
LCFI278:
	ret
LFE4909:
	.align	2
	.globl __ZSt7forwardISt4pairIiiEEOT_RNSt16remove_referenceIS2_E4typeE
	.weak_definition __ZSt7forwardISt4pairIiiEEOT_RNSt16remove_referenceIS2_E4typeE
__ZSt7forwardISt4pairIiiEEOT_RNSt16remove_referenceIS2_E4typeE:
LFB4910:
	sub	sp, sp, #16
LCFI279:
	str	x0, [sp, 8]
	ldr	x0, [sp, 8]
	add	sp, sp, 16
LCFI280:
	ret
LFE4910:
	.align	2
	.globl __ZNSt10_HashtableIiSt4pairIKiiESaIS2_ENSt8__detail10_Select1stESt8equal_toIiESt4hashIiENS4_18_Mod_range_hashingENS4_20_Default_ranged_hashENS4_20_Prime_rehash_policyENS4_17_Hashtable_traitsILb0ELb0ELb1EEEE7emplaceIJS0_IiiEEEES0_INS4_14_Node_iteratorIS2_Lb0ELb0EEEbEDpOT_
	.weak_definition __ZNSt10_HashtableIiSt4pairIKiiESaIS2_ENSt8__detail10_Select1stESt8equal_toIiESt4hashIiENS4_18_Mod_range_hashingENS4_20_Default_ranged_hashENS4_20_Prime_rehash_policyENS4_17_Hashtable_traitsILb0ELb0ELb1EEEE7emplaceIJS0_IiiEEEES0_INS4_14_Node_iteratorIS2_Lb0ELb0EEEbEDpOT_
__ZNSt10_HashtableIiSt4pairIKiiESaIS2_ENSt8__detail10_Select1stESt8equal_toIiESt4hashIiENS4_18_Mod_range_hashingENS4_20_Default_ranged_hashENS4_20_Prime_rehash_policyENS4_17_Hashtable_traitsILb0ELb0ELb1EEEE7emplaceIJS0_IiiEEEES0_INS4_14_Node_iteratorIS2_Lb0ELb0EEEbEDpOT_:
LFB4911:
	stp	x29, x30, [sp, -48]!
LCFI281:
	mov	x29, sp
	str	x19, [sp, 16]
LCFI282:
	str	x0, [sp, 40]
	str	x1, [sp, 32]
	ldr	x0, [sp, 32]
	bl	__ZSt7forwardISt4pairIiiEEOT_RNSt16remove_referenceIS2_E4typeE
	mov	x2, x0
	mov	w1, w19
	ldr	x0, [sp, 40]
	bl	__ZNSt10_HashtableIiSt4pairIKiiESaIS2_ENSt8__detail10_Select1stESt8equal_toIiESt4hashIiENS4_18_Mod_range_hashingENS4_20_Default_ranged_hashENS4_20_Prime_rehash_policyENS4_17_Hashtable_traitsILb0ELb0ELb1EEEE10_M_emplaceIJS0_IiiEEEES0_INS4_14_Node_iteratorIS2_Lb0ELb0EEEbESt17integral_constantIbLb1EEDpOT_
	ldr	x19, [sp, 16]
	ldp	x29, x30, [sp], 48
LCFI283:
	ret
LFE4911:
	.align	2
	.globl __ZNKSt14_List_iteratorIiEdeEv
	.weak_definition __ZNKSt14_List_iteratorIiEdeEv
__ZNKSt14_List_iteratorIiEdeEv:
LFB4912:
	stp	x29, x30, [sp, -32]!
LCFI284:
	mov	x29, sp
	str	x0, [sp, 24]
	ldr	x0, [sp, 24]
	ldr	x0, [x0]
	bl	__ZNSt10_List_nodeIiE9_M_valptrEv
	ldp	x29, x30, [sp], 32
LCFI285:
	ret
LFE4912:
	.align	2
	.globl __ZSt8distanceIPKcENSt15iterator_traitsIT_E15difference_typeES3_S3_
	.weak_definition __ZSt8distanceIPKcENSt15iterator_traitsIT_E15difference_typeES3_S3_
__ZSt8distanceIPKcENSt15iterator_traitsIT_E15difference_typeES3_S3_:
LFB4914:
	stp	x29, x30, [sp, -48]!
LCFI286:
	mov	x29, sp
	stp	x19, x20, [sp, 16]
LCFI287:
	str	x0, [sp, 40]
	str	x1, [sp, 32]
	ldr	x19, [sp, 40]
	add	x0, sp, 40
	bl	__ZSt19__iterator_categoryIPKcENSt15iterator_traitsIT_E17iterator_categoryERKS3_
	mov	w2, w20
	ldr	x1, [sp, 32]
	mov	x0, x19
	bl	__ZSt10__distanceIPKcENSt15iterator_traitsIT_E15difference_typeES3_S3_St26random_access_iterator_tag
	ldp	x19, x20, [sp, 16]
	ldp	x29, x30, [sp], 48
LCFI288:
	ret
LFE4914:
	.cstring
	.align	3
lC10:
	.ascii "basic_string::_M_construct null not valid\0"
	.text
	.align	2
	.globl __ZNSt7__cxx1112basic_stringIcSt11char_traitsIcESaIcEE12_M_constructIPKcEEvT_S8_St20forward_iterator_tag
	.weak_definition __ZNSt7__cxx1112basic_stringIcSt11char_traitsIcESaIcEE12_M_constructIPKcEEvT_S8_St20forward_iterator_tag
__ZNSt7__cxx1112basic_stringIcSt11char_traitsIcESaIcEE12_M_constructIPKcEEvT_S8_St20forward_iterator_tag:
LFB4913:
	stp	x29, x30, [sp, -80]!
LCFI289:
	mov	x29, sp
	str	x19, [sp, 16]
LCFI290:
	str	x0, [sp, 56]
	str	x1, [sp, 48]
	str	x2, [sp, 40]
	strb	w3, [sp, 32]
	ldr	x0, [sp, 48]
	bl	__ZN9__gnu_cxx17__is_null_pointerIKcEEbPT_
	and	w0, w0, 255
	cmp	w0, 0
	beq	L296
	ldr	x1, [sp, 48]
	ldr	x0, [sp, 40]
	cmp	x1, x0
	beq	L296
	mov	w0, 1
	b	L297
L296:
	mov	w0, 0
L297:
	cmp	w0, 0
	beq	L298
	adrp	x0, lC10@GOTPAGE
	ldr	x0, [x0, lC10@GOTPAGEOFF];momd
LEHB35:
	bl	__ZSt19__throw_logic_errorPKc
L298:
	ldr	x1, [sp, 40]
	ldr	x0, [sp, 48]
	bl	__ZSt8distanceIPKcENSt15iterator_traitsIT_E15difference_typeES3_S3_
	str	x0, [sp, 72]
	ldr	x0, [sp, 72]
	cmp	x0, 15
	bls	L299
	add	x0, sp, 72
	mov	x2, 0
	mov	x1, x0
	ldr	x0, [sp, 56]
	bl	__ZNSt7__cxx1112basic_stringIcSt11char_traitsIcESaIcEE9_M_createERmm
	mov	x1, x0
	ldr	x0, [sp, 56]
	bl	__ZNSt7__cxx1112basic_stringIcSt11char_traitsIcESaIcEE7_M_dataEPc
	ldr	x0, [sp, 72]
	mov	x1, x0
	ldr	x0, [sp, 56]
	bl	__ZNSt7__cxx1112basic_stringIcSt11char_traitsIcESaIcEE11_M_capacityEm
LEHE35:
L299:
	ldr	x0, [sp, 56]
LEHB36:
	bl	__ZNKSt7__cxx1112basic_stringIcSt11char_traitsIcESaIcEE7_M_dataEv
LEHE36:
	ldr	x2, [sp, 40]
	ldr	x1, [sp, 48]
	bl	__ZNSt7__cxx1112basic_stringIcSt11char_traitsIcESaIcEE13_S_copy_charsEPcPKcS7_
	ldr	x0, [sp, 72]
	mov	x1, x0
	ldr	x0, [sp, 56]
LEHB37:
	bl	__ZNSt7__cxx1112basic_stringIcSt11char_traitsIcESaIcEE13_M_set_lengthEm
LEHE37:
	b	L304
L302:
	bl	___cxa_begin_catch
	ldr	x0, [sp, 56]
LEHB38:
	bl	__ZNSt7__cxx1112basic_stringIcSt11char_traitsIcESaIcEE10_M_disposeEv
	bl	___cxa_rethrow
LEHE38:
L303:
	mov	x19, x0
	bl	___cxa_end_catch
	mov	x0, x19
LEHB39:
	bl	__Unwind_Resume
LEHE39:
L304:
	ldr	x19, [sp, 16]
	ldp	x29, x30, [sp], 80
LCFI291:
	ret
LFE4913:
	.section __DATA,__gcc_except_tab
_GCC_except_table18:
	.align	3
LLSDA4913:
	.byte	0xff
	.byte	0
	.uleb128 LLSDATT4913-LLSDATTD4913
LLSDATTD4913:
	.byte	0x1
	.uleb128 LLSDACSE4913-LLSDACSB4913
LLSDACSB4913:
	.uleb128 LEHB35-LFB4913
	.uleb128 LEHE35-LEHB35
	.uleb128 0
	.uleb128 0
	.uleb128 LEHB36-LFB4913
	.uleb128 LEHE36-LEHB36
	.uleb128 L302-LFB4913
	.uleb128 0x1
	.uleb128 LEHB37-LFB4913
	.uleb128 LEHE37-LEHB37
	.uleb128 0
	.uleb128 0
	.uleb128 LEHB38-LFB4913
	.uleb128 LEHE38-LEHB38
	.uleb128 L303-LFB4913
	.uleb128 0
	.uleb128 LEHB39-LFB4913
	.uleb128 LEHE39-LEHB39
	.uleb128 0
	.uleb128 0
LLSDACSE4913:
	.byte	0x1
	.byte	0
	.align	3
	.xword	0
LLSDATT4913:
	.text
	.align	2
	.globl __ZNSt6vectorI5blockSaIS0_EE11_S_max_sizeERKS1_
	.weak_definition __ZNSt6vectorI5blockSaIS0_EE11_S_max_sizeERKS1_
__ZNSt6vectorI5blockSaIS0_EE11_S_max_sizeERKS1_:
LFB4979:
	stp	x29, x30, [sp, -48]!
LCFI292:
	mov	x29, sp
	str	x0, [sp, 24]
	mov	x0, 576460752303423487
	str	x0, [sp, 40]
	ldr	x0, [sp, 24]
	bl	__ZNSt16allocator_traitsISaI5blockEE8max_sizeERKS1_
	str	x0, [sp, 32]
	add	x1, sp, 32
	add	x0, sp, 40
	bl	__ZSt3minImERKT_S2_S2_
	ldr	x0, [x0]
	ldp	x29, x30, [sp], 48
LCFI293:
	ret
LFE4979:
	.align	2
	.globl __ZNSaI5blockEC2ERKS0_
	.weak_definition __ZNSaI5blockEC2ERKS0_
__ZNSaI5blockEC2ERKS0_:
LFB4981:
	stp	x29, x30, [sp, -32]!
LCFI294:
	mov	x29, sp
	str	x0, [sp, 24]
	str	x1, [sp, 16]
	ldr	x1, [sp, 16]
	ldr	x0, [sp, 24]
	bl	__ZN9__gnu_cxx13new_allocatorI5blockEC2ERKS2_
	nop
	ldp	x29, x30, [sp], 32
LCFI295:
	ret
LFE4981:
	.align	2
	.globl __ZNSaI5blockEC1ERKS0_
	.weak_definition __ZNSaI5blockEC1ERKS0_
__ZNSaI5blockEC1ERKS0_:
LFB4982:
	stp	x29, x30, [sp, -32]!
LCFI296:
	mov	x29, sp
	str	x0, [sp, 24]
	str	x1, [sp, 16]
	ldr	x1, [sp, 16]
	ldr	x0, [sp, 24]
	bl	__ZN9__gnu_cxx13new_allocatorI5blockEC2ERKS2_
	nop
	ldp	x29, x30, [sp], 32
LCFI297:
	ret
LFE4982:
	.align	2
	.globl __ZNSt12_Vector_baseI5blockSaIS0_EE12_Vector_implC1ERKS1_
	.weak_definition __ZNSt12_Vector_baseI5blockSaIS0_EE12_Vector_implC1ERKS1_
__ZNSt12_Vector_baseI5blockSaIS0_EE12_Vector_implC1ERKS1_:
LFB4985:
	stp	x29, x30, [sp, -32]!
LCFI298:
	mov	x29, sp
	str	x0, [sp, 24]
	str	x1, [sp, 16]
	ldr	x1, [sp, 16]
	ldr	x0, [sp, 24]
	bl	__ZNSaI5blockEC2ERKS0_
	ldr	x0, [sp, 24]
	bl	__ZNSt12_Vector_baseI5blockSaIS0_EE17_Vector_impl_dataC2Ev
	nop
	ldp	x29, x30, [sp], 32
LCFI299:
	ret
LFE4985:
	.align	2
	.globl __ZNSt12_Vector_baseI5blockSaIS0_EE17_M_create_storageEm
	.weak_definition __ZNSt12_Vector_baseI5blockSaIS0_EE17_M_create_storageEm
__ZNSt12_Vector_baseI5blockSaIS0_EE17_M_create_storageEm:
LFB4986:
	stp	x29, x30, [sp, -32]!
LCFI300:
	mov	x29, sp
	str	x0, [sp, 24]
	str	x1, [sp, 16]
	ldr	x1, [sp, 16]
	ldr	x0, [sp, 24]
	bl	__ZNSt12_Vector_baseI5blockSaIS0_EE11_M_allocateEm
	mov	x1, x0
	ldr	x0, [sp, 24]
	str	x1, [x0]
	ldr	x0, [sp, 24]
	ldr	x1, [x0]
	ldr	x0, [sp, 24]
	str	x1, [x0, 8]
	ldr	x0, [sp, 24]
	ldr	x1, [x0]
	ldr	x0, [sp, 16]
	lsl	x0, x0, 4
	add	x1, x1, x0
	ldr	x0, [sp, 24]
	str	x1, [x0, 16]
	nop
	ldp	x29, x30, [sp], 32
LCFI301:
	ret
LFE4986:
	.align	2
	.globl __ZNSt12_Vector_baseI5blockSaIS0_EE13_M_deallocateEPS0_m
	.weak_definition __ZNSt12_Vector_baseI5blockSaIS0_EE13_M_deallocateEPS0_m
__ZNSt12_Vector_baseI5blockSaIS0_EE13_M_deallocateEPS0_m:
LFB4987:
	stp	x29, x30, [sp, -48]!
LCFI302:
	mov	x29, sp
	str	x0, [sp, 40]
	str	x1, [sp, 32]
	str	x2, [sp, 24]
	ldr	x0, [sp, 32]
	cmp	x0, 0
	beq	L313
	ldr	x0, [sp, 40]
	ldr	x2, [sp, 24]
	ldr	x1, [sp, 32]
	bl	__ZNSt16allocator_traitsISaI5blockEE10deallocateERS1_PS0_m
L313:
	nop
	ldp	x29, x30, [sp], 48
LCFI303:
	ret
LFE4987:
	.align	2
	.globl __ZSt24__uninitialized_fill_n_aIP5blockmS0_S0_ET_S2_T0_RKT1_RSaIT2_E
	.weak_definition __ZSt24__uninitialized_fill_n_aIP5blockmS0_S0_ET_S2_T0_RKT1_RSaIT2_E
__ZSt24__uninitialized_fill_n_aIP5blockmS0_S0_ET_S2_T0_RKT1_RSaIT2_E:
LFB4988:
	stp	x29, x30, [sp, -48]!
LCFI304:
	mov	x29, sp
	str	x0, [sp, 40]
	str	x1, [sp, 32]
	str	x2, [sp, 24]
	str	x3, [sp, 16]
	ldr	x2, [sp, 24]
	ldr	x1, [sp, 32]
	ldr	x0, [sp, 40]
	bl	__ZSt20uninitialized_fill_nIP5blockmS0_ET_S2_T0_RKT1_
	ldp	x29, x30, [sp], 48
LCFI305:
	ret
LFE4988:
	.align	2
	.globl __ZSt8_DestroyIP5blockEvT_S2_
	.weak_definition __ZSt8_DestroyIP5blockEvT_S2_
__ZSt8_DestroyIP5blockEvT_S2_:
LFB4989:
	stp	x29, x30, [sp, -32]!
LCFI306:
	mov	x29, sp
	str	x0, [sp, 24]
	str	x1, [sp, 16]
	ldr	x1, [sp, 16]
	ldr	x0, [sp, 24]
	bl	__ZNSt12_Destroy_auxILb0EE9__destroyIP5blockEEvT_S4_
	nop
	ldp	x29, x30, [sp], 32
LCFI307:
	ret
LFE4989:
	.align	2
	.globl __ZNKSt10_HashtableIiSt4pairIKiiESaIS2_ENSt8__detail10_Select1stESt8equal_toIiESt4hashIiENS4_18_Mod_range_hashingENS4_20_Default_ranged_hashENS4_20_Prime_rehash_policyENS4_17_Hashtable_traitsILb0ELb0ELb1EEEE8_M_beginEv
	.weak_definition __ZNKSt10_HashtableIiSt4pairIKiiESaIS2_ENSt8__detail10_Select1stESt8equal_toIiESt4hashIiENS4_18_Mod_range_hashingENS4_20_Default_ranged_hashENS4_20_Prime_rehash_policyENS4_17_Hashtable_traitsILb0ELb0ELb1EEEE8_M_beginEv
__ZNKSt10_HashtableIiSt4pairIKiiESaIS2_ENSt8__detail10_Select1stESt8equal_toIiESt4hashIiENS4_18_Mod_range_hashingENS4_20_Default_ranged_hashENS4_20_Prime_rehash_policyENS4_17_Hashtable_traitsILb0ELb0ELb1EEEE8_M_beginEv:
LFB4991:
	sub	sp, sp, #16
LCFI308:
	str	x0, [sp, 8]
	ldr	x0, [sp, 8]
	ldr	x0, [x0, 16]
	add	sp, sp, 16
LCFI309:
	ret
LFE4991:
	.align	2
	.globl __ZNSt8__detail16_Hashtable_allocISaINS_10_Hash_nodeISt4pairIKiiELb0EEEEE19_M_deallocate_nodesEPS5_
	.weak_definition __ZNSt8__detail16_Hashtable_allocISaINS_10_Hash_nodeISt4pairIKiiELb0EEEEE19_M_deallocate_nodesEPS5_
__ZNSt8__detail16_Hashtable_allocISaINS_10_Hash_nodeISt4pairIKiiELb0EEEEE19_M_deallocate_nodesEPS5_:
LFB4992:
	stp	x29, x30, [sp, -48]!
LCFI310:
	mov	x29, sp
	str	x0, [sp, 24]
	str	x1, [sp, 16]
	b	L320
L321:
	ldr	x0, [sp, 16]
	str	x0, [sp, 40]
	ldr	x0, [sp, 16]
	bl	__ZNKSt8__detail10_Hash_nodeISt4pairIKiiELb0EE7_M_nextEv
	str	x0, [sp, 16]
	ldr	x1, [sp, 40]
	ldr	x0, [sp, 24]
	bl	__ZNSt8__detail16_Hashtable_allocISaINS_10_Hash_nodeISt4pairIKiiELb0EEEEE18_M_deallocate_nodeEPS5_
L320:
	ldr	x0, [sp, 16]
	cmp	x0, 0
	bne	L321
	nop
	nop
	ldp	x29, x30, [sp], 48
LCFI311:
	ret
LFE4992:
	.align	2
	.globl __ZNSt10_HashtableIiSt4pairIKiiESaIS2_ENSt8__detail10_Select1stESt8equal_toIiESt4hashIiENS4_18_Mod_range_hashingENS4_20_Default_ranged_hashENS4_20_Prime_rehash_policyENS4_17_Hashtable_traitsILb0ELb0ELb1EEEE21_M_deallocate_bucketsEPPNS4_15_Hash_node_baseEm
	.weak_definition __ZNSt10_HashtableIiSt4pairIKiiESaIS2_ENSt8__detail10_Select1stESt8equal_toIiESt4hashIiENS4_18_Mod_range_hashingENS4_20_Default_ranged_hashENS4_20_Prime_rehash_policyENS4_17_Hashtable_traitsILb0ELb0ELb1EEEE21_M_deallocate_bucketsEPPNS4_15_Hash_node_baseEm
__ZNSt10_HashtableIiSt4pairIKiiESaIS2_ENSt8__detail10_Select1stESt8equal_toIiESt4hashIiENS4_18_Mod_range_hashingENS4_20_Default_ranged_hashENS4_20_Prime_rehash_policyENS4_17_Hashtable_traitsILb0ELb0ELb1EEEE21_M_deallocate_bucketsEPPNS4_15_Hash_node_baseEm:
LFB4993:
	stp	x29, x30, [sp, -48]!
LCFI312:
	mov	x29, sp
	str	x0, [sp, 40]
	str	x1, [sp, 32]
	str	x2, [sp, 24]
	ldr	x1, [sp, 32]
	ldr	x0, [sp, 40]
	bl	__ZNKSt10_HashtableIiSt4pairIKiiESaIS2_ENSt8__detail10_Select1stESt8equal_toIiESt4hashIiENS4_18_Mod_range_hashingENS4_20_Default_ranged_hashENS4_20_Prime_rehash_policyENS4_17_Hashtable_traitsILb0ELb0ELb1EEEE21_M_uses_single_bucketEPPNS4_15_Hash_node_baseE
	and	w0, w0, 255
	cmp	w0, 0
	bne	L325
	ldr	x2, [sp, 24]
	ldr	x1, [sp, 32]
	ldr	x0, [sp, 40]
	bl	__ZNSt8__detail16_Hashtable_allocISaINS_10_Hash_nodeISt4pairIKiiELb0EEEEE21_M_deallocate_bucketsEPPNS_15_Hash_node_baseEm
	b	L322
L325:
	nop
L322:
	ldp	x29, x30, [sp], 48
LCFI313:
	ret
LFE4993:
	.align	2
	.globl __ZN9__gnu_cxx13new_allocatorISt10_List_nodeIiEEC2Ev
	.weak_definition __ZN9__gnu_cxx13new_allocatorISt10_List_nodeIiEEC2Ev
__ZN9__gnu_cxx13new_allocatorISt10_List_nodeIiEEC2Ev:
LFB4995:
	sub	sp, sp, #16
LCFI314:
	str	x0, [sp, 8]
	nop
	add	sp, sp, 16
LCFI315:
	ret
LFE4995:
	.align	2
	.globl __ZNSt10_List_nodeIiE9_M_valptrEv
	.weak_definition __ZNSt10_List_nodeIiE9_M_valptrEv
__ZNSt10_List_nodeIiE9_M_valptrEv:
LFB4997:
	stp	x29, x30, [sp, -32]!
LCFI316:
	mov	x29, sp
	str	x0, [sp, 24]
	ldr	x0, [sp, 24]
	add	x0, x0, 16
	bl	__ZN9__gnu_cxx16__aligned_membufIiE6_M_ptrEv
	ldp	x29, x30, [sp], 32
LCFI317:
	ret
LFE4997:
	.align	2
	.globl __ZNSt7__cxx1110_List_baseIiSaIiEE21_M_get_Node_allocatorEv
	.weak_definition __ZNSt7__cxx1110_List_baseIiSaIiEE21_M_get_Node_allocatorEv
__ZNSt7__cxx1110_List_baseIiSaIiEE21_M_get_Node_allocatorEv:
LFB4998:
	sub	sp, sp, #16
LCFI318:
	str	x0, [sp, 8]
	ldr	x0, [sp, 8]
	add	sp, sp, 16
LCFI319:
	ret
LFE4998:
	.align	2
	.globl __ZNSt16allocator_traitsISaISt10_List_nodeIiEEE7destroyIiEEvRS2_PT_
	.weak_definition __ZNSt16allocator_traitsISaISt10_List_nodeIiEEE7destroyIiEEvRS2_PT_
__ZNSt16allocator_traitsISaISt10_List_nodeIiEEE7destroyIiEEvRS2_PT_:
LFB4999:
	stp	x29, x30, [sp, -32]!
LCFI320:
	mov	x29, sp
	str	x0, [sp, 24]
	str	x1, [sp, 16]
	ldr	x1, [sp, 16]
	ldr	x0, [sp, 24]
	bl	__ZN9__gnu_cxx13new_allocatorISt10_List_nodeIiEE7destroyIiEEvPT_
	nop
	ldp	x29, x30, [sp], 32
LCFI321:
	ret
LFE4999:
	.align	2
	.globl __ZNSt7__cxx1110_List_baseIiSaIiEE11_M_put_nodeEPSt10_List_nodeIiE
	.weak_definition __ZNSt7__cxx1110_List_baseIiSaIiEE11_M_put_nodeEPSt10_List_nodeIiE
__ZNSt7__cxx1110_List_baseIiSaIiEE11_M_put_nodeEPSt10_List_nodeIiE:
LFB5000:
	stp	x29, x30, [sp, -32]!
LCFI322:
	mov	x29, sp
	str	x0, [sp, 24]
	str	x1, [sp, 16]
	ldr	x0, [sp, 24]
	mov	x2, 1
	ldr	x1, [sp, 16]
	bl	__ZNSt16allocator_traitsISaISt10_List_nodeIiEEE10deallocateERS2_PS1_m
	nop
	ldp	x29, x30, [sp], 32
LCFI323:
	ret
LFE5000:
	.section __DATA,__gcc_except_tab
_GCC_except_table19:
LLSDA5000:
	.byte	0xff
	.byte	0xff
	.byte	0x1
	.uleb128 LLSDACSE5000-LLSDACSB5000
LLSDACSB5000:
LLSDACSE5000:
	.text
	.align	2
	.globl __ZNSt6vectorI9cache_setSaIS0_EE11_S_max_sizeERKS1_
	.weak_definition __ZNSt6vectorI9cache_setSaIS0_EE11_S_max_sizeERKS1_
__ZNSt6vectorI9cache_setSaIS0_EE11_S_max_sizeERKS1_:
LFB5001:
	stp	x29, x30, [sp, -48]!
LCFI324:
	mov	x29, sp
	str	x0, [sp, 24]
	mov	x0, 18724
	movk	x0, 0x2492, lsl 16
	movk	x0, 0x9249, lsl 32
	movk	x0, 0x124, lsl 48
	str	x0, [sp, 40]
	ldr	x0, [sp, 24]
	bl	__ZNSt16allocator_traitsISaI9cache_setEE8max_sizeERKS1_
	str	x0, [sp, 32]
	add	x1, sp, 32
	add	x0, sp, 40
	bl	__ZSt3minImERKT_S2_S2_
	ldr	x0, [x0]
	ldp	x29, x30, [sp], 48
LCFI325:
	ret
LFE5001:
	.align	2
	.globl __ZNSaI9cache_setEC2ERKS0_
	.weak_definition __ZNSaI9cache_setEC2ERKS0_
__ZNSaI9cache_setEC2ERKS0_:
LFB5003:
	stp	x29, x30, [sp, -32]!
LCFI326:
	mov	x29, sp
	str	x0, [sp, 24]
	str	x1, [sp, 16]
	ldr	x1, [sp, 16]
	ldr	x0, [sp, 24]
	bl	__ZN9__gnu_cxx13new_allocatorI9cache_setEC2ERKS2_
	nop
	ldp	x29, x30, [sp], 32
LCFI327:
	ret
LFE5003:
	.align	2
	.globl __ZNSaI9cache_setEC1ERKS0_
	.weak_definition __ZNSaI9cache_setEC1ERKS0_
__ZNSaI9cache_setEC1ERKS0_:
LFB5004:
	stp	x29, x30, [sp, -32]!
LCFI328:
	mov	x29, sp
	str	x0, [sp, 24]
	str	x1, [sp, 16]
	ldr	x1, [sp, 16]
	ldr	x0, [sp, 24]
	bl	__ZN9__gnu_cxx13new_allocatorI9cache_setEC2ERKS2_
	nop
	ldp	x29, x30, [sp], 32
LCFI329:
	ret
LFE5004:
	.align	2
	.globl __ZNSt12_Vector_baseI9cache_setSaIS0_EE12_Vector_implC1ERKS1_
	.weak_definition __ZNSt12_Vector_baseI9cache_setSaIS0_EE12_Vector_implC1ERKS1_
__ZNSt12_Vector_baseI9cache_setSaIS0_EE12_Vector_implC1ERKS1_:
LFB5007:
	stp	x29, x30, [sp, -32]!
LCFI330:
	mov	x29, sp
	str	x0, [sp, 24]
	str	x1, [sp, 16]
	ldr	x1, [sp, 16]
	ldr	x0, [sp, 24]
	bl	__ZNSaI9cache_setEC2ERKS0_
	ldr	x0, [sp, 24]
	bl	__ZNSt12_Vector_baseI9cache_setSaIS0_EE17_Vector_impl_dataC2Ev
	nop
	ldp	x29, x30, [sp], 32
LCFI331:
	ret
LFE5007:
	.align	2
	.globl __ZNSt12_Vector_baseI9cache_setSaIS0_EE17_M_create_storageEm
	.weak_definition __ZNSt12_Vector_baseI9cache_setSaIS0_EE17_M_create_storageEm
__ZNSt12_Vector_baseI9cache_setSaIS0_EE17_M_create_storageEm:
LFB5008:
	stp	x29, x30, [sp, -32]!
LCFI332:
	mov	x29, sp
	str	x0, [sp, 24]
	str	x1, [sp, 16]
	ldr	x1, [sp, 16]
	ldr	x0, [sp, 24]
	bl	__ZNSt12_Vector_baseI9cache_setSaIS0_EE11_M_allocateEm
	mov	x1, x0
	ldr	x0, [sp, 24]
	str	x1, [x0]
	ldr	x0, [sp, 24]
	ldr	x1, [x0]
	ldr	x0, [sp, 24]
	str	x1, [x0, 8]
	ldr	x0, [sp, 24]
	ldr	x2, [x0]
	ldr	x1, [sp, 16]
	mov	x0, x1
	lsl	x0, x0, 3
	sub	x0, x0, x1
	lsl	x0, x0, 4
	add	x1, x2, x0
	ldr	x0, [sp, 24]
	str	x1, [x0, 16]
	nop
	ldp	x29, x30, [sp], 32
LCFI333:
	ret
LFE5008:
	.align	2
	.globl __ZNSt12_Vector_baseI9cache_setSaIS0_EE13_M_deallocateEPS0_m
	.weak_definition __ZNSt12_Vector_baseI9cache_setSaIS0_EE13_M_deallocateEPS0_m
__ZNSt12_Vector_baseI9cache_setSaIS0_EE13_M_deallocateEPS0_m:
LFB5009:
	stp	x29, x30, [sp, -48]!
LCFI334:
	mov	x29, sp
	str	x0, [sp, 40]
	str	x1, [sp, 32]
	str	x2, [sp, 24]
	ldr	x0, [sp, 32]
	cmp	x0, 0
	beq	L341
	ldr	x0, [sp, 40]
	ldr	x2, [sp, 24]
	ldr	x1, [sp, 32]
	bl	__ZNSt16allocator_traitsISaI9cache_setEE10deallocateERS1_PS0_m
L341:
	nop
	ldp	x29, x30, [sp], 48
LCFI335:
	ret
LFE5009:
	.align	2
	.globl __ZSt24__uninitialized_fill_n_aIP9cache_setmS0_S0_ET_S2_T0_RKT1_RSaIT2_E
	.weak_definition __ZSt24__uninitialized_fill_n_aIP9cache_setmS0_S0_ET_S2_T0_RKT1_RSaIT2_E
__ZSt24__uninitialized_fill_n_aIP9cache_setmS0_S0_ET_S2_T0_RKT1_RSaIT2_E:
LFB5010:
	stp	x29, x30, [sp, -48]!
LCFI336:
	mov	x29, sp
	str	x0, [sp, 40]
	str	x1, [sp, 32]
	str	x2, [sp, 24]
	str	x3, [sp, 16]
	ldr	x2, [sp, 24]
	ldr	x1, [sp, 32]
	ldr	x0, [sp, 40]
	bl	__ZSt20uninitialized_fill_nIP9cache_setmS0_ET_S2_T0_RKT1_
	ldp	x29, x30, [sp], 48
LCFI337:
	ret
LFE5010:
	.align	2
	.globl __ZSt8_DestroyIP9cache_setEvT_S2_
	.weak_definition __ZSt8_DestroyIP9cache_setEvT_S2_
__ZSt8_DestroyIP9cache_setEvT_S2_:
LFB5011:
	stp	x29, x30, [sp, -32]!
LCFI338:
	mov	x29, sp
	str	x0, [sp, 24]
	str	x1, [sp, 16]
	ldr	x1, [sp, 16]
	ldr	x0, [sp, 24]
	bl	__ZNSt12_Destroy_auxILb0EE9__destroyIP9cache_setEEvT_S4_
	nop
	ldp	x29, x30, [sp], 32
LCFI339:
	ret
LFE5011:
	.align	2
	.globl __ZNKSt8__detail15_Hash_code_baseIiSt4pairIKiiENS_10_Select1stESt4hashIiENS_18_Mod_range_hashingENS_20_Default_ranged_hashELb0EE12_M_hash_codeERS2_
	.weak_definition __ZNKSt8__detail15_Hash_code_baseIiSt4pairIKiiENS_10_Select1stESt4hashIiENS_18_Mod_range_hashingENS_20_Default_ranged_hashELb0EE12_M_hash_codeERS2_
__ZNKSt8__detail15_Hash_code_baseIiSt4pairIKiiENS_10_Select1stESt4hashIiENS_18_Mod_range_hashingENS_20_Default_ranged_hashELb0EE12_M_hash_codeERS2_:
LFB5021:
	stp	x29, x30, [sp, -32]!
LCFI340:
	mov	x29, sp
	str	x0, [sp, 24]
	str	x1, [sp, 16]
	ldr	x0, [sp, 24]
	bl	__ZNKSt8__detail15_Hash_code_baseIiSt4pairIKiiENS_10_Select1stESt4hashIiENS_18_Mod_range_hashingENS_20_Default_ranged_hashELb0EE7_M_hashEv
	mov	x2, x0
	ldr	x0, [sp, 16]
	ldr	w0, [x0]
	mov	w1, w0
	mov	x0, x2
	bl	__ZNKSt4hashIiEclEi
	ldp	x29, x30, [sp], 32
LCFI341:
	ret
LFE5021:
	.align	2
	.globl __ZNKSt10_HashtableIiSt4pairIKiiESaIS2_ENSt8__detail10_Select1stESt8equal_toIiESt4hashIiENS4_18_Mod_range_hashingENS4_20_Default_ranged_hashENS4_20_Prime_rehash_policyENS4_17_Hashtable_traitsILb0ELb0ELb1EEEE15_M_bucket_indexEm
	.weak_definition __ZNKSt10_HashtableIiSt4pairIKiiESaIS2_ENSt8__detail10_Select1stESt8equal_toIiESt4hashIiENS4_18_Mod_range_hashingENS4_20_Default_ranged_hashENS4_20_Prime_rehash_policyENS4_17_Hashtable_traitsILb0ELb0ELb1EEEE15_M_bucket_indexEm
__ZNKSt10_HashtableIiSt4pairIKiiESaIS2_ENSt8__detail10_Select1stESt8equal_toIiESt4hashIiENS4_18_Mod_range_hashingENS4_20_Default_ranged_hashENS4_20_Prime_rehash_policyENS4_17_Hashtable_traitsILb0ELb0ELb1EEEE15_M_bucket_indexEm:
LFB5022:
	stp	x29, x30, [sp, -32]!
LCFI342:
	mov	x29, sp
	str	x0, [sp, 24]
	str	x1, [sp, 16]
	ldr	x0, [sp, 24]
	ldr	x0, [x0, 8]
	mov	x2, x0
	ldr	x1, [sp, 16]
	ldr	x0, [sp, 24]
	bl	__ZNKSt8__detail15_Hash_code_baseIiSt4pairIKiiENS_10_Select1stESt4hashIiENS_18_Mod_range_hashingENS_20_Default_ranged_hashELb0EE15_M_bucket_indexEmm
	ldp	x29, x30, [sp], 32
LCFI343:
	ret
LFE5022:
	.align	2
	.globl __ZNKSt10_HashtableIiSt4pairIKiiESaIS2_ENSt8__detail10_Select1stESt8equal_toIiESt4hashIiENS4_18_Mod_range_hashingENS4_20_Default_ranged_hashENS4_20_Prime_rehash_policyENS4_17_Hashtable_traitsILb0ELb0ELb1EEEE12_M_find_nodeEmRS1_m
	.weak_definition __ZNKSt10_HashtableIiSt4pairIKiiESaIS2_ENSt8__detail10_Select1stESt8equal_toIiESt4hashIiENS4_18_Mod_range_hashingENS4_20_Default_ranged_hashENS4_20_Prime_rehash_policyENS4_17_Hashtable_traitsILb0ELb0ELb1EEEE12_M_find_nodeEmRS1_m
__ZNKSt10_HashtableIiSt4pairIKiiESaIS2_ENSt8__detail10_Select1stESt8equal_toIiESt4hashIiENS4_18_Mod_range_hashingENS4_20_Default_ranged_hashENS4_20_Prime_rehash_policyENS4_17_Hashtable_traitsILb0ELb0ELb1EEEE12_M_find_nodeEmRS1_m:
LFB5023:
	stp	x29, x30, [sp, -64]!
LCFI344:
	mov	x29, sp
	str	x0, [sp, 40]
	str	x1, [sp, 32]
	str	x2, [sp, 24]
	str	x3, [sp, 16]
	ldr	x3, [sp, 16]
	ldr	x2, [sp, 24]
	ldr	x1, [sp, 32]
	ldr	x0, [sp, 40]
	bl	__ZNKSt10_HashtableIiSt4pairIKiiESaIS2_ENSt8__detail10_Select1stESt8equal_toIiESt4hashIiENS4_18_Mod_range_hashingENS4_20_Default_ranged_hashENS4_20_Prime_rehash_policyENS4_17_Hashtable_traitsILb0ELb0ELb1EEEE19_M_find_before_nodeEmRS1_m
	str	x0, [sp, 56]
	ldr	x0, [sp, 56]
	cmp	x0, 0
	beq	L350
	ldr	x0, [sp, 56]
	ldr	x0, [x0]
	b	L351
L350:
	mov	x0, 0
L351:
	ldp	x29, x30, [sp], 64
LCFI345:
	ret
LFE5023:
	.align	2
	.globl __ZNSt8__detail14_Node_iteratorISt4pairIKiiELb0ELb0EEC1EPNS_10_Hash_nodeIS3_Lb0EEE
	.weak_definition __ZNSt8__detail14_Node_iteratorISt4pairIKiiELb0ELb0EEC1EPNS_10_Hash_nodeIS3_Lb0EEE
__ZNSt8__detail14_Node_iteratorISt4pairIKiiELb0ELb0EEC1EPNS_10_Hash_nodeIS3_Lb0EEE:
LFB5026:
	stp	x29, x30, [sp, -32]!
LCFI346:
	mov	x29, sp
	str	x0, [sp, 24]
	str	x1, [sp, 16]
	ldr	x0, [sp, 24]
	ldr	x1, [sp, 16]
	bl	__ZNSt8__detail19_Node_iterator_baseISt4pairIKiiELb0EEC2EPNS_10_Hash_nodeIS3_Lb0EEE
	nop
	ldp	x29, x30, [sp], 32
LCFI347:
	ret
LFE5026:
	.align	2
	.globl __ZN9__gnu_cxx16__aligned_bufferISt4pairIKiiEE6_M_ptrEv
	.weak_definition __ZN9__gnu_cxx16__aligned_bufferISt4pairIKiiEE6_M_ptrEv
__ZN9__gnu_cxx16__aligned_bufferISt4pairIKiiEE6_M_ptrEv:
LFB5027:
	stp	x29, x30, [sp, -32]!
LCFI348:
	mov	x29, sp
	str	x0, [sp, 24]
	ldr	x0, [sp, 24]
	bl	__ZN9__gnu_cxx16__aligned_bufferISt4pairIKiiEE7_M_addrEv
	ldp	x29, x30, [sp], 32
LCFI349:
	ret
LFE5027:
	.align	2
	.globl __ZN9__gnu_cxx5__ops16_Iter_equals_valIKiEC1ERS2_
	.weak_definition __ZN9__gnu_cxx5__ops16_Iter_equals_valIKiEC1ERS2_
__ZN9__gnu_cxx5__ops16_Iter_equals_valIKiEC1ERS2_:
LFB5030:
	sub	sp, sp, #16
LCFI350:
	str	x0, [sp, 8]
	str	x1, [sp]
	ldr	x0, [sp, 8]
	ldr	x1, [sp]
	str	x1, [x0]
	nop
	add	sp, sp, 16
LCFI351:
	ret
LFE5030:
	.align	2
	.globl __ZSt19__iterator_categoryISt14_List_iteratorIiEENSt15iterator_traitsIT_E17iterator_categoryERKS3_
	.weak_definition __ZSt19__iterator_categoryISt14_List_iteratorIiEENSt15iterator_traitsIT_E17iterator_categoryERKS3_
__ZSt19__iterator_categoryISt14_List_iteratorIiEENSt15iterator_traitsIT_E17iterator_categoryERKS3_:
LFB5031:
	sub	sp, sp, #16
LCFI352:
	str	x0, [sp, 8]
	mov	w0, w1
	add	sp, sp, 16
LCFI353:
	ret
LFE5031:
	.align	2
	.globl __ZSt9__find_ifISt14_List_iteratorIiEN9__gnu_cxx5__ops16_Iter_equals_valIKiEEET_S7_S7_T0_St18input_iterator_tag
	.weak_definition __ZSt9__find_ifISt14_List_iteratorIiEN9__gnu_cxx5__ops16_Iter_equals_valIKiEEET_S7_S7_T0_St18input_iterator_tag
__ZSt9__find_ifISt14_List_iteratorIiEN9__gnu_cxx5__ops16_Iter_equals_valIKiEEET_S7_S7_T0_St18input_iterator_tag:
LFB5032:
	stp	x29, x30, [sp, -48]!
LCFI354:
	mov	x29, sp
	str	x0, [sp, 40]
	str	x1, [sp, 32]
	str	x2, [sp, 24]
	strb	w3, [sp, 16]
	b	L359
L362:
	add	x0, sp, 40
	bl	__ZNSt14_List_iteratorIiEppEv
L359:
	add	x1, sp, 32
	add	x0, sp, 40
	bl	__ZStneRKSt14_List_iteratorIiES2_
	and	w0, w0, 255
	cmp	w0, 0
	beq	L360
	add	x0, sp, 24
	ldr	x1, [sp, 40]
	bl	__ZN9__gnu_cxx5__ops16_Iter_equals_valIKiEclISt14_List_iteratorIiEEEbT_
	and	w0, w0, 255
	eor	w0, w0, 1
	and	w0, w0, 255
	cmp	w0, 0
	beq	L360
	mov	w0, 1
	b	L361
L360:
	mov	w0, 0
L361:
	cmp	w0, 0
	bne	L362
	ldr	x0, [sp, 40]
	ldp	x29, x30, [sp], 48
LCFI355:
	ret
LFE5032:
	.align	2
	.globl __ZNSt7__cxx1110_List_baseIiSaIiEE11_M_dec_sizeEm
	.weak_definition __ZNSt7__cxx1110_List_baseIiSaIiEE11_M_dec_sizeEm
__ZNSt7__cxx1110_List_baseIiSaIiEE11_M_dec_sizeEm:
LFB5033:
	sub	sp, sp, #16
LCFI356:
	str	x0, [sp, 8]
	str	x1, [sp]
	ldr	x0, [sp, 8]
	ldr	x1, [x0, 16]
	ldr	x0, [sp]
	sub	x1, x1, x0
	ldr	x0, [sp, 8]
	str	x1, [x0, 16]
	nop
	add	sp, sp, 16
LCFI357:
	ret
LFE5033:
	.align	2
	.globl __ZNSt8__detail20_Node_const_iteratorISt4pairIKiiELb0ELb0EEC1ERKNS_14_Node_iteratorIS3_Lb0ELb0EEE
	.weak_definition __ZNSt8__detail20_Node_const_iteratorISt4pairIKiiELb0ELb0EEC1ERKNS_14_Node_iteratorIS3_Lb0ELb0EEE
__ZNSt8__detail20_Node_const_iteratorISt4pairIKiiELb0ELb0EEC1ERKNS_14_Node_iteratorIS3_Lb0ELb0EEE:
LFB5036:
	stp	x29, x30, [sp, -32]!
LCFI358:
	mov	x29, sp
	str	x0, [sp, 24]
	str	x1, [sp, 16]
	ldr	x2, [sp, 24]
	ldr	x0, [sp, 16]
	ldr	x0, [x0]
	mov	x1, x0
	mov	x0, x2
	bl	__ZNSt8__detail19_Node_iterator_baseISt4pairIKiiELb0EEC2EPNS_10_Hash_nodeIS3_Lb0EEE
	nop
	ldp	x29, x30, [sp], 32
LCFI359:
	ret
LFE5036:
	.align	2
	.globl __ZNSt10_HashtableIiSt4pairIKiiESaIS2_ENSt8__detail10_Select1stESt8equal_toIiESt4hashIiENS4_18_Mod_range_hashingENS4_20_Default_ranged_hashENS4_20_Prime_rehash_policyENS4_17_Hashtable_traitsILb0ELb0ELb1EEEE5eraseENS4_20_Node_const_iteratorIS2_Lb0ELb0EEE
	.weak_definition __ZNSt10_HashtableIiSt4pairIKiiESaIS2_ENSt8__detail10_Select1stESt8equal_toIiESt4hashIiENS4_18_Mod_range_hashingENS4_20_Default_ranged_hashENS4_20_Prime_rehash_policyENS4_17_Hashtable_traitsILb0ELb0ELb1EEEE5eraseENS4_20_Node_const_iteratorIS2_Lb0ELb0EEE
__ZNSt10_HashtableIiSt4pairIKiiESaIS2_ENSt8__detail10_Select1stESt8equal_toIiESt4hashIiENS4_18_Mod_range_hashingENS4_20_Default_ranged_hashENS4_20_Prime_rehash_policyENS4_17_Hashtable_traitsILb0ELb0ELb1EEEE5eraseENS4_20_Node_const_iteratorIS2_Lb0ELb0EEE:
LFB5037:
	stp	x29, x30, [sp, -64]!
LCFI360:
	mov	x29, sp
	str	x0, [sp, 24]
	str	x1, [sp, 16]
	ldr	x0, [sp, 16]
	str	x0, [sp, 56]
	ldr	x0, [sp, 56]
	add	x0, x0, 8
	mov	x1, x0
	ldr	x0, [sp, 24]
	bl	__ZNKSt10_HashtableIiSt4pairIKiiESaIS2_ENSt8__detail10_Select1stESt8equal_toIiESt4hashIiENS4_18_Mod_range_hashingENS4_20_Default_ranged_hashENS4_20_Prime_rehash_policyENS4_17_Hashtable_traitsILb0ELb0ELb1EEEE15_M_bucket_indexERKNS4_16_Hash_node_valueIS2_Lb0EEE
	str	x0, [sp, 48]
	ldr	x2, [sp, 56]
	ldr	x1, [sp, 48]
	ldr	x0, [sp, 24]
	bl	__ZNSt10_HashtableIiSt4pairIKiiESaIS2_ENSt8__detail10_Select1stESt8equal_toIiESt4hashIiENS4_18_Mod_range_hashingENS4_20_Default_ranged_hashENS4_20_Prime_rehash_policyENS4_17_Hashtable_traitsILb0ELb0ELb1EEEE20_M_get_previous_nodeEmPNS4_10_Hash_nodeIS2_Lb0EEE
	str	x0, [sp, 40]
	ldr	x3, [sp, 56]
	ldr	x2, [sp, 40]
	ldr	x1, [sp, 48]
	ldr	x0, [sp, 24]
	bl	__ZNSt10_HashtableIiSt4pairIKiiESaIS2_ENSt8__detail10_Select1stESt8equal_toIiESt4hashIiENS4_18_Mod_range_hashingENS4_20_Default_ranged_hashENS4_20_Prime_rehash_policyENS4_17_Hashtable_traitsILb0ELb0ELb1EEEE8_M_eraseEmPNS4_15_Hash_node_baseEPNS4_10_Hash_nodeIS2_Lb0EEE
	ldp	x29, x30, [sp], 64
LCFI361:
	ret
LFE5037:
	.align	2
	.globl __ZNKSt7__cxx1110_List_baseIiSaIiEE11_M_get_sizeEv
	.weak_definition __ZNKSt7__cxx1110_List_baseIiSaIiEE11_M_get_sizeEv
__ZNKSt7__cxx1110_List_baseIiSaIiEE11_M_get_sizeEv:
LFB5038:
	sub	sp, sp, #16
LCFI362:
	str	x0, [sp, 8]
	ldr	x0, [sp, 8]
	ldr	x0, [x0, 16]
	add	sp, sp, 16
LCFI363:
	ret
LFE5038:
	.align	2
	.globl __ZSt7forwardIRKiEOT_RNSt16remove_referenceIS2_E4typeE
	.weak_definition __ZSt7forwardIRKiEOT_RNSt16remove_referenceIS2_E4typeE
__ZSt7forwardIRKiEOT_RNSt16remove_referenceIS2_E4typeE:
LFB5039:
	sub	sp, sp, #16
LCFI364:
	str	x0, [sp, 8]
	ldr	x0, [sp, 8]
	add	sp, sp, 16
LCFI365:
	ret
LFE5039:
	.align	2
	.globl __ZNSt7__cxx114listIiSaIiEE14_M_create_nodeIJRKiEEEPSt10_List_nodeIiEDpOT_
	.weak_definition __ZNSt7__cxx114listIiSaIiEE14_M_create_nodeIJRKiEEEPSt10_List_nodeIiEDpOT_
__ZNSt7__cxx114listIiSaIiEE14_M_create_nodeIJRKiEEEPSt10_List_nodeIiEDpOT_:
LFB5040:
	stp	x29, x30, [sp, -80]!
LCFI366:
	mov	x29, sp
	str	x19, [sp, 16]
LCFI367:
	str	x0, [sp, 40]
	str	x1, [sp, 32]
	ldr	x0, [sp, 40]
	bl	__ZNSt7__cxx1110_List_baseIiSaIiEE11_M_get_nodeEv
	str	x0, [sp, 72]
	ldr	x0, [sp, 40]
	bl	__ZNSt7__cxx1110_List_baseIiSaIiEE21_M_get_Node_allocatorEv
	str	x0, [sp, 64]
	add	x0, sp, 48
	ldr	x2, [sp, 72]
	ldr	x1, [sp, 64]
	bl	__ZNSt15__allocated_ptrISaISt10_List_nodeIiEEEC1ERS2_PS1_
	ldr	x0, [sp, 72]
	bl	__ZNSt10_List_nodeIiE9_M_valptrEv
	mov	x19, x0
	ldr	x0, [sp, 32]
	bl	__ZSt7forwardIRKiEOT_RNSt16remove_referenceIS2_E4typeE
	mov	x2, x0
	mov	x1, x19
	ldr	x0, [sp, 64]
	bl	__ZNSt16allocator_traitsISaISt10_List_nodeIiEEE9constructIiJRKiEEEvRS2_PT_DpOT0_
	add	x0, sp, 48
	mov	x1, 0
	bl	__ZNSt15__allocated_ptrISaISt10_List_nodeIiEEEaSEDn
	ldr	x19, [sp, 72]
	add	x0, sp, 48
	bl	__ZNSt15__allocated_ptrISaISt10_List_nodeIiEEED1Ev
	mov	x0, x19
	ldr	x19, [sp, 16]
	ldp	x29, x30, [sp], 80
LCFI368:
	ret
LFE5040:
	.align	2
	.globl __ZNSt7__cxx1110_List_baseIiSaIiEE11_M_inc_sizeEm
	.weak_definition __ZNSt7__cxx1110_List_baseIiSaIiEE11_M_inc_sizeEm
__ZNSt7__cxx1110_List_baseIiSaIiEE11_M_inc_sizeEm:
LFB5041:
	sub	sp, sp, #16
LCFI369:
	str	x0, [sp, 8]
	str	x1, [sp]
	ldr	x0, [sp, 8]
	ldr	x1, [x0, 16]
	ldr	x0, [sp]
	add	x1, x1, x0
	ldr	x0, [sp, 8]
	str	x1, [x0, 16]
	nop
	add	sp, sp, 16
LCFI370:
	ret
LFE5041:
	.align	2
	.globl __ZNSt10_HashtableIiSt4pairIKiiESaIS2_ENSt8__detail10_Select1stESt8equal_toIiESt4hashIiENS4_18_Mod_range_hashingENS4_20_Default_ranged_hashENS4_20_Prime_rehash_policyENS4_17_Hashtable_traitsILb0ELb0ELb1EEEE10_M_emplaceIJS0_IiiEEEES0_INS4_14_Node_iteratorIS2_Lb0ELb0EEEbESt17integral_constantIbLb1EEDpOT_
	.weak_definition __ZNSt10_HashtableIiSt4pairIKiiESaIS2_ENSt8__detail10_Select1stESt8equal_toIiESt4hashIiENS4_18_Mod_range_hashingENS4_20_Default_ranged_hashENS4_20_Prime_rehash_policyENS4_17_Hashtable_traitsILb0ELb0ELb1EEEE10_M_emplaceIJS0_IiiEEEES0_INS4_14_Node_iteratorIS2_Lb0ELb0EEEbESt17integral_constantIbLb1EEDpOT_
__ZNSt10_HashtableIiSt4pairIKiiESaIS2_ENSt8__detail10_Select1stESt8equal_toIiESt4hashIiENS4_18_Mod_range_hashingENS4_20_Default_ranged_hashENS4_20_Prime_rehash_policyENS4_17_Hashtable_traitsILb0ELb0ELb1EEEE10_M_emplaceIJS0_IiiEEEES0_INS4_14_Node_iteratorIS2_Lb0ELb0EEEbESt17integral_constantIbLb1EEDpOT_:
LFB5042:
	stp	x29, x30, [sp, -192]!
LCFI371:
	mov	x29, sp
	stp	x19, x20, [sp, 16]
	str	x21, [sp, 32]
LCFI372:
	str	x0, [sp, 72]
	strb	w1, [sp, 64]
	str	x2, [sp, 56]
	ldr	x0, [sp, 56]
	bl	__ZSt7forwardISt4pairIiiEEOT_RNSt16remove_referenceIS2_E4typeE
	mov	x1, x0
	add	x0, sp, 96
	mov	x2, x1
	ldr	x1, [sp, 72]
LEHB40:
	bl	__ZNSt10_HashtableIiSt4pairIKiiESaIS2_ENSt8__detail10_Select1stESt8equal_toIiESt4hashIiENS4_18_Mod_range_hashingENS4_20_Default_ranged_hashENS4_20_Prime_rehash_policyENS4_17_Hashtable_traitsILb0ELb0ELb1EEEE12_Scoped_nodeC1IJS0_IiiEEEEPNS4_16_Hashtable_allocISaINS4_10_Hash_nodeIS2_Lb0EEEEEEDpOT_
LEHE40:
	ldr	x0, [sp, 104]
	add	x0, x0, 8
	bl	__ZNSt8__detail21_Hash_node_value_baseISt4pairIKiiEE4_M_vEv
	mov	x1, x0
	add	x0, sp, 112
	bl	__ZNKSt8__detail10_Select1stclIRSt4pairIKiiEEEDTcl3getILi0EEcl7forwardIT_Efp_EEEOS6_
	str	x0, [sp, 184]
	ldr	x1, [sp, 184]
	ldr	x0, [sp, 72]
LEHB41:
	bl	__ZNKSt8__detail15_Hash_code_baseIiSt4pairIKiiENS_10_Select1stESt4hashIiENS_18_Mod_range_hashingENS_20_Default_ranged_hashELb0EE12_M_hash_codeERS2_
	str	x0, [sp, 176]
	ldr	x1, [sp, 176]
	ldr	x0, [sp, 72]
	bl	__ZNKSt10_HashtableIiSt4pairIKiiESaIS2_ENSt8__detail10_Select1stESt8equal_toIiESt4hashIiENS4_18_Mod_range_hashingENS4_20_Default_ranged_hashENS4_20_Prime_rehash_policyENS4_17_Hashtable_traitsILb0ELb0ELb1EEEE15_M_bucket_indexEm
	str	x0, [sp, 168]
	ldr	x3, [sp, 176]
	ldr	x2, [sp, 184]
	ldr	x1, [sp, 168]
	ldr	x0, [sp, 72]
	bl	__ZNKSt10_HashtableIiSt4pairIKiiESaIS2_ENSt8__detail10_Select1stESt8equal_toIiESt4hashIiENS4_18_Mod_range_hashingENS4_20_Default_ranged_hashENS4_20_Prime_rehash_policyENS4_17_Hashtable_traitsILb0ELb0ELb1EEEE12_M_find_nodeEmRS1_m
	str	x0, [sp, 160]
	ldr	x0, [sp, 160]
	cmp	x0, 0
	beq	L376
	add	x0, sp, 120
	ldr	x1, [sp, 160]
	bl	__ZNSt8__detail14_Node_iteratorISt4pairIKiiELb0ELb0EEC1EPNS_10_Hash_nodeIS3_Lb0EEE
	strb	wzr, [sp, 135]
	add	x1, sp, 135
	add	x0, sp, 120
	bl	__ZSt9make_pairINSt8__detail14_Node_iteratorISt4pairIKiiELb0ELb0EEEbES2_INSt25__strip_reference_wrapperINSt5decayIT_E4typeEE6__typeENS6_INS7_IT0_E4typeEE6__typeEEOS8_OSD_
	mov	x20, x0
	mov	x21, x1
	b	L377
L376:
	ldr	x0, [sp, 104]
	mov	x4, 1
	mov	x3, x0
	ldr	x2, [sp, 176]
	ldr	x1, [sp, 168]
	ldr	x0, [sp, 72]
	bl	__ZNSt10_HashtableIiSt4pairIKiiESaIS2_ENSt8__detail10_Select1stESt8equal_toIiESt4hashIiENS4_18_Mod_range_hashingENS4_20_Default_ranged_hashENS4_20_Prime_rehash_policyENS4_17_Hashtable_traitsILb0ELb0ELb1EEEE21_M_insert_unique_nodeEmmPNS4_10_Hash_nodeIS2_Lb0EEEm
LEHE41:
	str	x0, [sp, 88]
	str	xzr, [sp, 104]
	mov	w0, 1
	strb	w0, [sp, 159]
	add	x2, sp, 159
	add	x1, sp, 88
	add	x0, sp, 136
	bl	__ZNSt4pairINSt8__detail14_Node_iteratorIS_IKiiELb0ELb0EEEbEC1IRS4_bLb1EEEOT_OT0_
	ldp	x20, x21, [sp, 136]
L377:
	add	x0, sp, 96
	bl	__ZNSt10_HashtableIiSt4pairIKiiESaIS2_ENSt8__detail10_Select1stESt8equal_toIiESt4hashIiENS4_18_Mod_range_hashingENS4_20_Default_ranged_hashENS4_20_Prime_rehash_policyENS4_17_Hashtable_traitsILb0ELb0ELb1EEEE12_Scoped_nodeD1Ev
	mov	x0, x20
	mov	x1, x21
	b	L381
L380:
	mov	x19, x0
	add	x0, sp, 96
	bl	__ZNSt10_HashtableIiSt4pairIKiiESaIS2_ENSt8__detail10_Select1stESt8equal_toIiESt4hashIiENS4_18_Mod_range_hashingENS4_20_Default_ranged_hashENS4_20_Prime_rehash_policyENS4_17_Hashtable_traitsILb0ELb0ELb1EEEE12_Scoped_nodeD1Ev
	mov	x0, x19
LEHB42:
	bl	__Unwind_Resume
LEHE42:
L381:
	ldp	x19, x20, [sp, 16]
	ldr	x21, [sp, 32]
	ldp	x29, x30, [sp], 192
LCFI373:
	ret
LFE5042:
	.section __DATA,__gcc_except_tab
_GCC_except_table20:
LLSDA5042:
	.byte	0xff
	.byte	0xff
	.byte	0x1
	.uleb128 LLSDACSE5042-LLSDACSB5042
LLSDACSB5042:
	.uleb128 LEHB40-LFB5042
	.uleb128 LEHE40-LEHB40
	.uleb128 0
	.uleb128 0
	.uleb128 LEHB41-LFB5042
	.uleb128 LEHE41-LEHB41
	.uleb128 L380-LFB5042
	.uleb128 0
	.uleb128 LEHB42-LFB5042
	.uleb128 LEHE42-LEHB42
	.uleb128 0
	.uleb128 0
LLSDACSE5042:
	.text
	.align	2
	.globl __ZN9__gnu_cxx17__is_null_pointerIKcEEbPT_
	.weak_definition __ZN9__gnu_cxx17__is_null_pointerIKcEEbPT_
__ZN9__gnu_cxx17__is_null_pointerIKcEEbPT_:
LFB5051:
	sub	sp, sp, #16
LCFI374:
	str	x0, [sp, 8]
	ldr	x0, [sp, 8]
	cmp	x0, 0
	cset	w0, eq
	and	w0, w0, 255
	add	sp, sp, 16
LCFI375:
	ret
LFE5051:
	.align	2
	.globl __ZSt19__iterator_categoryIPKcENSt15iterator_traitsIT_E17iterator_categoryERKS3_
	.weak_definition __ZSt19__iterator_categoryIPKcENSt15iterator_traitsIT_E17iterator_categoryERKS3_
__ZSt19__iterator_categoryIPKcENSt15iterator_traitsIT_E17iterator_categoryERKS3_:
LFB5052:
	sub	sp, sp, #16
LCFI376:
	str	x0, [sp, 8]
	mov	w0, w1
	add	sp, sp, 16
LCFI377:
	ret
LFE5052:
	.align	2
	.globl __ZSt10__distanceIPKcENSt15iterator_traitsIT_E15difference_typeES3_S3_St26random_access_iterator_tag
	.weak_definition __ZSt10__distanceIPKcENSt15iterator_traitsIT_E15difference_typeES3_S3_St26random_access_iterator_tag
__ZSt10__distanceIPKcENSt15iterator_traitsIT_E15difference_typeES3_S3_St26random_access_iterator_tag:
LFB5053:
	sub	sp, sp, #32
LCFI378:
	str	x0, [sp, 24]
	str	x1, [sp, 16]
	strb	w2, [sp, 8]
	ldr	x1, [sp, 16]
	ldr	x0, [sp, 24]
	sub	x0, x1, x0
	add	sp, sp, 32
LCFI379:
	ret
LFE5053:
	.align	2
	.globl __ZNSt16allocator_traitsISaI5blockEE8max_sizeERKS1_
	.weak_definition __ZNSt16allocator_traitsISaI5blockEE8max_sizeERKS1_
__ZNSt16allocator_traitsISaI5blockEE8max_sizeERKS1_:
LFB5106:
	stp	x29, x30, [sp, -32]!
LCFI380:
	mov	x29, sp
	str	x0, [sp, 24]
	ldr	x0, [sp, 24]
	bl	__ZNK9__gnu_cxx13new_allocatorI5blockE8max_sizeEv
	ldp	x29, x30, [sp], 32
LCFI381:
	ret
LFE5106:
	.align	2
	.globl __ZN9__gnu_cxx13new_allocatorI5blockEC2ERKS2_
	.weak_definition __ZN9__gnu_cxx13new_allocatorI5blockEC2ERKS2_
__ZN9__gnu_cxx13new_allocatorI5blockEC2ERKS2_:
LFB5108:
	sub	sp, sp, #16
LCFI382:
	str	x0, [sp, 8]
	str	x1, [sp]
	nop
	add	sp, sp, 16
LCFI383:
	ret
LFE5108:
	.align	2
	.globl __ZNSt12_Vector_baseI5blockSaIS0_EE17_Vector_impl_dataC2Ev
	.weak_definition __ZNSt12_Vector_baseI5blockSaIS0_EE17_Vector_impl_dataC2Ev
__ZNSt12_Vector_baseI5blockSaIS0_EE17_Vector_impl_dataC2Ev:
LFB5111:
	sub	sp, sp, #16
LCFI384:
	str	x0, [sp, 8]
	ldr	x0, [sp, 8]
	str	xzr, [x0]
	ldr	x0, [sp, 8]
	str	xzr, [x0, 8]
	ldr	x0, [sp, 8]
	str	xzr, [x0, 16]
	nop
	add	sp, sp, 16
LCFI385:
	ret
LFE5111:
	.align	2
	.globl __ZNSt12_Vector_baseI5blockSaIS0_EE11_M_allocateEm
	.weak_definition __ZNSt12_Vector_baseI5blockSaIS0_EE11_M_allocateEm
__ZNSt12_Vector_baseI5blockSaIS0_EE11_M_allocateEm:
LFB5113:
	stp	x29, x30, [sp, -32]!
LCFI386:
	mov	x29, sp
	str	x0, [sp, 24]
	str	x1, [sp, 16]
	ldr	x0, [sp, 16]
	cmp	x0, 0
	beq	L393
	ldr	x0, [sp, 24]
	ldr	x1, [sp, 16]
	bl	__ZNSt16allocator_traitsISaI5blockEE8allocateERS1_m
	b	L395
L393:
	mov	x0, 0
L395:
	ldp	x29, x30, [sp], 32
LCFI387:
	ret
LFE5113:
	.align	2
	.globl __ZNSt16allocator_traitsISaI5blockEE10deallocateERS1_PS0_m
	.weak_definition __ZNSt16allocator_traitsISaI5blockEE10deallocateERS1_PS0_m
__ZNSt16allocator_traitsISaI5blockEE10deallocateERS1_PS0_m:
LFB5114:
	stp	x29, x30, [sp, -48]!
LCFI388:
	mov	x29, sp
	str	x0, [sp, 40]
	str	x1, [sp, 32]
	str	x2, [sp, 24]
	ldr	x2, [sp, 24]
	ldr	x1, [sp, 32]
	ldr	x0, [sp, 40]
	bl	__ZN9__gnu_cxx13new_allocatorI5blockE10deallocateEPS1_m
	nop
	ldp	x29, x30, [sp], 48
LCFI389:
	ret
LFE5114:
	.align	2
	.globl __ZSt20uninitialized_fill_nIP5blockmS0_ET_S2_T0_RKT1_
	.weak_definition __ZSt20uninitialized_fill_nIP5blockmS0_ET_S2_T0_RKT1_
__ZSt20uninitialized_fill_nIP5blockmS0_ET_S2_T0_RKT1_:
LFB5115:
	stp	x29, x30, [sp, -64]!
LCFI390:
	mov	x29, sp
	str	x0, [sp, 40]
	str	x1, [sp, 32]
	str	x2, [sp, 24]
	mov	w0, 1
	strb	w0, [sp, 63]
	ldr	x2, [sp, 24]
	ldr	x1, [sp, 32]
	ldr	x0, [sp, 40]
	bl	__ZNSt22__uninitialized_fill_nILb0EE15__uninit_fill_nIP5blockmS2_EET_S4_T0_RKT1_
	ldp	x29, x30, [sp], 64
LCFI391:
	ret
LFE5115:
	.align	2
	.globl __ZNSt12_Destroy_auxILb0EE9__destroyIP5blockEEvT_S4_
	.weak_definition __ZNSt12_Destroy_auxILb0EE9__destroyIP5blockEEvT_S4_
__ZNSt12_Destroy_auxILb0EE9__destroyIP5blockEEvT_S4_:
LFB5116:
	stp	x29, x30, [sp, -32]!
LCFI392:
	mov	x29, sp
	str	x0, [sp, 24]
	str	x1, [sp, 16]
	b	L400
L401:
	ldr	x0, [sp, 24]
	bl	__ZSt11__addressofI5blockEPT_RS1_
	bl	__ZSt8_DestroyI5blockEvPT_
	ldr	x0, [sp, 24]
	add	x0, x0, 16
	str	x0, [sp, 24]
L400:
	ldr	x1, [sp, 24]
	ldr	x0, [sp, 16]
	cmp	x1, x0
	bne	L401
	nop
	nop
	ldp	x29, x30, [sp], 32
LCFI393:
	ret
LFE5116:
	.align	2
	.globl __ZNKSt8__detail10_Hash_nodeISt4pairIKiiELb0EE7_M_nextEv
	.weak_definition __ZNKSt8__detail10_Hash_nodeISt4pairIKiiELb0EE7_M_nextEv
__ZNKSt8__detail10_Hash_nodeISt4pairIKiiELb0EE7_M_nextEv:
LFB5117:
	sub	sp, sp, #16
LCFI394:
	str	x0, [sp, 8]
	ldr	x0, [sp, 8]
	ldr	x0, [x0]
	add	sp, sp, 16
LCFI395:
	ret
LFE5117:
	.align	2
	.globl __ZNSt8__detail16_Hashtable_allocISaINS_10_Hash_nodeISt4pairIKiiELb0EEEEE18_M_deallocate_nodeEPS5_
	.weak_definition __ZNSt8__detail16_Hashtable_allocISaINS_10_Hash_nodeISt4pairIKiiELb0EEEEE18_M_deallocate_nodeEPS5_
__ZNSt8__detail16_Hashtable_allocISaINS_10_Hash_nodeISt4pairIKiiELb0EEEEE18_M_deallocate_nodeEPS5_:
LFB5118:
	stp	x29, x30, [sp, -48]!
LCFI396:
	mov	x29, sp
	str	x19, [sp, 16]
LCFI397:
	str	x0, [sp, 40]
	str	x1, [sp, 32]
	ldr	x0, [sp, 40]
	bl	__ZNSt8__detail16_Hashtable_allocISaINS_10_Hash_nodeISt4pairIKiiELb0EEEEE17_M_node_allocatorEv
	mov	x19, x0
	ldr	x0, [sp, 32]
	add	x0, x0, 8
	bl	__ZNSt8__detail21_Hash_node_value_baseISt4pairIKiiEE9_M_valptrEv
	mov	x1, x0
	mov	x0, x19
	bl	__ZNSt16allocator_traitsISaINSt8__detail10_Hash_nodeISt4pairIKiiELb0EEEEE7destroyIS4_EEvRS6_PT_
	ldr	x1, [sp, 32]
	ldr	x0, [sp, 40]
	bl	__ZNSt8__detail16_Hashtable_allocISaINS_10_Hash_nodeISt4pairIKiiELb0EEEEE22_M_deallocate_node_ptrEPS5_
	nop
	ldr	x19, [sp, 16]
	ldp	x29, x30, [sp], 48
LCFI398:
	ret
LFE5118:
	.align	2
	.globl __ZNKSt10_HashtableIiSt4pairIKiiESaIS2_ENSt8__detail10_Select1stESt8equal_toIiESt4hashIiENS4_18_Mod_range_hashingENS4_20_Default_ranged_hashENS4_20_Prime_rehash_policyENS4_17_Hashtable_traitsILb0ELb0ELb1EEEE21_M_uses_single_bucketEPPNS4_15_Hash_node_baseE
	.weak_definition __ZNKSt10_HashtableIiSt4pairIKiiESaIS2_ENSt8__detail10_Select1stESt8equal_toIiESt4hashIiENS4_18_Mod_range_hashingENS4_20_Default_ranged_hashENS4_20_Prime_rehash_policyENS4_17_Hashtable_traitsILb0ELb0ELb1EEEE21_M_uses_single_bucketEPPNS4_15_Hash_node_baseE
__ZNKSt10_HashtableIiSt4pairIKiiESaIS2_ENSt8__detail10_Select1stESt8equal_toIiESt4hashIiENS4_18_Mod_range_hashingENS4_20_Default_ranged_hashENS4_20_Prime_rehash_policyENS4_17_Hashtable_traitsILb0ELb0ELb1EEEE21_M_uses_single_bucketEPPNS4_15_Hash_node_baseE:
LFB5119:
	sub	sp, sp, #16
LCFI399:
	str	x0, [sp, 8]
	str	x1, [sp]
	ldr	x0, [sp, 8]
	add	x0, x0, 48
	ldr	x1, [sp]
	cmp	x1, x0
	cset	w0, eq
	and	w0, w0, 255
	and	x0, x0, 255
	cmp	x0, 0
	cset	w0, ne
	and	w0, w0, 255
	add	sp, sp, 16
LCFI400:
	ret
LFE5119:
	.align	2
	.globl __ZNSt8__detail16_Hashtable_allocISaINS_10_Hash_nodeISt4pairIKiiELb0EEEEE21_M_deallocate_bucketsEPPNS_15_Hash_node_baseEm
	.weak_definition __ZNSt8__detail16_Hashtable_allocISaINS_10_Hash_nodeISt4pairIKiiELb0EEEEE21_M_deallocate_bucketsEPPNS_15_Hash_node_baseEm
__ZNSt8__detail16_Hashtable_allocISaINS_10_Hash_nodeISt4pairIKiiELb0EEEEE21_M_deallocate_bucketsEPPNS_15_Hash_node_baseEm:
LFB5120:
	stp	x29, x30, [sp, -80]!
LCFI401:
	mov	x29, sp
	str	x19, [sp, 16]
LCFI402:
	str	x0, [sp, 56]
	str	x1, [sp, 48]
	str	x2, [sp, 40]
	ldr	x0, [sp, 48]
	bl	__ZNSt14pointer_traitsIPPNSt8__detail15_Hash_node_baseEE10pointer_toERS2_
	str	x0, [sp, 72]
	ldr	x0, [sp, 56]
LEHB43:
	bl	__ZNSt8__detail16_Hashtable_allocISaINS_10_Hash_nodeISt4pairIKiiELb0EEEEE17_M_node_allocatorEv
LEHE43:
	mov	x1, x0
	add	x0, sp, 64
	bl	__ZNSaIPNSt8__detail15_Hash_node_baseEEC1INS_10_Hash_nodeISt4pairIKiiELb0EEEEERKSaIT_E
	add	x0, sp, 64
	ldr	x2, [sp, 40]
	ldr	x1, [sp, 72]
LEHB44:
	bl	__ZNSt16allocator_traitsISaIPNSt8__detail15_Hash_node_baseEEE10deallocateERS3_PS2_m
LEHE44:
	add	x0, sp, 64
	bl	__ZNSaIPNSt8__detail15_Hash_node_baseEED1Ev
	b	L410
L409:
	mov	x19, x0
	add	x0, sp, 64
	bl	__ZNSaIPNSt8__detail15_Hash_node_baseEED1Ev
	mov	x0, x19
LEHB45:
	bl	__Unwind_Resume
LEHE45:
L410:
	ldr	x19, [sp, 16]
	ldp	x29, x30, [sp], 80
LCFI403:
	ret
LFE5120:
	.section __DATA,__gcc_except_tab
_GCC_except_table21:
LLSDA5120:
	.byte	0xff
	.byte	0xff
	.byte	0x1
	.uleb128 LLSDACSE5120-LLSDACSB5120
LLSDACSB5120:
	.uleb128 LEHB43-LFB5120
	.uleb128 LEHE43-LEHB43
	.uleb128 0
	.uleb128 0
	.uleb128 LEHB44-LFB5120
	.uleb128 LEHE44-LEHB44
	.uleb128 L409-LFB5120
	.uleb128 0
	.uleb128 LEHB45-LFB5120
	.uleb128 LEHE45-LEHB45
	.uleb128 0
	.uleb128 0
LLSDACSE5120:
	.text
	.align	2
	.globl __ZN9__gnu_cxx16__aligned_membufIiE6_M_ptrEv
	.weak_definition __ZN9__gnu_cxx16__aligned_membufIiE6_M_ptrEv
__ZN9__gnu_cxx16__aligned_membufIiE6_M_ptrEv:
LFB5121:
	stp	x29, x30, [sp, -32]!
LCFI404:
	mov	x29, sp
	str	x0, [sp, 24]
	ldr	x0, [sp, 24]
	bl	__ZN9__gnu_cxx16__aligned_membufIiE7_M_addrEv
	ldp	x29, x30, [sp], 32
LCFI405:
	ret
LFE5121:
	.align	2
	.globl __ZN9__gnu_cxx13new_allocatorISt10_List_nodeIiEE7destroyIiEEvPT_
	.weak_definition __ZN9__gnu_cxx13new_allocatorISt10_List_nodeIiEE7destroyIiEEvPT_
__ZN9__gnu_cxx13new_allocatorISt10_List_nodeIiEE7destroyIiEEvPT_:
LFB5122:
	sub	sp, sp, #16
LCFI406:
	str	x0, [sp, 8]
	str	x1, [sp]
	nop
	add	sp, sp, 16
LCFI407:
	ret
LFE5122:
	.align	2
	.globl __ZNSt16allocator_traitsISaISt10_List_nodeIiEEE10deallocateERS2_PS1_m
	.weak_definition __ZNSt16allocator_traitsISaISt10_List_nodeIiEEE10deallocateERS2_PS1_m
__ZNSt16allocator_traitsISaISt10_List_nodeIiEEE10deallocateERS2_PS1_m:
LFB5123:
	stp	x29, x30, [sp, -48]!
LCFI408:
	mov	x29, sp
	str	x0, [sp, 40]
	str	x1, [sp, 32]
	str	x2, [sp, 24]
	ldr	x2, [sp, 24]
	ldr	x1, [sp, 32]
	ldr	x0, [sp, 40]
	bl	__ZN9__gnu_cxx13new_allocatorISt10_List_nodeIiEE10deallocateEPS2_m
	nop
	ldp	x29, x30, [sp], 48
LCFI409:
	ret
LFE5123:
	.align	2
	.globl __ZNSt16allocator_traitsISaI9cache_setEE8max_sizeERKS1_
	.weak_definition __ZNSt16allocator_traitsISaI9cache_setEE8max_sizeERKS1_
__ZNSt16allocator_traitsISaI9cache_setEE8max_sizeERKS1_:
LFB5124:
	stp	x29, x30, [sp, -32]!
LCFI410:
	mov	x29, sp
	str	x0, [sp, 24]
	ldr	x0, [sp, 24]
	bl	__ZNK9__gnu_cxx13new_allocatorI9cache_setE8max_sizeEv
	ldp	x29, x30, [sp], 32
LCFI411:
	ret
LFE5124:
	.align	2
	.globl __ZN9__gnu_cxx13new_allocatorI9cache_setEC2ERKS2_
	.weak_definition __ZN9__gnu_cxx13new_allocatorI9cache_setEC2ERKS2_
__ZN9__gnu_cxx13new_allocatorI9cache_setEC2ERKS2_:
LFB5126:
	sub	sp, sp, #16
LCFI412:
	str	x0, [sp, 8]
	str	x1, [sp]
	nop
	add	sp, sp, 16
LCFI413:
	ret
LFE5126:
	.align	2
	.globl __ZNSt12_Vector_baseI9cache_setSaIS0_EE17_Vector_impl_dataC2Ev
	.weak_definition __ZNSt12_Vector_baseI9cache_setSaIS0_EE17_Vector_impl_dataC2Ev
__ZNSt12_Vector_baseI9cache_setSaIS0_EE17_Vector_impl_dataC2Ev:
LFB5129:
	sub	sp, sp, #16
LCFI414:
	str	x0, [sp, 8]
	ldr	x0, [sp, 8]
	str	xzr, [x0]
	ldr	x0, [sp, 8]
	str	xzr, [x0, 8]
	ldr	x0, [sp, 8]
	str	xzr, [x0, 16]
	nop
	add	sp, sp, 16
LCFI415:
	ret
LFE5129:
	.align	2
	.globl __ZNSt12_Vector_baseI9cache_setSaIS0_EE11_M_allocateEm
	.weak_definition __ZNSt12_Vector_baseI9cache_setSaIS0_EE11_M_allocateEm
__ZNSt12_Vector_baseI9cache_setSaIS0_EE11_M_allocateEm:
LFB5131:
	stp	x29, x30, [sp, -32]!
LCFI416:
	mov	x29, sp
	str	x0, [sp, 24]
	str	x1, [sp, 16]
	ldr	x0, [sp, 16]
	cmp	x0, 0
	beq	L420
	ldr	x0, [sp, 24]
	ldr	x1, [sp, 16]
	bl	__ZNSt16allocator_traitsISaI9cache_setEE8allocateERS1_m
	b	L422
L420:
	mov	x0, 0
L422:
	ldp	x29, x30, [sp], 32
LCFI417:
	ret
LFE5131:
	.align	2
	.globl __ZNSt16allocator_traitsISaI9cache_setEE10deallocateERS1_PS0_m
	.weak_definition __ZNSt16allocator_traitsISaI9cache_setEE10deallocateERS1_PS0_m
__ZNSt16allocator_traitsISaI9cache_setEE10deallocateERS1_PS0_m:
LFB5132:
	stp	x29, x30, [sp, -48]!
LCFI418:
	mov	x29, sp
	str	x0, [sp, 40]
	str	x1, [sp, 32]
	str	x2, [sp, 24]
	ldr	x2, [sp, 24]
	ldr	x1, [sp, 32]
	ldr	x0, [sp, 40]
	bl	__ZN9__gnu_cxx13new_allocatorI9cache_setE10deallocateEPS1_m
	nop
	ldp	x29, x30, [sp], 48
LCFI419:
	ret
LFE5132:
	.align	2
	.globl __ZSt20uninitialized_fill_nIP9cache_setmS0_ET_S2_T0_RKT1_
	.weak_definition __ZSt20uninitialized_fill_nIP9cache_setmS0_ET_S2_T0_RKT1_
__ZSt20uninitialized_fill_nIP9cache_setmS0_ET_S2_T0_RKT1_:
LFB5133:
	stp	x29, x30, [sp, -64]!
LCFI420:
	mov	x29, sp
	str	x0, [sp, 40]
	str	x1, [sp, 32]
	str	x2, [sp, 24]
	mov	w0, 1
	strb	w0, [sp, 63]
	ldr	x2, [sp, 24]
	ldr	x1, [sp, 32]
	ldr	x0, [sp, 40]
	bl	__ZNSt22__uninitialized_fill_nILb0EE15__uninit_fill_nIP9cache_setmS2_EET_S4_T0_RKT1_
	ldp	x29, x30, [sp], 64
LCFI421:
	ret
LFE5133:
	.align	2
	.globl __ZNSt12_Destroy_auxILb0EE9__destroyIP9cache_setEEvT_S4_
	.weak_definition __ZNSt12_Destroy_auxILb0EE9__destroyIP9cache_setEEvT_S4_
__ZNSt12_Destroy_auxILb0EE9__destroyIP9cache_setEEvT_S4_:
LFB5134:
	stp	x29, x30, [sp, -32]!
LCFI422:
	mov	x29, sp
	str	x0, [sp, 24]
	str	x1, [sp, 16]
	b	L427
L428:
	ldr	x0, [sp, 24]
	bl	__ZSt11__addressofI9cache_setEPT_RS1_
	bl	__ZSt8_DestroyI9cache_setEvPT_
	ldr	x0, [sp, 24]
	add	x0, x0, 112
	str	x0, [sp, 24]
L427:
	ldr	x1, [sp, 24]
	ldr	x0, [sp, 16]
	cmp	x1, x0
	bne	L428
	nop
	nop
	ldp	x29, x30, [sp], 32
LCFI423:
	ret
LFE5134:
	.align	2
	.globl __ZNKSt8__detail15_Hash_code_baseIiSt4pairIKiiENS_10_Select1stESt4hashIiENS_18_Mod_range_hashingENS_20_Default_ranged_hashELb0EE7_M_hashEv
	.weak_definition __ZNKSt8__detail15_Hash_code_baseIiSt4pairIKiiENS_10_Select1stESt4hashIiENS_18_Mod_range_hashingENS_20_Default_ranged_hashELb0EE7_M_hashEv
__ZNKSt8__detail15_Hash_code_baseIiSt4pairIKiiENS_10_Select1stESt4hashIiENS_18_Mod_range_hashingENS_20_Default_ranged_hashELb0EE7_M_hashEv:
LFB5136:
	stp	x29, x30, [sp, -32]!
LCFI424:
	mov	x29, sp
	str	x0, [sp, 24]
	ldr	x0, [sp, 24]
	bl	__ZNKSt8__detail21_Hashtable_ebo_helperILi1ESt4hashIiELb1EE7_M_cgetEv
	ldp	x29, x30, [sp], 32
LCFI425:
	ret
LFE5136:
	.align	2
	.globl __ZNKSt8__detail15_Hash_code_baseIiSt4pairIKiiENS_10_Select1stESt4hashIiENS_18_Mod_range_hashingENS_20_Default_ranged_hashELb0EE15_M_bucket_indexEmm
	.weak_definition __ZNKSt8__detail15_Hash_code_baseIiSt4pairIKiiENS_10_Select1stESt4hashIiENS_18_Mod_range_hashingENS_20_Default_ranged_hashELb0EE15_M_bucket_indexEmm
__ZNKSt8__detail15_Hash_code_baseIiSt4pairIKiiENS_10_Select1stESt4hashIiENS_18_Mod_range_hashingENS_20_Default_ranged_hashELb0EE15_M_bucket_indexEmm:
LFB5137:
	stp	x29, x30, [sp, -64]!
LCFI426:
	mov	x29, sp
	str	x0, [sp, 40]
	str	x1, [sp, 32]
	str	x2, [sp, 24]
	add	x0, sp, 56
	ldr	x2, [sp, 24]
	ldr	x1, [sp, 32]
	bl	__ZNKSt8__detail18_Mod_range_hashingclEmm
	ldp	x29, x30, [sp], 64
LCFI427:
	ret
LFE5137:
	.align	2
	.globl __ZNKSt10_HashtableIiSt4pairIKiiESaIS2_ENSt8__detail10_Select1stESt8equal_toIiESt4hashIiENS4_18_Mod_range_hashingENS4_20_Default_ranged_hashENS4_20_Prime_rehash_policyENS4_17_Hashtable_traitsILb0ELb0ELb1EEEE19_M_find_before_nodeEmRS1_m
	.weak_definition __ZNKSt10_HashtableIiSt4pairIKiiESaIS2_ENSt8__detail10_Select1stESt8equal_toIiESt4hashIiENS4_18_Mod_range_hashingENS4_20_Default_ranged_hashENS4_20_Prime_rehash_policyENS4_17_Hashtable_traitsILb0ELb0ELb1EEEE19_M_find_before_nodeEmRS1_m
__ZNKSt10_HashtableIiSt4pairIKiiESaIS2_ENSt8__detail10_Select1stESt8equal_toIiESt4hashIiENS4_18_Mod_range_hashingENS4_20_Default_ranged_hashENS4_20_Prime_rehash_policyENS4_17_Hashtable_traitsILb0ELb0ELb1EEEE19_M_find_before_nodeEmRS1_m:
LFB5138:
	stp	x29, x30, [sp, -64]!
LCFI428:
	mov	x29, sp
	str	x0, [sp, 40]
	str	x1, [sp, 32]
	str	x2, [sp, 24]
	str	x3, [sp, 16]
	ldr	x0, [sp, 40]
	ldr	x1, [x0]
	ldr	x0, [sp, 32]
	lsl	x0, x0, 3
	add	x0, x1, x0
	ldr	x0, [x0]
	str	x0, [sp, 56]
	ldr	x0, [sp, 56]
	cmp	x0, 0
	bne	L434
	mov	x0, 0
	b	L435
L434:
	ldr	x0, [sp, 56]
	ldr	x0, [x0]
	str	x0, [sp, 48]
L442:
	ldr	x0, [sp, 48]
	add	x0, x0, 8
	mov	x3, x0
	ldr	x2, [sp, 16]
	ldr	x1, [sp, 24]
	ldr	x0, [sp, 40]
	bl	__ZNKSt8__detail15_Hashtable_baseIiSt4pairIKiiENS_10_Select1stESt8equal_toIiESt4hashIiENS_18_Mod_range_hashingENS_20_Default_ranged_hashENS_17_Hashtable_traitsILb0ELb0ELb1EEEE9_M_equalsERS2_mRKNS_16_Hash_node_valueIS3_Lb0EEE
	and	w0, w0, 255
	cmp	w0, 0
	beq	L436
	ldr	x0, [sp, 56]
	b	L435
L436:
	ldr	x0, [sp, 48]
	ldr	x0, [x0]
	cmp	x0, 0
	beq	L437
	ldr	x0, [sp, 48]
	bl	__ZNKSt8__detail10_Hash_nodeISt4pairIKiiELb0EE7_M_nextEv
	add	x0, x0, 8
	mov	x1, x0
	ldr	x0, [sp, 40]
	bl	__ZNKSt10_HashtableIiSt4pairIKiiESaIS2_ENSt8__detail10_Select1stESt8equal_toIiESt4hashIiENS4_18_Mod_range_hashingENS4_20_Default_ranged_hashENS4_20_Prime_rehash_policyENS4_17_Hashtable_traitsILb0ELb0ELb1EEEE15_M_bucket_indexERKNS4_16_Hash_node_valueIS2_Lb0EEE
	mov	x1, x0
	ldr	x0, [sp, 32]
	cmp	x0, x1
	beq	L438
L437:
	mov	w0, 1
	b	L439
L438:
	mov	w0, 0
L439:
	cmp	w0, 0
	bne	L444
	ldr	x0, [sp, 48]
	str	x0, [sp, 56]
	ldr	x0, [sp, 48]
	bl	__ZNKSt8__detail10_Hash_nodeISt4pairIKiiELb0EE7_M_nextEv
	str	x0, [sp, 48]
	b	L442
L444:
	nop
	mov	x0, 0
L435:
	ldp	x29, x30, [sp], 64
LCFI429:
	ret
LFE5138:
	.align	2
	.globl __ZNSt8__detail19_Node_iterator_baseISt4pairIKiiELb0EEC2EPNS_10_Hash_nodeIS3_Lb0EEE
	.weak_definition __ZNSt8__detail19_Node_iterator_baseISt4pairIKiiELb0EEC2EPNS_10_Hash_nodeIS3_Lb0EEE
__ZNSt8__detail19_Node_iterator_baseISt4pairIKiiELb0EEC2EPNS_10_Hash_nodeIS3_Lb0EEE:
LFB5140:
	sub	sp, sp, #16
LCFI430:
	str	x0, [sp, 8]
	str	x1, [sp]
	ldr	x0, [sp, 8]
	ldr	x1, [sp]
	str	x1, [x0]
	nop
	add	sp, sp, 16
LCFI431:
	ret
LFE5140:
	.align	2
	.globl __ZN9__gnu_cxx16__aligned_bufferISt4pairIKiiEE7_M_addrEv
	.weak_definition __ZN9__gnu_cxx16__aligned_bufferISt4pairIKiiEE7_M_addrEv
__ZN9__gnu_cxx16__aligned_bufferISt4pairIKiiEE7_M_addrEv:
LFB5142:
	sub	sp, sp, #16
LCFI432:
	str	x0, [sp, 8]
	ldr	x0, [sp, 8]
	add	sp, sp, 16
LCFI433:
	ret
LFE5142:
	.align	2
	.globl __ZN9__gnu_cxx5__ops16_Iter_equals_valIKiEclISt14_List_iteratorIiEEEbT_
	.weak_definition __ZN9__gnu_cxx5__ops16_Iter_equals_valIKiEclISt14_List_iteratorIiEEEbT_
__ZN9__gnu_cxx5__ops16_Iter_equals_valIKiEclISt14_List_iteratorIiEEEbT_:
LFB5143:
	stp	x29, x30, [sp, -32]!
LCFI434:
	mov	x29, sp
	str	x0, [sp, 24]
	str	x1, [sp, 16]
	add	x0, sp, 16
	bl	__ZNKSt14_List_iteratorIiEdeEv
	ldr	w1, [x0]
	ldr	x0, [sp, 24]
	ldr	x0, [x0]
	ldr	w0, [x0]
	cmp	w1, w0
	cset	w0, eq
	and	w0, w0, 255
	ldp	x29, x30, [sp], 32
LCFI435:
	ret
LFE5143:
	.align	2
	.globl __ZNSt14_List_iteratorIiEppEv
	.weak_definition __ZNSt14_List_iteratorIiEppEv
__ZNSt14_List_iteratorIiEppEv:
LFB5144:
	sub	sp, sp, #16
LCFI436:
	str	x0, [sp, 8]
	ldr	x0, [sp, 8]
	ldr	x0, [x0]
	ldr	x1, [x0]
	ldr	x0, [sp, 8]
	str	x1, [x0]
	ldr	x0, [sp, 8]
	add	sp, sp, 16
LCFI437:
	ret
LFE5144:
	.align	2
	.globl __ZNKSt10_HashtableIiSt4pairIKiiESaIS2_ENSt8__detail10_Select1stESt8equal_toIiESt4hashIiENS4_18_Mod_range_hashingENS4_20_Default_ranged_hashENS4_20_Prime_rehash_policyENS4_17_Hashtable_traitsILb0ELb0ELb1EEEE15_M_bucket_indexERKNS4_16_Hash_node_valueIS2_Lb0EEE
	.weak_definition __ZNKSt10_HashtableIiSt4pairIKiiESaIS2_ENSt8__detail10_Select1stESt8equal_toIiESt4hashIiENS4_18_Mod_range_hashingENS4_20_Default_ranged_hashENS4_20_Prime_rehash_policyENS4_17_Hashtable_traitsILb0ELb0ELb1EEEE15_M_bucket_indexERKNS4_16_Hash_node_valueIS2_Lb0EEE
__ZNKSt10_HashtableIiSt4pairIKiiESaIS2_ENSt8__detail10_Select1stESt8equal_toIiESt4hashIiENS4_18_Mod_range_hashingENS4_20_Default_ranged_hashENS4_20_Prime_rehash_policyENS4_17_Hashtable_traitsILb0ELb0ELb1EEEE15_M_bucket_indexERKNS4_16_Hash_node_valueIS2_Lb0EEE:
LFB5145:
	stp	x29, x30, [sp, -32]!
LCFI438:
	mov	x29, sp
	str	x0, [sp, 24]
	str	x1, [sp, 16]
	ldr	x0, [sp, 24]
	ldr	x0, [x0, 8]
	mov	x2, x0
	ldr	x1, [sp, 16]
	ldr	x0, [sp, 24]
	bl	__ZNKSt8__detail15_Hash_code_baseIiSt4pairIKiiENS_10_Select1stESt4hashIiENS_18_Mod_range_hashingENS_20_Default_ranged_hashELb0EE15_M_bucket_indexERKNS_16_Hash_node_valueIS3_Lb0EEEm
	ldp	x29, x30, [sp], 32
LCFI439:
	ret
LFE5145:
	.align	2
	.globl __ZNSt10_HashtableIiSt4pairIKiiESaIS2_ENSt8__detail10_Select1stESt8equal_toIiESt4hashIiENS4_18_Mod_range_hashingENS4_20_Default_ranged_hashENS4_20_Prime_rehash_policyENS4_17_Hashtable_traitsILb0ELb0ELb1EEEE20_M_get_previous_nodeEmPNS4_10_Hash_nodeIS2_Lb0EEE
	.weak_definition __ZNSt10_HashtableIiSt4pairIKiiESaIS2_ENSt8__detail10_Select1stESt8equal_toIiESt4hashIiENS4_18_Mod_range_hashingENS4_20_Default_ranged_hashENS4_20_Prime_rehash_policyENS4_17_Hashtable_traitsILb0ELb0ELb1EEEE20_M_get_previous_nodeEmPNS4_10_Hash_nodeIS2_Lb0EEE
__ZNSt10_HashtableIiSt4pairIKiiESaIS2_ENSt8__detail10_Select1stESt8equal_toIiESt4hashIiENS4_18_Mod_range_hashingENS4_20_Default_ranged_hashENS4_20_Prime_rehash_policyENS4_17_Hashtable_traitsILb0ELb0ELb1EEEE20_M_get_previous_nodeEmPNS4_10_Hash_nodeIS2_Lb0EEE:
LFB5146:
	sub	sp, sp, #48
LCFI440:
	str	x0, [sp, 24]
	str	x1, [sp, 16]
	str	x2, [sp, 8]
	ldr	x0, [sp, 24]
	ldr	x1, [x0]
	ldr	x0, [sp, 16]
	lsl	x0, x0, 3
	add	x0, x1, x0
	ldr	x0, [x0]
	str	x0, [sp, 40]
	b	L455
L456:
	ldr	x0, [sp, 40]
	ldr	x0, [x0]
	str	x0, [sp, 40]
L455:
	ldr	x0, [sp, 40]
	ldr	x0, [x0]
	ldr	x1, [sp, 8]
	cmp	x1, x0
	bne	L456
	ldr	x0, [sp, 40]
	add	sp, sp, 48
LCFI441:
	ret
LFE5146:
	.align	2
	.globl __ZNSt10_HashtableIiSt4pairIKiiESaIS2_ENSt8__detail10_Select1stESt8equal_toIiESt4hashIiENS4_18_Mod_range_hashingENS4_20_Default_ranged_hashENS4_20_Prime_rehash_policyENS4_17_Hashtable_traitsILb0ELb0ELb1EEEE8_M_eraseEmPNS4_15_Hash_node_baseEPNS4_10_Hash_nodeIS2_Lb0EEE
	.weak_definition __ZNSt10_HashtableIiSt4pairIKiiESaIS2_ENSt8__detail10_Select1stESt8equal_toIiESt4hashIiENS4_18_Mod_range_hashingENS4_20_Default_ranged_hashENS4_20_Prime_rehash_policyENS4_17_Hashtable_traitsILb0ELb0ELb1EEEE8_M_eraseEmPNS4_15_Hash_node_baseEPNS4_10_Hash_nodeIS2_Lb0EEE
__ZNSt10_HashtableIiSt4pairIKiiESaIS2_ENSt8__detail10_Select1stESt8equal_toIiESt4hashIiENS4_18_Mod_range_hashingENS4_20_Default_ranged_hashENS4_20_Prime_rehash_policyENS4_17_Hashtable_traitsILb0ELb0ELb1EEEE8_M_eraseEmPNS4_15_Hash_node_baseEPNS4_10_Hash_nodeIS2_Lb0EEE:
LFB5147:
	stp	x29, x30, [sp, -80]!
LCFI442:
	mov	x29, sp
	str	x19, [sp, 16]
LCFI443:
	str	x0, [sp, 56]
	str	x1, [sp, 48]
	str	x2, [sp, 40]
	str	x3, [sp, 32]
	ldr	x0, [sp, 56]
	ldr	x1, [x0]
	ldr	x0, [sp, 48]
	lsl	x0, x0, 3
	add	x0, x1, x0
	ldr	x0, [x0]
	ldr	x1, [sp, 40]
	cmp	x1, x0
	bne	L459
	ldr	x0, [sp, 32]
	bl	__ZNKSt8__detail10_Hash_nodeISt4pairIKiiELb0EE7_M_nextEv
	mov	x19, x0
	ldr	x0, [sp, 32]
	ldr	x0, [x0]
	cmp	x0, 0
	beq	L460
	ldr	x0, [sp, 32]
	bl	__ZNKSt8__detail10_Hash_nodeISt4pairIKiiELb0EE7_M_nextEv
	add	x0, x0, 8
	mov	x1, x0
	ldr	x0, [sp, 56]
	bl	__ZNKSt10_HashtableIiSt4pairIKiiESaIS2_ENSt8__detail10_Select1stESt8equal_toIiESt4hashIiENS4_18_Mod_range_hashingENS4_20_Default_ranged_hashENS4_20_Prime_rehash_policyENS4_17_Hashtable_traitsILb0ELb0ELb1EEEE15_M_bucket_indexERKNS4_16_Hash_node_valueIS2_Lb0EEE
	b	L461
L460:
	mov	x0, 0
L461:
	mov	x3, x0
	mov	x2, x19
	ldr	x1, [sp, 48]
	ldr	x0, [sp, 56]
	bl	__ZNSt10_HashtableIiSt4pairIKiiESaIS2_ENSt8__detail10_Select1stESt8equal_toIiESt4hashIiENS4_18_Mod_range_hashingENS4_20_Default_ranged_hashENS4_20_Prime_rehash_policyENS4_17_Hashtable_traitsILb0ELb0ELb1EEEE22_M_remove_bucket_beginEmPNS4_10_Hash_nodeIS2_Lb0EEEm
	b	L462
L459:
	ldr	x0, [sp, 32]
	ldr	x0, [x0]
	cmp	x0, 0
	beq	L462
	ldr	x0, [sp, 32]
	bl	__ZNKSt8__detail10_Hash_nodeISt4pairIKiiELb0EE7_M_nextEv
	add	x0, x0, 8
	mov	x1, x0
	ldr	x0, [sp, 56]
	bl	__ZNKSt10_HashtableIiSt4pairIKiiESaIS2_ENSt8__detail10_Select1stESt8equal_toIiESt4hashIiENS4_18_Mod_range_hashingENS4_20_Default_ranged_hashENS4_20_Prime_rehash_policyENS4_17_Hashtable_traitsILb0ELb0ELb1EEEE15_M_bucket_indexERKNS4_16_Hash_node_valueIS2_Lb0EEE
	str	x0, [sp, 72]
	ldr	x1, [sp, 72]
	ldr	x0, [sp, 48]
	cmp	x1, x0
	beq	L462
	ldr	x0, [sp, 56]
	ldr	x1, [x0]
	ldr	x0, [sp, 72]
	lsl	x0, x0, 3
	add	x0, x1, x0
	ldr	x1, [sp, 40]
	str	x1, [x0]
L462:
	ldr	x0, [sp, 32]
	ldr	x1, [x0]
	ldr	x0, [sp, 40]
	str	x1, [x0]
	ldr	x0, [sp, 32]
	bl	__ZNKSt8__detail10_Hash_nodeISt4pairIKiiELb0EE7_M_nextEv
	mov	x1, x0
	add	x0, sp, 64
	bl	__ZNSt8__detail14_Node_iteratorISt4pairIKiiELb0ELb0EEC1EPNS_10_Hash_nodeIS3_Lb0EEE
	ldr	x1, [sp, 32]
	ldr	x0, [sp, 56]
	bl	__ZNSt8__detail16_Hashtable_allocISaINS_10_Hash_nodeISt4pairIKiiELb0EEEEE18_M_deallocate_nodeEPS5_
	ldr	x0, [sp, 56]
	ldr	x0, [x0, 24]
	sub	x1, x0, #1
	ldr	x0, [sp, 56]
	str	x1, [x0, 24]
	ldr	x0, [sp, 64]
	ldr	x19, [sp, 16]
	ldp	x29, x30, [sp], 80
LCFI444:
	ret
LFE5147:
	.align	2
	.globl __ZNSt7__cxx1110_List_baseIiSaIiEE11_M_get_nodeEv
	.weak_definition __ZNSt7__cxx1110_List_baseIiSaIiEE11_M_get_nodeEv
__ZNSt7__cxx1110_List_baseIiSaIiEE11_M_get_nodeEv:
LFB5148:
	stp	x29, x30, [sp, -32]!
LCFI445:
	mov	x29, sp
	str	x0, [sp, 24]
	ldr	x0, [sp, 24]
	mov	x1, 1
	bl	__ZNSt16allocator_traitsISaISt10_List_nodeIiEEE8allocateERS2_m
	ldp	x29, x30, [sp], 32
LCFI446:
	ret
LFE5148:
	.align	2
	.globl __ZNSt15__allocated_ptrISaISt10_List_nodeIiEEEC1ERS2_PS1_
	.weak_definition __ZNSt15__allocated_ptrISaISt10_List_nodeIiEEEC1ERS2_PS1_
__ZNSt15__allocated_ptrISaISt10_List_nodeIiEEEC1ERS2_PS1_:
LFB5151:
	stp	x29, x30, [sp, -48]!
LCFI447:
	mov	x29, sp
	str	x0, [sp, 40]
	str	x1, [sp, 32]
	str	x2, [sp, 24]
	ldr	x0, [sp, 32]
	bl	__ZSt11__addressofISaISt10_List_nodeIiEEEPT_RS3_
	mov	x1, x0
	ldr	x0, [sp, 40]
	str	x1, [x0]
	ldr	x0, [sp, 40]
	ldr	x1, [sp, 24]
	str	x1, [x0, 8]
	nop
	ldp	x29, x30, [sp], 48
LCFI448:
	ret
LFE5151:
	.align	2
	.globl __ZNSt15__allocated_ptrISaISt10_List_nodeIiEEED1Ev
	.weak_definition __ZNSt15__allocated_ptrISaISt10_List_nodeIiEEED1Ev
__ZNSt15__allocated_ptrISaISt10_List_nodeIiEEED1Ev:
LFB5154:
	stp	x29, x30, [sp, -32]!
LCFI449:
	mov	x29, sp
	str	x0, [sp, 24]
	ldr	x0, [sp, 24]
	ldr	x0, [x0, 8]
	cmp	x0, 0
	beq	L469
	ldr	x0, [sp, 24]
	ldr	x3, [x0]
	ldr	x0, [sp, 24]
	ldr	x0, [x0, 8]
	mov	x2, 1
	mov	x1, x0
	mov	x0, x3
	bl	__ZNSt16allocator_traitsISaISt10_List_nodeIiEEE10deallocateERS2_PS1_m
L469:
	nop
	ldp	x29, x30, [sp], 32
LCFI450:
	ret
LFE5154:
	.align	2
	.globl __ZNSt16allocator_traitsISaISt10_List_nodeIiEEE9constructIiJRKiEEEvRS2_PT_DpOT0_
	.weak_definition __ZNSt16allocator_traitsISaISt10_List_nodeIiEEE9constructIiJRKiEEEvRS2_PT_DpOT0_
__ZNSt16allocator_traitsISaISt10_List_nodeIiEEE9constructIiJRKiEEEvRS2_PT_DpOT0_:
LFB5155:
	stp	x29, x30, [sp, -48]!
LCFI451:
	mov	x29, sp
	str	x0, [sp, 40]
	str	x1, [sp, 32]
	str	x2, [sp, 24]
	ldr	x0, [sp, 24]
	bl	__ZSt7forwardIRKiEOT_RNSt16remove_referenceIS2_E4typeE
	mov	x2, x0
	ldr	x1, [sp, 32]
	ldr	x0, [sp, 40]
	bl	__ZN9__gnu_cxx13new_allocatorISt10_List_nodeIiEE9constructIiJRKiEEEvPT_DpOT0_
	nop
	ldp	x29, x30, [sp], 48
LCFI452:
	ret
LFE5155:
	.align	2
	.globl __ZNSt15__allocated_ptrISaISt10_List_nodeIiEEEaSEDn
	.weak_definition __ZNSt15__allocated_ptrISaISt10_List_nodeIiEEEaSEDn
__ZNSt15__allocated_ptrISaISt10_List_nodeIiEEEaSEDn:
LFB5156:
	sub	sp, sp, #16
LCFI453:
	str	x0, [sp, 8]
	str	x1, [sp]
	ldr	x0, [sp, 8]
	str	xzr, [x0, 8]
	ldr	x0, [sp, 8]
	add	sp, sp, 16
LCFI454:
	ret
LFE5156:
	.align	2
	.globl __ZNSt10_HashtableIiSt4pairIKiiESaIS2_ENSt8__detail10_Select1stESt8equal_toIiESt4hashIiENS4_18_Mod_range_hashingENS4_20_Default_ranged_hashENS4_20_Prime_rehash_policyENS4_17_Hashtable_traitsILb0ELb0ELb1EEEE12_Scoped_nodeC1IJS0_IiiEEEEPNS4_16_Hashtable_allocISaINS4_10_Hash_nodeIS2_Lb0EEEEEEDpOT_
	.weak_definition __ZNSt10_HashtableIiSt4pairIKiiESaIS2_ENSt8__detail10_Select1stESt8equal_toIiESt4hashIiENS4_18_Mod_range_hashingENS4_20_Default_ranged_hashENS4_20_Prime_rehash_policyENS4_17_Hashtable_traitsILb0ELb0ELb1EEEE12_Scoped_nodeC1IJS0_IiiEEEEPNS4_16_Hashtable_allocISaINS4_10_Hash_nodeIS2_Lb0EEEEEEDpOT_
__ZNSt10_HashtableIiSt4pairIKiiESaIS2_ENSt8__detail10_Select1stESt8equal_toIiESt4hashIiENS4_18_Mod_range_hashingENS4_20_Default_ranged_hashENS4_20_Prime_rehash_policyENS4_17_Hashtable_traitsILb0ELb0ELb1EEEE12_Scoped_nodeC1IJS0_IiiEEEEPNS4_16_Hashtable_allocISaINS4_10_Hash_nodeIS2_Lb0EEEEEEDpOT_:
LFB5159:
	stp	x29, x30, [sp, -48]!
LCFI455:
	mov	x29, sp
	str	x0, [sp, 40]
	str	x1, [sp, 32]
	str	x2, [sp, 24]
	ldr	x0, [sp, 40]
	ldr	x1, [sp, 32]
	str	x1, [x0]
	ldr	x0, [sp, 24]
	bl	__ZSt7forwardISt4pairIiiEEOT_RNSt16remove_referenceIS2_E4typeE
	mov	x1, x0
	ldr	x0, [sp, 32]
	bl	__ZNSt8__detail16_Hashtable_allocISaINS_10_Hash_nodeISt4pairIKiiELb0EEEEE16_M_allocate_nodeIJS2_IiiEEEEPS5_DpOT_
	mov	x1, x0
	ldr	x0, [sp, 40]
	str	x1, [x0, 8]
	nop
	ldp	x29, x30, [sp], 48
LCFI456:
	ret
LFE5159:
	.align	2
	.globl __ZNSt10_HashtableIiSt4pairIKiiESaIS2_ENSt8__detail10_Select1stESt8equal_toIiESt4hashIiENS4_18_Mod_range_hashingENS4_20_Default_ranged_hashENS4_20_Prime_rehash_policyENS4_17_Hashtable_traitsILb0ELb0ELb1EEEE12_Scoped_nodeD1Ev
	.weak_definition __ZNSt10_HashtableIiSt4pairIKiiESaIS2_ENSt8__detail10_Select1stESt8equal_toIiESt4hashIiENS4_18_Mod_range_hashingENS4_20_Default_ranged_hashENS4_20_Prime_rehash_policyENS4_17_Hashtable_traitsILb0ELb0ELb1EEEE12_Scoped_nodeD1Ev
__ZNSt10_HashtableIiSt4pairIKiiESaIS2_ENSt8__detail10_Select1stESt8equal_toIiESt4hashIiENS4_18_Mod_range_hashingENS4_20_Default_ranged_hashENS4_20_Prime_rehash_policyENS4_17_Hashtable_traitsILb0ELb0ELb1EEEE12_Scoped_nodeD1Ev:
LFB5162:
	stp	x29, x30, [sp, -32]!
LCFI457:
	mov	x29, sp
	str	x0, [sp, 24]
	ldr	x0, [sp, 24]
	ldr	x0, [x0, 8]
	cmp	x0, 0
	beq	L476
	ldr	x0, [sp, 24]
	ldr	x2, [x0]
	ldr	x0, [sp, 24]
	ldr	x0, [x0, 8]
	mov	x1, x0
	mov	x0, x2
	bl	__ZNSt8__detail16_Hashtable_allocISaINS_10_Hash_nodeISt4pairIKiiELb0EEEEE18_M_deallocate_nodeEPS5_
L476:
	nop
	ldp	x29, x30, [sp], 32
LCFI458:
	ret
LFE5162:
	.section __DATA,__gcc_except_tab
_GCC_except_table22:
LLSDA5162:
	.byte	0xff
	.byte	0xff
	.byte	0x1
	.uleb128 LLSDACSE5162-LLSDACSB5162
LLSDACSB5162:
LLSDACSE5162:
	.text
	.align	2
	.globl __ZNSt8__detail21_Hash_node_value_baseISt4pairIKiiEE4_M_vEv
	.weak_definition __ZNSt8__detail21_Hash_node_value_baseISt4pairIKiiEE4_M_vEv
__ZNSt8__detail21_Hash_node_value_baseISt4pairIKiiEE4_M_vEv:
LFB5163:
	stp	x29, x30, [sp, -32]!
LCFI459:
	mov	x29, sp
	str	x0, [sp, 24]
	ldr	x0, [sp, 24]
	bl	__ZNSt8__detail21_Hash_node_value_baseISt4pairIKiiEE9_M_valptrEv
	ldp	x29, x30, [sp], 32
LCFI460:
	ret
LFE5163:
	.align	2
	.globl __ZNKSt8__detail10_Select1stclIRSt4pairIKiiEEEDTcl3getILi0EEcl7forwardIT_Efp_EEEOS6_
	.weak_definition __ZNKSt8__detail10_Select1stclIRSt4pairIKiiEEEDTcl3getILi0EEcl7forwardIT_Efp_EEEOS6_
__ZNKSt8__detail10_Select1stclIRSt4pairIKiiEEEDTcl3getILi0EEcl7forwardIT_Efp_EEEOS6_:
LFB5164:
	stp	x29, x30, [sp, -32]!
LCFI461:
	mov	x29, sp
	str	x0, [sp, 24]
	str	x1, [sp, 16]
	ldr	x0, [sp, 16]
	bl	__ZSt7forwardIRSt4pairIKiiEEOT_RNSt16remove_referenceIS4_E4typeE
	bl	__ZSt3getILm0EKiiERNSt13tuple_elementIXT_ESt4pairIT0_T1_EE4typeERS5_
	ldp	x29, x30, [sp], 32
LCFI462:
	ret
LFE5164:
	.align	2
	.globl __ZSt9make_pairINSt8__detail14_Node_iteratorISt4pairIKiiELb0ELb0EEEbES2_INSt25__strip_reference_wrapperINSt5decayIT_E4typeEE6__typeENS6_INS7_IT0_E4typeEE6__typeEEOS8_OSD_
	.weak_definition __ZSt9make_pairINSt8__detail14_Node_iteratorISt4pairIKiiELb0ELb0EEEbES2_INSt25__strip_reference_wrapperINSt5decayIT_E4typeEE6__typeENS6_INS7_IT0_E4typeEE6__typeEEOS8_OSD_
__ZSt9make_pairINSt8__detail14_Node_iteratorISt4pairIKiiELb0ELb0EEEbES2_INSt25__strip_reference_wrapperINSt5decayIT_E4typeEE6__typeENS6_INS7_IT0_E4typeEE6__typeEEOS8_OSD_:
LFB5165:
	stp	x29, x30, [sp, -64]!
LCFI463:
	mov	x29, sp
	str	x19, [sp, 16]
LCFI464:
	str	x0, [sp, 40]
	str	x1, [sp, 32]
	ldr	x0, [sp, 40]
	bl	__ZSt7forwardINSt8__detail14_Node_iteratorISt4pairIKiiELb0ELb0EEEEOT_RNSt16remove_referenceIS6_E4typeE
	mov	x19, x0
	ldr	x0, [sp, 32]
	bl	__ZSt7forwardIbEOT_RNSt16remove_referenceIS0_E4typeE
	mov	x1, x0
	add	x0, sp, 48
	mov	x2, x1
	mov	x1, x19
	bl	__ZNSt4pairINSt8__detail14_Node_iteratorIS_IKiiELb0ELb0EEEbEC1IS4_bLb1EEEOT_OT0_
	ldp	x0, x1, [sp, 48]
	ldr	x19, [sp, 16]
	ldp	x29, x30, [sp], 64
LCFI465:
	ret
LFE5165:
	.align	2
	.globl __ZNSt10_HashtableIiSt4pairIKiiESaIS2_ENSt8__detail10_Select1stESt8equal_toIiESt4hashIiENS4_18_Mod_range_hashingENS4_20_Default_ranged_hashENS4_20_Prime_rehash_policyENS4_17_Hashtable_traitsILb0ELb0ELb1EEEE21_M_insert_unique_nodeEmmPNS4_10_Hash_nodeIS2_Lb0EEEm
	.weak_definition __ZNSt10_HashtableIiSt4pairIKiiESaIS2_ENSt8__detail10_Select1stESt8equal_toIiESt4hashIiENS4_18_Mod_range_hashingENS4_20_Default_ranged_hashENS4_20_Prime_rehash_policyENS4_17_Hashtable_traitsILb0ELb0ELb1EEEE21_M_insert_unique_nodeEmmPNS4_10_Hash_nodeIS2_Lb0EEEm
__ZNSt10_HashtableIiSt4pairIKiiESaIS2_ENSt8__detail10_Select1stESt8equal_toIiESt4hashIiENS4_18_Mod_range_hashingENS4_20_Default_ranged_hashENS4_20_Prime_rehash_policyENS4_17_Hashtable_traitsILb0ELb0ELb1EEEE21_M_insert_unique_nodeEmmPNS4_10_Hash_nodeIS2_Lb0EEEm:
LFB5170:
	stp	x29, x30, [sp, -112]!
LCFI466:
	mov	x29, sp
	str	x0, [sp, 56]
	str	x1, [sp, 48]
	str	x2, [sp, 40]
	str	x3, [sp, 32]
	str	x4, [sp, 24]
	ldr	x0, [sp, 56]
	add	x0, x0, 32
	bl	__ZNKSt8__detail20_Prime_rehash_policy8_M_stateEv
	str	x0, [sp, 88]
	add	x0, sp, 88
	str	x0, [sp, 104]
	ldr	x0, [sp, 56]
	add	x4, x0, 32
	ldr	x0, [sp, 56]
	ldr	x1, [x0, 8]
	ldr	x0, [sp, 56]
	ldr	x0, [x0, 24]
	ldr	x3, [sp, 24]
	mov	x2, x0
	mov	x0, x4
	bl	__ZNKSt8__detail20_Prime_rehash_policy14_M_need_rehashEmmm
	stp	x0, x1, [sp, 72]
	ldrb	w0, [sp, 72]
	cmp	w0, 0
	beq	L484
	ldr	x0, [sp, 80]
	ldr	x2, [sp, 104]
	mov	x1, x0
	ldr	x0, [sp, 56]
	bl	__ZNSt10_HashtableIiSt4pairIKiiESaIS2_ENSt8__detail10_Select1stESt8equal_toIiESt4hashIiENS4_18_Mod_range_hashingENS4_20_Default_ranged_hashENS4_20_Prime_rehash_policyENS4_17_Hashtable_traitsILb0ELb0ELb1EEEE9_M_rehashEmRKm
	ldr	x1, [sp, 40]
	ldr	x0, [sp, 56]
	bl	__ZNKSt10_HashtableIiSt4pairIKiiESaIS2_ENSt8__detail10_Select1stESt8equal_toIiESt4hashIiENS4_18_Mod_range_hashingENS4_20_Default_ranged_hashENS4_20_Prime_rehash_policyENS4_17_Hashtable_traitsILb0ELb0ELb1EEEE15_M_bucket_indexEm
	str	x0, [sp, 48]
L484:
	ldr	x0, [sp, 32]
	add	x0, x0, 8
	ldr	x2, [sp, 40]
	mov	x1, x0
	ldr	x0, [sp, 56]
	bl	__ZNKSt8__detail15_Hash_code_baseIiSt4pairIKiiENS_10_Select1stESt4hashIiENS_18_Mod_range_hashingENS_20_Default_ranged_hashELb0EE13_M_store_codeERNS_21_Hash_node_code_cacheILb0EEEm
	ldr	x2, [sp, 32]
	ldr	x1, [sp, 48]
	ldr	x0, [sp, 56]
	bl	__ZNSt10_HashtableIiSt4pairIKiiESaIS2_ENSt8__detail10_Select1stESt8equal_toIiESt4hashIiENS4_18_Mod_range_hashingENS4_20_Default_ranged_hashENS4_20_Prime_rehash_policyENS4_17_Hashtable_traitsILb0ELb0ELb1EEEE22_M_insert_bucket_beginEmPNS4_10_Hash_nodeIS2_Lb0EEE
	ldr	x0, [sp, 56]
	ldr	x0, [x0, 24]
	add	x1, x0, 1
	ldr	x0, [sp, 56]
	str	x1, [x0, 24]
	add	x0, sp, 96
	ldr	x1, [sp, 32]
	bl	__ZNSt8__detail14_Node_iteratorISt4pairIKiiELb0ELb0EEC1EPNS_10_Hash_nodeIS3_Lb0EEE
	ldr	x0, [sp, 96]
	ldp	x29, x30, [sp], 112
LCFI467:
	ret
LFE5170:
	.align	2
	.globl __ZNSt4pairINSt8__detail14_Node_iteratorIS_IKiiELb0ELb0EEEbEC1IRS4_bLb1EEEOT_OT0_
	.weak_definition __ZNSt4pairINSt8__detail14_Node_iteratorIS_IKiiELb0ELb0EEEbEC1IRS4_bLb1EEEOT_OT0_
__ZNSt4pairINSt8__detail14_Node_iteratorIS_IKiiELb0ELb0EEEbEC1IRS4_bLb1EEEOT_OT0_:
LFB5173:
	stp	x29, x30, [sp, -48]!
LCFI468:
	mov	x29, sp
	str	x0, [sp, 40]
	str	x1, [sp, 32]
	str	x2, [sp, 24]
	ldr	x0, [sp, 32]
	bl	__ZSt7forwardIRNSt8__detail14_Node_iteratorISt4pairIKiiELb0ELb0EEEEOT_RNSt16remove_referenceIS7_E4typeE
	mov	x1, x0
	ldr	x0, [sp, 40]
	ldr	x1, [x1]
	str	x1, [x0]
	ldr	x0, [sp, 24]
	bl	__ZSt7forwardIbEOT_RNSt16remove_referenceIS0_E4typeE
	ldrb	w1, [x0]
	ldr	x0, [sp, 40]
	strb	w1, [x0, 8]
	nop
	ldp	x29, x30, [sp], 48
LCFI469:
	ret
LFE5173:
	.align	2
	.globl __ZNK9__gnu_cxx13new_allocatorI5blockE8max_sizeEv
	.weak_definition __ZNK9__gnu_cxx13new_allocatorI5blockE8max_sizeEv
__ZNK9__gnu_cxx13new_allocatorI5blockE8max_sizeEv:
LFB5219:
	stp	x29, x30, [sp, -32]!
LCFI470:
	mov	x29, sp
	str	x0, [sp, 24]
	ldr	x0, [sp, 24]
	bl	__ZNK9__gnu_cxx13new_allocatorI5blockE11_M_max_sizeEv
	ldp	x29, x30, [sp], 32
LCFI471:
	ret
LFE5219:
	.align	2
	.globl __ZNSt16allocator_traitsISaI5blockEE8allocateERS1_m
	.weak_definition __ZNSt16allocator_traitsISaI5blockEE8allocateERS1_m
__ZNSt16allocator_traitsISaI5blockEE8allocateERS1_m:
LFB5220:
	stp	x29, x30, [sp, -32]!
LCFI472:
	mov	x29, sp
	str	x0, [sp, 24]
	str	x1, [sp, 16]
	mov	x2, 0
	ldr	x1, [sp, 16]
	ldr	x0, [sp, 24]
	bl	__ZN9__gnu_cxx13new_allocatorI5blockE8allocateEmPKv
	ldp	x29, x30, [sp], 32
LCFI473:
	ret
LFE5220:
	.align	2
	.globl __ZN9__gnu_cxx13new_allocatorI5blockE10deallocateEPS1_m
	.weak_definition __ZN9__gnu_cxx13new_allocatorI5blockE10deallocateEPS1_m
__ZN9__gnu_cxx13new_allocatorI5blockE10deallocateEPS1_m:
LFB5221:
	stp	x29, x30, [sp, -48]!
LCFI474:
	mov	x29, sp
	str	x0, [sp, 40]
	str	x1, [sp, 32]
	str	x2, [sp, 24]
	ldr	x0, [sp, 24]
	lsl	x0, x0, 4
	mov	x1, x0
	ldr	x0, [sp, 32]
	bl	__ZdlPvm
	ldp	x29, x30, [sp], 48
LCFI475:
	ret
LFE5221:
	.align	2
	.globl __ZNSt22__uninitialized_fill_nILb0EE15__uninit_fill_nIP5blockmS2_EET_S4_T0_RKT1_
	.weak_definition __ZNSt22__uninitialized_fill_nILb0EE15__uninit_fill_nIP5blockmS2_EET_S4_T0_RKT1_
__ZNSt22__uninitialized_fill_nILb0EE15__uninit_fill_nIP5blockmS2_EET_S4_T0_RKT1_:
LFB5222:
	stp	x29, x30, [sp, -64]!
LCFI476:
	mov	x29, sp
	str	x0, [sp, 40]
	str	x1, [sp, 32]
	str	x2, [sp, 24]
	ldr	x0, [sp, 40]
	str	x0, [sp, 56]
	b	L494
L495:
	ldr	x0, [sp, 56]
	bl	__ZSt11__addressofI5blockEPT_RS1_
	ldr	x1, [sp, 24]
	bl	__ZSt10_ConstructI5blockJRKS0_EEvPT_DpOT0_
	ldr	x0, [sp, 32]
	sub	x0, x0, #1
	str	x0, [sp, 32]
	ldr	x0, [sp, 56]
	add	x0, x0, 16
	str	x0, [sp, 56]
L494:
	ldr	x0, [sp, 32]
	cmp	x0, 0
	bne	L495
	ldr	x0, [sp, 56]
	ldp	x29, x30, [sp], 64
LCFI477:
	ret
LFE5222:
	.align	2
	.globl __ZSt11__addressofI5blockEPT_RS1_
	.weak_definition __ZSt11__addressofI5blockEPT_RS1_
__ZSt11__addressofI5blockEPT_RS1_:
LFB5223:
	sub	sp, sp, #16
LCFI478:
	str	x0, [sp, 8]
	ldr	x0, [sp, 8]
	add	sp, sp, 16
LCFI479:
	ret
LFE5223:
	.align	2
	.globl __ZSt8_DestroyI5blockEvPT_
	.weak_definition __ZSt8_DestroyI5blockEvPT_
__ZSt8_DestroyI5blockEvPT_:
LFB5224:
	stp	x29, x30, [sp, -32]!
LCFI480:
	mov	x29, sp
	str	x0, [sp, 24]
	ldr	x0, [sp, 24]
	bl	__ZN5blockD1Ev
	nop
	ldp	x29, x30, [sp], 32
LCFI481:
	ret
LFE5224:
	.align	2
	.globl __ZNSt8__detail16_Hashtable_allocISaINS_10_Hash_nodeISt4pairIKiiELb0EEEEE17_M_node_allocatorEv
	.weak_definition __ZNSt8__detail16_Hashtable_allocISaINS_10_Hash_nodeISt4pairIKiiELb0EEEEE17_M_node_allocatorEv
__ZNSt8__detail16_Hashtable_allocISaINS_10_Hash_nodeISt4pairIKiiELb0EEEEE17_M_node_allocatorEv:
LFB5225:
	stp	x29, x30, [sp, -32]!
LCFI482:
	mov	x29, sp
	str	x0, [sp, 24]
	ldr	x0, [sp, 24]
	bl	__ZNSt8__detail21_Hashtable_ebo_helperILi0ESaINS_10_Hash_nodeISt4pairIKiiELb0EEEELb1EE6_M_getEv
	ldp	x29, x30, [sp], 32
LCFI483:
	ret
LFE5225:
	.align	2
	.globl __ZNSt16allocator_traitsISaINSt8__detail10_Hash_nodeISt4pairIKiiELb0EEEEE7destroyIS4_EEvRS6_PT_
	.weak_definition __ZNSt16allocator_traitsISaINSt8__detail10_Hash_nodeISt4pairIKiiELb0EEEEE7destroyIS4_EEvRS6_PT_
__ZNSt16allocator_traitsISaINSt8__detail10_Hash_nodeISt4pairIKiiELb0EEEEE7destroyIS4_EEvRS6_PT_:
LFB5226:
	stp	x29, x30, [sp, -32]!
LCFI484:
	mov	x29, sp
	str	x0, [sp, 24]
	str	x1, [sp, 16]
	ldr	x1, [sp, 16]
	ldr	x0, [sp, 24]
	bl	__ZN9__gnu_cxx13new_allocatorINSt8__detail10_Hash_nodeISt4pairIKiiELb0EEEE7destroyIS5_EEvPT_
	nop
	ldp	x29, x30, [sp], 32
LCFI485:
	ret
LFE5226:
	.align	2
	.globl __ZNSt8__detail16_Hashtable_allocISaINS_10_Hash_nodeISt4pairIKiiELb0EEEEE22_M_deallocate_node_ptrEPS5_
	.weak_definition __ZNSt8__detail16_Hashtable_allocISaINS_10_Hash_nodeISt4pairIKiiELb0EEEEE22_M_deallocate_node_ptrEPS5_
__ZNSt8__detail16_Hashtable_allocISaINS_10_Hash_nodeISt4pairIKiiELb0EEEEE22_M_deallocate_node_ptrEPS5_:
LFB5227:
	stp	x29, x30, [sp, -48]!
LCFI486:
	mov	x29, sp
	str	x0, [sp, 24]
	str	x1, [sp, 16]
	ldr	x0, [sp, 16]
	bl	__ZNSt14pointer_traitsIPNSt8__detail10_Hash_nodeISt4pairIKiiELb0EEEE10pointer_toERS5_
	str	x0, [sp, 40]
	ldr	x0, [sp, 24]
	bl	__ZNSt8__detail16_Hashtable_allocISaINS_10_Hash_nodeISt4pairIKiiELb0EEEEE17_M_node_allocatorEv
	mov	x2, 1
	ldr	x1, [sp, 40]
	bl	__ZNSt16allocator_traitsISaINSt8__detail10_Hash_nodeISt4pairIKiiELb0EEEEE10deallocateERS6_PS5_m
	nop
	ldp	x29, x30, [sp], 48
LCFI487:
	ret
LFE5227:
	.align	2
	.globl __ZNSt14pointer_traitsIPPNSt8__detail15_Hash_node_baseEE10pointer_toERS2_
	.weak_definition __ZNSt14pointer_traitsIPPNSt8__detail15_Hash_node_baseEE10pointer_toERS2_
__ZNSt14pointer_traitsIPPNSt8__detail15_Hash_node_baseEE10pointer_toERS2_:
LFB5228:
	stp	x29, x30, [sp, -32]!
LCFI488:
	mov	x29, sp
	str	x0, [sp, 24]
	ldr	x0, [sp, 24]
	bl	__ZSt9addressofIPNSt8__detail15_Hash_node_baseEEPT_RS3_
	ldp	x29, x30, [sp], 32
LCFI489:
	ret
LFE5228:
	.align	2
	.globl __ZNSaIPNSt8__detail15_Hash_node_baseEEC1INS_10_Hash_nodeISt4pairIKiiELb0EEEEERKSaIT_E
	.weak_definition __ZNSaIPNSt8__detail15_Hash_node_baseEEC1INS_10_Hash_nodeISt4pairIKiiELb0EEEEERKSaIT_E
__ZNSaIPNSt8__detail15_Hash_node_baseEEC1INS_10_Hash_nodeISt4pairIKiiELb0EEEEERKSaIT_E:
LFB5231:
	stp	x29, x30, [sp, -32]!
LCFI490:
	mov	x29, sp
	str	x0, [sp, 24]
	str	x1, [sp, 16]
	ldr	x0, [sp, 24]
	bl	__ZN9__gnu_cxx13new_allocatorIPNSt8__detail15_Hash_node_baseEEC2Ev
	nop
	ldp	x29, x30, [sp], 32
LCFI491:
	ret
LFE5231:
	.align	2
	.globl __ZNSaIPNSt8__detail15_Hash_node_baseEED1Ev
	.weak_definition __ZNSaIPNSt8__detail15_Hash_node_baseEED1Ev
__ZNSaIPNSt8__detail15_Hash_node_baseEED1Ev:
LFB5234:
	stp	x29, x30, [sp, -32]!
LCFI492:
	mov	x29, sp
	str	x0, [sp, 24]
	ldr	x0, [sp, 24]
	bl	__ZN9__gnu_cxx13new_allocatorIPNSt8__detail15_Hash_node_baseEED2Ev
	nop
	ldp	x29, x30, [sp], 32
LCFI493:
	ret
LFE5234:
	.align	2
	.globl __ZNSt16allocator_traitsISaIPNSt8__detail15_Hash_node_baseEEE10deallocateERS3_PS2_m
	.weak_definition __ZNSt16allocator_traitsISaIPNSt8__detail15_Hash_node_baseEEE10deallocateERS3_PS2_m
__ZNSt16allocator_traitsISaIPNSt8__detail15_Hash_node_baseEEE10deallocateERS3_PS2_m:
LFB5235:
	stp	x29, x30, [sp, -48]!
LCFI494:
	mov	x29, sp
	str	x0, [sp, 40]
	str	x1, [sp, 32]
	str	x2, [sp, 24]
	ldr	x2, [sp, 24]
	ldr	x1, [sp, 32]
	ldr	x0, [sp, 40]
	bl	__ZN9__gnu_cxx13new_allocatorIPNSt8__detail15_Hash_node_baseEE10deallocateEPS3_m
	nop
	ldp	x29, x30, [sp], 48
LCFI495:
	ret
LFE5235:
	.align	2
	.globl __ZN9__gnu_cxx16__aligned_membufIiE7_M_addrEv
	.weak_definition __ZN9__gnu_cxx16__aligned_membufIiE7_M_addrEv
__ZN9__gnu_cxx16__aligned_membufIiE7_M_addrEv:
LFB5236:
	sub	sp, sp, #16
LCFI496:
	str	x0, [sp, 8]
	ldr	x0, [sp, 8]
	add	sp, sp, 16
LCFI497:
	ret
LFE5236:
	.align	2
	.globl __ZN9__gnu_cxx13new_allocatorISt10_List_nodeIiEE10deallocateEPS2_m
	.weak_definition __ZN9__gnu_cxx13new_allocatorISt10_List_nodeIiEE10deallocateEPS2_m
__ZN9__gnu_cxx13new_allocatorISt10_List_nodeIiEE10deallocateEPS2_m:
LFB5237:
	stp	x29, x30, [sp, -48]!
LCFI498:
	mov	x29, sp
	str	x0, [sp, 40]
	str	x1, [sp, 32]
	str	x2, [sp, 24]
	ldr	x1, [sp, 24]
	mov	x0, x1
	lsl	x0, x0, 1
	add	x0, x0, x1
	lsl	x0, x0, 3
	mov	x1, x0
	ldr	x0, [sp, 32]
	bl	__ZdlPvm
	ldp	x29, x30, [sp], 48
LCFI499:
	ret
LFE5237:
	.align	2
	.globl __ZNK9__gnu_cxx13new_allocatorI9cache_setE8max_sizeEv
	.weak_definition __ZNK9__gnu_cxx13new_allocatorI9cache_setE8max_sizeEv
__ZNK9__gnu_cxx13new_allocatorI9cache_setE8max_sizeEv:
LFB5238:
	stp	x29, x30, [sp, -32]!
LCFI500:
	mov	x29, sp
	str	x0, [sp, 24]
	ldr	x0, [sp, 24]
	bl	__ZNK9__gnu_cxx13new_allocatorI9cache_setE11_M_max_sizeEv
	ldp	x29, x30, [sp], 32
LCFI501:
	ret
LFE5238:
	.align	2
	.globl __ZNSt16allocator_traitsISaI9cache_setEE8allocateERS1_m
	.weak_definition __ZNSt16allocator_traitsISaI9cache_setEE8allocateERS1_m
__ZNSt16allocator_traitsISaI9cache_setEE8allocateERS1_m:
LFB5239:
	stp	x29, x30, [sp, -32]!
LCFI502:
	mov	x29, sp
	str	x0, [sp, 24]
	str	x1, [sp, 16]
	mov	x2, 0
	ldr	x1, [sp, 16]
	ldr	x0, [sp, 24]
	bl	__ZN9__gnu_cxx13new_allocatorI9cache_setE8allocateEmPKv
	ldp	x29, x30, [sp], 32
LCFI503:
	ret
LFE5239:
	.align	2
	.globl __ZN9__gnu_cxx13new_allocatorI9cache_setE10deallocateEPS1_m
	.weak_definition __ZN9__gnu_cxx13new_allocatorI9cache_setE10deallocateEPS1_m
__ZN9__gnu_cxx13new_allocatorI9cache_setE10deallocateEPS1_m:
LFB5240:
	stp	x29, x30, [sp, -48]!
LCFI504:
	mov	x29, sp
	str	x0, [sp, 40]
	str	x1, [sp, 32]
	str	x2, [sp, 24]
	ldr	x1, [sp, 24]
	mov	x0, x1
	lsl	x0, x0, 3
	sub	x0, x0, x1
	lsl	x0, x0, 4
	mov	x1, x0
	ldr	x0, [sp, 32]
	bl	__ZdlPvm
	ldp	x29, x30, [sp], 48
LCFI505:
	ret
LFE5240:
	.align	2
	.globl __ZNSt22__uninitialized_fill_nILb0EE15__uninit_fill_nIP9cache_setmS2_EET_S4_T0_RKT1_
	.weak_definition __ZNSt22__uninitialized_fill_nILb0EE15__uninit_fill_nIP9cache_setmS2_EET_S4_T0_RKT1_
__ZNSt22__uninitialized_fill_nILb0EE15__uninit_fill_nIP9cache_setmS2_EET_S4_T0_RKT1_:
LFB5241:
	stp	x29, x30, [sp, -80]!
LCFI506:
	mov	x29, sp
	str	x19, [sp, 16]
LCFI507:
	str	x0, [sp, 56]
	str	x1, [sp, 48]
	str	x2, [sp, 40]
	ldr	x0, [sp, 56]
	str	x0, [sp, 72]
	b	L520
L521:
	ldr	x0, [sp, 72]
	bl	__ZSt11__addressofI9cache_setEPT_RS1_
	ldr	x1, [sp, 40]
LEHB46:
	bl	__ZSt10_ConstructI9cache_setJRKS0_EEvPT_DpOT0_
LEHE46:
	ldr	x0, [sp, 48]
	sub	x0, x0, #1
	str	x0, [sp, 48]
	ldr	x0, [sp, 72]
	add	x0, x0, 112
	str	x0, [sp, 72]
L520:
	ldr	x0, [sp, 48]
	cmp	x0, 0
	bne	L521
	ldr	x0, [sp, 72]
	b	L527
L525:
	bl	___cxa_begin_catch
	ldr	x1, [sp, 72]
	ldr	x0, [sp, 56]
LEHB47:
	bl	__ZSt8_DestroyIP9cache_setEvT_S2_
	bl	___cxa_rethrow
LEHE47:
L526:
	mov	x19, x0
	bl	___cxa_end_catch
	mov	x0, x19
LEHB48:
	bl	__Unwind_Resume
LEHE48:
L527:
	ldr	x19, [sp, 16]
	ldp	x29, x30, [sp], 80
LCFI508:
	ret
LFE5241:
	.section __DATA,__gcc_except_tab
_GCC_except_table23:
	.align	3
LLSDA5241:
	.byte	0xff
	.byte	0
	.uleb128 LLSDATT5241-LLSDATTD5241
LLSDATTD5241:
	.byte	0x1
	.uleb128 LLSDACSE5241-LLSDACSB5241
LLSDACSB5241:
	.uleb128 LEHB46-LFB5241
	.uleb128 LEHE46-LEHB46
	.uleb128 L525-LFB5241
	.uleb128 0x1
	.uleb128 LEHB47-LFB5241
	.uleb128 LEHE47-LEHB47
	.uleb128 L526-LFB5241
	.uleb128 0
	.uleb128 LEHB48-LFB5241
	.uleb128 LEHE48-LEHB48
	.uleb128 0
	.uleb128 0
LLSDACSE5241:
	.byte	0x1
	.byte	0
	.align	3
	.xword	0
LLSDATT5241:
	.text
	.align	2
	.globl __ZSt11__addressofI9cache_setEPT_RS1_
	.weak_definition __ZSt11__addressofI9cache_setEPT_RS1_
__ZSt11__addressofI9cache_setEPT_RS1_:
LFB5242:
	sub	sp, sp, #16
LCFI509:
	str	x0, [sp, 8]
	ldr	x0, [sp, 8]
	add	sp, sp, 16
LCFI510:
	ret
LFE5242:
	.align	2
	.globl __ZSt8_DestroyI9cache_setEvPT_
	.weak_definition __ZSt8_DestroyI9cache_setEvPT_
__ZSt8_DestroyI9cache_setEvPT_:
LFB5243:
	stp	x29, x30, [sp, -32]!
LCFI511:
	mov	x29, sp
	str	x0, [sp, 24]
	ldr	x0, [sp, 24]
	bl	__ZN9cache_setD1Ev
	nop
	ldp	x29, x30, [sp], 32
LCFI512:
	ret
LFE5243:
	.align	2
	.globl __ZNKSt8__detail21_Hashtable_ebo_helperILi1ESt4hashIiELb1EE7_M_cgetEv
	.weak_definition __ZNKSt8__detail21_Hashtable_ebo_helperILi1ESt4hashIiELb1EE7_M_cgetEv
__ZNKSt8__detail21_Hashtable_ebo_helperILi1ESt4hashIiELb1EE7_M_cgetEv:
LFB5244:
	sub	sp, sp, #16
LCFI513:
	str	x0, [sp, 8]
	ldr	x0, [sp, 8]
	add	sp, sp, 16
LCFI514:
	ret
LFE5244:
	.align	2
	.globl __ZNKSt8__detail15_Hashtable_baseIiSt4pairIKiiENS_10_Select1stESt8equal_toIiESt4hashIiENS_18_Mod_range_hashingENS_20_Default_ranged_hashENS_17_Hashtable_traitsILb0ELb0ELb1EEEE9_M_equalsERS2_mRKNS_16_Hash_node_valueIS3_Lb0EEE
	.weak_definition __ZNKSt8__detail15_Hashtable_baseIiSt4pairIKiiENS_10_Select1stESt8equal_toIiESt4hashIiENS_18_Mod_range_hashingENS_20_Default_ranged_hashENS_17_Hashtable_traitsILb0ELb0ELb1EEEE9_M_equalsERS2_mRKNS_16_Hash_node_valueIS3_Lb0EEE
__ZNKSt8__detail15_Hashtable_baseIiSt4pairIKiiENS_10_Select1stESt8equal_toIiESt4hashIiENS_18_Mod_range_hashingENS_20_Default_ranged_hashENS_17_Hashtable_traitsILb0ELb0ELb1EEEE9_M_equalsERS2_mRKNS_16_Hash_node_valueIS3_Lb0EEE:
LFB5245:
	stp	x29, x30, [sp, -80]!
LCFI515:
	mov	x29, sp
	str	x19, [sp, 16]
LCFI516:
	str	x0, [sp, 56]
	str	x1, [sp, 48]
	str	x2, [sp, 40]
	str	x3, [sp, 32]
	ldr	x1, [sp, 32]
	ldr	x0, [sp, 40]
	bl	__ZNSt8__detail15_Hashtable_baseIiSt4pairIKiiENS_10_Select1stESt8equal_toIiESt4hashIiENS_18_Mod_range_hashingENS_20_Default_ranged_hashENS_17_Hashtable_traitsILb0ELb0ELb1EEEE9_S_equalsEmRKNS_21_Hash_node_code_cacheILb0EEE
	and	w0, w0, 255
	cmp	w0, 0
	beq	L534
	ldr	x0, [sp, 56]
	bl	__ZNKSt8__detail15_Hashtable_baseIiSt4pairIKiiENS_10_Select1stESt8equal_toIiESt4hashIiENS_18_Mod_range_hashingENS_20_Default_ranged_hashENS_17_Hashtable_traitsILb0ELb0ELb1EEEE5_M_eqEv
	mov	x19, x0
	ldr	x0, [sp, 32]
	bl	__ZNKSt8__detail21_Hash_node_value_baseISt4pairIKiiEE4_M_vEv
	mov	x1, x0
	add	x0, sp, 72
	bl	__ZNKSt8__detail10_Select1stclIRKSt4pairIKiiEEEDTcl3getILi0EEcl7forwardIT_Efp_EEEOS7_
	mov	x2, x0
	ldr	x1, [sp, 48]
	mov	x0, x19
	bl	__ZNKSt8equal_toIiEclERKiS2_
	and	w0, w0, 255
	cmp	w0, 0
	beq	L534
	mov	w0, 1
	b	L535
L534:
	mov	w0, 0
L535:
	ldr	x19, [sp, 16]
	ldp	x29, x30, [sp], 80
LCFI517:
	ret
LFE5245:
	.align	2
	.globl __ZNKSt8__detail15_Hash_code_baseIiSt4pairIKiiENS_10_Select1stESt4hashIiENS_18_Mod_range_hashingENS_20_Default_ranged_hashELb0EE15_M_bucket_indexERKNS_16_Hash_node_valueIS3_Lb0EEEm
	.weak_definition __ZNKSt8__detail15_Hash_code_baseIiSt4pairIKiiENS_10_Select1stESt4hashIiENS_18_Mod_range_hashingENS_20_Default_ranged_hashELb0EE15_M_bucket_indexERKNS_16_Hash_node_valueIS3_Lb0EEEm
__ZNKSt8__detail15_Hash_code_baseIiSt4pairIKiiENS_10_Select1stESt4hashIiENS_18_Mod_range_hashingENS_20_Default_ranged_hashELb0EE15_M_bucket_indexERKNS_16_Hash_node_valueIS3_Lb0EEEm:
LFB5246:
	stp	x29, x30, [sp, -64]!
LCFI518:
	mov	x29, sp
	str	x0, [sp, 40]
	str	x1, [sp, 32]
	str	x2, [sp, 24]
	ldr	x0, [sp, 32]
	bl	__ZNKSt8__detail21_Hash_node_value_baseISt4pairIKiiEE4_M_vEv
	mov	x1, x0
	add	x0, sp, 56
	bl	__ZNKSt8__detail10_Select1stclIRKSt4pairIKiiEEEDTcl3getILi0EEcl7forwardIT_Efp_EEEOS7_
	mov	x1, x0
	ldr	x0, [sp, 40]
	bl	__ZNKSt8__detail15_Hash_code_baseIiSt4pairIKiiENS_10_Select1stESt4hashIiENS_18_Mod_range_hashingENS_20_Default_ranged_hashELb0EE12_M_hash_codeERS2_
	mov	x1, x0
	add	x0, sp, 48
	ldr	x2, [sp, 24]
	bl	__ZNKSt8__detail18_Mod_range_hashingclEmm
	ldp	x29, x30, [sp], 64
LCFI519:
	ret
LFE5246:
	.section __DATA,__gcc_except_tab
_GCC_except_table24:
LLSDA5246:
	.byte	0xff
	.byte	0xff
	.byte	0x1
	.uleb128 LLSDACSE5246-LLSDACSB5246
LLSDACSB5246:
LLSDACSE5246:
	.text
	.align	2
	.globl __ZNSt10_HashtableIiSt4pairIKiiESaIS2_ENSt8__detail10_Select1stESt8equal_toIiESt4hashIiENS4_18_Mod_range_hashingENS4_20_Default_ranged_hashENS4_20_Prime_rehash_policyENS4_17_Hashtable_traitsILb0ELb0ELb1EEEE22_M_remove_bucket_beginEmPNS4_10_Hash_nodeIS2_Lb0EEEm
	.weak_definition __ZNSt10_HashtableIiSt4pairIKiiESaIS2_ENSt8__detail10_Select1stESt8equal_toIiESt4hashIiENS4_18_Mod_range_hashingENS4_20_Default_ranged_hashENS4_20_Prime_rehash_policyENS4_17_Hashtable_traitsILb0ELb0ELb1EEEE22_M_remove_bucket_beginEmPNS4_10_Hash_nodeIS2_Lb0EEEm
__ZNSt10_HashtableIiSt4pairIKiiESaIS2_ENSt8__detail10_Select1stESt8equal_toIiESt4hashIiENS4_18_Mod_range_hashingENS4_20_Default_ranged_hashENS4_20_Prime_rehash_policyENS4_17_Hashtable_traitsILb0ELb0ELb1EEEE22_M_remove_bucket_beginEmPNS4_10_Hash_nodeIS2_Lb0EEEm:
LFB5247:
	sub	sp, sp, #32
LCFI520:
	str	x0, [sp, 24]
	str	x1, [sp, 16]
	str	x2, [sp, 8]
	str	x3, [sp]
	ldr	x0, [sp, 8]
	cmp	x0, 0
	beq	L540
	ldr	x1, [sp]
	ldr	x0, [sp, 16]
	cmp	x1, x0
	beq	L544
L540:
	ldr	x0, [sp, 8]
	cmp	x0, 0
	beq	L542
	ldr	x0, [sp, 24]
	ldr	x1, [x0]
	ldr	x0, [sp, 16]
	lsl	x0, x0, 3
	add	x1, x1, x0
	ldr	x0, [sp, 24]
	ldr	x2, [x0]
	ldr	x0, [sp]
	lsl	x0, x0, 3
	add	x0, x2, x0
	ldr	x1, [x1]
	str	x1, [x0]
L542:
	ldr	x0, [sp, 24]
	add	x1, x0, 16
	ldr	x0, [sp, 24]
	ldr	x2, [x0]
	ldr	x0, [sp, 16]
	lsl	x0, x0, 3
	add	x0, x2, x0
	ldr	x0, [x0]
	cmp	x1, x0
	bne	L543
	ldr	x0, [sp, 24]
	ldr	x1, [sp, 8]
	str	x1, [x0, 16]
L543:
	ldr	x0, [sp, 24]
	ldr	x1, [x0]
	ldr	x0, [sp, 16]
	lsl	x0, x0, 3
	add	x0, x1, x0
	str	xzr, [x0]
L544:
	nop
	add	sp, sp, 32
LCFI521:
	ret
LFE5247:
	.align	2
	.globl __ZNSt16allocator_traitsISaISt10_List_nodeIiEEE8allocateERS2_m
	.weak_definition __ZNSt16allocator_traitsISaISt10_List_nodeIiEEE8allocateERS2_m
__ZNSt16allocator_traitsISaISt10_List_nodeIiEEE8allocateERS2_m:
LFB5248:
	stp	x29, x30, [sp, -32]!
LCFI522:
	mov	x29, sp
	str	x0, [sp, 24]
	str	x1, [sp, 16]
	mov	x2, 0
	ldr	x1, [sp, 16]
	ldr	x0, [sp, 24]
	bl	__ZN9__gnu_cxx13new_allocatorISt10_List_nodeIiEE8allocateEmPKv
	ldp	x29, x30, [sp], 32
LCFI523:
	ret
LFE5248:
	.align	2
	.globl __ZSt11__addressofISaISt10_List_nodeIiEEEPT_RS3_
	.weak_definition __ZSt11__addressofISaISt10_List_nodeIiEEEPT_RS3_
__ZSt11__addressofISaISt10_List_nodeIiEEEPT_RS3_:
LFB5249:
	sub	sp, sp, #16
LCFI524:
	str	x0, [sp, 8]
	ldr	x0, [sp, 8]
	add	sp, sp, 16
LCFI525:
	ret
LFE5249:
	.align	2
	.globl __ZN9__gnu_cxx13new_allocatorISt10_List_nodeIiEE9constructIiJRKiEEEvPT_DpOT0_
	.weak_definition __ZN9__gnu_cxx13new_allocatorISt10_List_nodeIiEE9constructIiJRKiEEEvPT_DpOT0_
__ZN9__gnu_cxx13new_allocatorISt10_List_nodeIiEE9constructIiJRKiEEEvPT_DpOT0_:
LFB5250:
	stp	x29, x30, [sp, -64]!
LCFI526:
	mov	x29, sp
	str	x19, [sp, 16]
LCFI527:
	str	x0, [sp, 56]
	str	x1, [sp, 48]
	str	x2, [sp, 40]
	ldr	x0, [sp, 40]
	bl	__ZSt7forwardIRKiEOT_RNSt16remove_referenceIS2_E4typeE
	ldr	w19, [x0]
	ldr	x0, [sp, 48]
	mov	x1, x0
	mov	x0, 4
	bl	__ZnwmPv
	str	w19, [x0]
	nop
	ldr	x19, [sp, 16]
	ldp	x29, x30, [sp], 64
LCFI528:
	ret
LFE5250:
	.align	2
	.globl __ZNSt8__detail10_Hash_nodeISt4pairIKiiELb0EEC1Ev
	.weak_definition __ZNSt8__detail10_Hash_nodeISt4pairIKiiELb0EEC1Ev
__ZNSt8__detail10_Hash_nodeISt4pairIKiiELb0EEC1Ev:
LFB5254:
	stp	x29, x30, [sp, -32]!
LCFI529:
	mov	x29, sp
	str	x0, [sp, 24]
	ldr	x0, [sp, 24]
	bl	__ZNSt8__detail15_Hash_node_baseC2Ev
	nop
	ldp	x29, x30, [sp], 32
LCFI530:
	ret
LFE5254:
	.align	2
	.globl __ZNSt8__detail16_Hashtable_allocISaINS_10_Hash_nodeISt4pairIKiiELb0EEEEE16_M_allocate_nodeIJS2_IiiEEEEPS5_DpOT_
	.weak_definition __ZNSt8__detail16_Hashtable_allocISaINS_10_Hash_nodeISt4pairIKiiELb0EEEEE16_M_allocate_nodeIJS2_IiiEEEEPS5_DpOT_
__ZNSt8__detail16_Hashtable_allocISaINS_10_Hash_nodeISt4pairIKiiELb0EEEEE16_M_allocate_nodeIJS2_IiiEEEEPS5_DpOT_:
LFB5251:
	stp	x29, x30, [sp, -64]!
LCFI531:
	mov	x29, sp
	stp	x19, x20, [sp, 16]
LCFI532:
	str	x0, [sp, 40]
	str	x1, [sp, 32]
	ldr	x0, [sp, 40]
	bl	__ZNSt8__detail16_Hashtable_allocISaINS_10_Hash_nodeISt4pairIKiiELb0EEEEE17_M_node_allocatorEv
	mov	x1, 1
LEHB49:
	bl	__ZNSt16allocator_traitsISaINSt8__detail10_Hash_nodeISt4pairIKiiELb0EEEEE8allocateERS6_m
LEHE49:
	str	x0, [sp, 56]
	ldr	x0, [sp, 56]
	bl	__ZSt12__to_addressINSt8__detail10_Hash_nodeISt4pairIKiiELb0EEEEPT_S7_
	str	x0, [sp, 48]
	ldr	x0, [sp, 48]
	mov	x1, x0
	mov	x0, 16
	bl	__ZnwmPv
	bl	__ZNSt8__detail10_Hash_nodeISt4pairIKiiELb0EEC1Ev
	ldr	x0, [sp, 40]
	bl	__ZNSt8__detail16_Hashtable_allocISaINS_10_Hash_nodeISt4pairIKiiELb0EEEEE17_M_node_allocatorEv
	mov	x19, x0
	ldr	x0, [sp, 48]
	add	x0, x0, 8
	bl	__ZNSt8__detail21_Hash_node_value_baseISt4pairIKiiEE9_M_valptrEv
	mov	x20, x0
	ldr	x0, [sp, 32]
	bl	__ZSt7forwardISt4pairIiiEEOT_RNSt16remove_referenceIS2_E4typeE
	mov	x2, x0
	mov	x1, x20
	mov	x0, x19
LEHB50:
	bl	__ZNSt16allocator_traitsISaINSt8__detail10_Hash_nodeISt4pairIKiiELb0EEEEE9constructIS4_JS2_IiiEEEEvRS6_PT_DpOT0_
LEHE50:
	ldr	x0, [sp, 48]
	b	L557
L555:
	bl	___cxa_begin_catch
	ldr	x0, [sp, 40]
	bl	__ZNSt8__detail16_Hashtable_allocISaINS_10_Hash_nodeISt4pairIKiiELb0EEEEE17_M_node_allocatorEv
	mov	x2, 1
	ldr	x1, [sp, 56]
LEHB51:
	bl	__ZNSt16allocator_traitsISaINSt8__detail10_Hash_nodeISt4pairIKiiELb0EEEEE10deallocateERS6_PS5_m
	bl	___cxa_rethrow
LEHE51:
L556:
	mov	x19, x0
	bl	___cxa_end_catch
	mov	x0, x19
LEHB52:
	bl	__Unwind_Resume
LEHE52:
L557:
	ldp	x19, x20, [sp, 16]
	ldp	x29, x30, [sp], 64
LCFI533:
	ret
LFE5251:
	.section __DATA,__gcc_except_tab
_GCC_except_table25:
	.align	3
LLSDA5251:
	.byte	0xff
	.byte	0
	.uleb128 LLSDATT5251-LLSDATTD5251
LLSDATTD5251:
	.byte	0x1
	.uleb128 LLSDACSE5251-LLSDACSB5251
LLSDACSB5251:
	.uleb128 LEHB49-LFB5251
	.uleb128 LEHE49-LEHB49
	.uleb128 0
	.uleb128 0
	.uleb128 LEHB50-LFB5251
	.uleb128 LEHE50-LEHB50
	.uleb128 L555-LFB5251
	.uleb128 0x1
	.uleb128 LEHB51-LFB5251
	.uleb128 LEHE51-LEHB51
	.uleb128 L556-LFB5251
	.uleb128 0
	.uleb128 LEHB52-LFB5251
	.uleb128 LEHE52-LEHB52
	.uleb128 0
	.uleb128 0
LLSDACSE5251:
	.byte	0x1
	.byte	0
	.align	3
	.xword	0
LLSDATT5251:
	.text
	.align	2
	.globl __ZSt7forwardIRSt4pairIKiiEEOT_RNSt16remove_referenceIS4_E4typeE
	.weak_definition __ZSt7forwardIRSt4pairIKiiEEOT_RNSt16remove_referenceIS4_E4typeE
__ZSt7forwardIRSt4pairIKiiEEOT_RNSt16remove_referenceIS4_E4typeE:
LFB5255:
	sub	sp, sp, #16
LCFI534:
	str	x0, [sp, 8]
	ldr	x0, [sp, 8]
	add	sp, sp, 16
LCFI535:
	ret
LFE5255:
	.align	2
	.globl __ZSt3getILm0EKiiERNSt13tuple_elementIXT_ESt4pairIT0_T1_EE4typeERS5_
	.weak_definition __ZSt3getILm0EKiiERNSt13tuple_elementIXT_ESt4pairIT0_T1_EE4typeERS5_
__ZSt3getILm0EKiiERNSt13tuple_elementIXT_ESt4pairIT0_T1_EE4typeERS5_:
LFB5256:
	stp	x29, x30, [sp, -32]!
LCFI536:
	mov	x29, sp
	str	x0, [sp, 24]
	ldr	x0, [sp, 24]
	bl	__ZNSt10__pair_getILm0EE5__getIKiiEERT_RSt4pairIS3_T0_E
	ldp	x29, x30, [sp], 32
LCFI537:
	ret
LFE5256:
	.align	2
	.globl __ZSt7forwardINSt8__detail14_Node_iteratorISt4pairIKiiELb0ELb0EEEEOT_RNSt16remove_referenceIS6_E4typeE
	.weak_definition __ZSt7forwardINSt8__detail14_Node_iteratorISt4pairIKiiELb0ELb0EEEEOT_RNSt16remove_referenceIS6_E4typeE
__ZSt7forwardINSt8__detail14_Node_iteratorISt4pairIKiiELb0ELb0EEEEOT_RNSt16remove_referenceIS6_E4typeE:
LFB5257:
	sub	sp, sp, #16
LCFI538:
	str	x0, [sp, 8]
	ldr	x0, [sp, 8]
	add	sp, sp, 16
LCFI539:
	ret
LFE5257:
	.align	2
	.globl __ZNSt4pairINSt8__detail14_Node_iteratorIS_IKiiELb0ELb0EEEbEC1IS4_bLb1EEEOT_OT0_
	.weak_definition __ZNSt4pairINSt8__detail14_Node_iteratorIS_IKiiELb0ELb0EEEbEC1IS4_bLb1EEEOT_OT0_
__ZNSt4pairINSt8__detail14_Node_iteratorIS_IKiiELb0ELb0EEEbEC1IS4_bLb1EEEOT_OT0_:
LFB5260:
	stp	x29, x30, [sp, -48]!
LCFI540:
	mov	x29, sp
	str	x0, [sp, 40]
	str	x1, [sp, 32]
	str	x2, [sp, 24]
	ldr	x0, [sp, 32]
	bl	__ZSt7forwardINSt8__detail14_Node_iteratorISt4pairIKiiELb0ELb0EEEEOT_RNSt16remove_referenceIS6_E4typeE
	mov	x1, x0
	ldr	x0, [sp, 40]
	ldr	x1, [x1]
	str	x1, [x0]
	ldr	x0, [sp, 24]
	bl	__ZSt7forwardIbEOT_RNSt16remove_referenceIS0_E4typeE
	ldrb	w1, [x0]
	ldr	x0, [sp, 40]
	strb	w1, [x0, 8]
	nop
	ldp	x29, x30, [sp], 48
LCFI541:
	ret
LFE5260:
	.align	2
	.globl __ZNSt10_HashtableIiSt4pairIKiiESaIS2_ENSt8__detail10_Select1stESt8equal_toIiESt4hashIiENS4_18_Mod_range_hashingENS4_20_Default_ranged_hashENS4_20_Prime_rehash_policyENS4_17_Hashtable_traitsILb0ELb0ELb1EEEE9_M_rehashEmRKm
	.weak_definition __ZNSt10_HashtableIiSt4pairIKiiESaIS2_ENSt8__detail10_Select1stESt8equal_toIiESt4hashIiENS4_18_Mod_range_hashingENS4_20_Default_ranged_hashENS4_20_Prime_rehash_policyENS4_17_Hashtable_traitsILb0ELb0ELb1EEEE9_M_rehashEmRKm
__ZNSt10_HashtableIiSt4pairIKiiESaIS2_ENSt8__detail10_Select1stESt8equal_toIiESt4hashIiENS4_18_Mod_range_hashingENS4_20_Default_ranged_hashENS4_20_Prime_rehash_policyENS4_17_Hashtable_traitsILb0ELb0ELb1EEEE9_M_rehashEmRKm:
LFB5261:
	stp	x29, x30, [sp, -64]!
LCFI542:
	mov	x29, sp
	str	x19, [sp, 16]
LCFI543:
	str	x0, [sp, 56]
	str	x1, [sp, 48]
	str	x2, [sp, 40]
	mov	w2, w3
	ldr	x1, [sp, 48]
	ldr	x0, [sp, 56]
LEHB53:
	bl	__ZNSt10_HashtableIiSt4pairIKiiESaIS2_ENSt8__detail10_Select1stESt8equal_toIiESt4hashIiENS4_18_Mod_range_hashingENS4_20_Default_ranged_hashENS4_20_Prime_rehash_policyENS4_17_Hashtable_traitsILb0ELb0ELb1EEEE13_M_rehash_auxEmSt17integral_constantIbLb1EE
LEHE53:
	b	L570
L568:
	bl	___cxa_begin_catch
	ldr	x0, [sp, 56]
	add	x2, x0, 32
	ldr	x0, [sp, 40]
	ldr	x0, [x0]
	mov	x1, x0
	mov	x0, x2
	bl	__ZNSt8__detail20_Prime_rehash_policy8_M_resetEm
LEHB54:
	bl	___cxa_rethrow
LEHE54:
L569:
	mov	x19, x0
	bl	___cxa_end_catch
	mov	x0, x19
LEHB55:
	bl	__Unwind_Resume
LEHE55:
L570:
	ldr	x19, [sp, 16]
	ldp	x29, x30, [sp], 64
LCFI544:
	ret
LFE5261:
	.section __DATA,__gcc_except_tab
_GCC_except_table26:
	.align	3
LLSDA5261:
	.byte	0xff
	.byte	0
	.uleb128 LLSDATT5261-LLSDATTD5261
LLSDATTD5261:
	.byte	0x1
	.uleb128 LLSDACSE5261-LLSDACSB5261
LLSDACSB5261:
	.uleb128 LEHB53-LFB5261
	.uleb128 LEHE53-LEHB53
	.uleb128 L568-LFB5261
	.uleb128 0x1
	.uleb128 LEHB54-LFB5261
	.uleb128 LEHE54-LEHB54
	.uleb128 L569-LFB5261
	.uleb128 0
	.uleb128 LEHB55-LFB5261
	.uleb128 LEHE55-LEHB55
	.uleb128 0
	.uleb128 0
LLSDACSE5261:
	.byte	0x1
	.byte	0
	.align	3
	.xword	0
LLSDATT5261:
	.text
	.align	2
	.globl __ZNKSt8__detail15_Hash_code_baseIiSt4pairIKiiENS_10_Select1stESt4hashIiENS_18_Mod_range_hashingENS_20_Default_ranged_hashELb0EE13_M_store_codeERNS_21_Hash_node_code_cacheILb0EEEm
	.weak_definition __ZNKSt8__detail15_Hash_code_baseIiSt4pairIKiiENS_10_Select1stESt4hashIiENS_18_Mod_range_hashingENS_20_Default_ranged_hashELb0EE13_M_store_codeERNS_21_Hash_node_code_cacheILb0EEEm
__ZNKSt8__detail15_Hash_code_baseIiSt4pairIKiiENS_10_Select1stESt4hashIiENS_18_Mod_range_hashingENS_20_Default_ranged_hashELb0EE13_M_store_codeERNS_21_Hash_node_code_cacheILb0EEEm:
LFB5262:
	sub	sp, sp, #32
LCFI545:
	str	x0, [sp, 24]
	str	x1, [sp, 16]
	str	x2, [sp, 8]
	nop
	add	sp, sp, 32
LCFI546:
	ret
LFE5262:
	.align	2
	.globl __ZNSt10_HashtableIiSt4pairIKiiESaIS2_ENSt8__detail10_Select1stESt8equal_toIiESt4hashIiENS4_18_Mod_range_hashingENS4_20_Default_ranged_hashENS4_20_Prime_rehash_policyENS4_17_Hashtable_traitsILb0ELb0ELb1EEEE22_M_insert_bucket_beginEmPNS4_10_Hash_nodeIS2_Lb0EEE
	.weak_definition __ZNSt10_HashtableIiSt4pairIKiiESaIS2_ENSt8__detail10_Select1stESt8equal_toIiESt4hashIiENS4_18_Mod_range_hashingENS4_20_Default_ranged_hashENS4_20_Prime_rehash_policyENS4_17_Hashtable_traitsILb0ELb0ELb1EEEE22_M_insert_bucket_beginEmPNS4_10_Hash_nodeIS2_Lb0EEE
__ZNSt10_HashtableIiSt4pairIKiiESaIS2_ENSt8__detail10_Select1stESt8equal_toIiESt4hashIiENS4_18_Mod_range_hashingENS4_20_Default_ranged_hashENS4_20_Prime_rehash_policyENS4_17_Hashtable_traitsILb0ELb0ELb1EEEE22_M_insert_bucket_beginEmPNS4_10_Hash_nodeIS2_Lb0EEE:
LFB5263:
	stp	x29, x30, [sp, -64]!
LCFI547:
	mov	x29, sp
	stp	x19, x20, [sp, 16]
LCFI548:
	str	x0, [sp, 56]
	str	x1, [sp, 48]
	str	x2, [sp, 40]
	ldr	x0, [sp, 56]
	ldr	x1, [x0]
	ldr	x0, [sp, 48]
	lsl	x0, x0, 3
	add	x0, x1, x0
	ldr	x0, [x0]
	cmp	x0, 0
	beq	L573
	ldr	x0, [sp, 56]
	ldr	x1, [x0]
	ldr	x0, [sp, 48]
	lsl	x0, x0, 3
	add	x0, x1, x0
	ldr	x0, [x0]
	ldr	x1, [x0]
	ldr	x0, [sp, 40]
	str	x1, [x0]
	ldr	x0, [sp, 56]
	ldr	x1, [x0]
	ldr	x0, [sp, 48]
	lsl	x0, x0, 3
	add	x0, x1, x0
	ldr	x0, [x0]
	ldr	x1, [sp, 40]
	str	x1, [x0]
	b	L576
L573:
	ldr	x0, [sp, 56]
	ldr	x1, [x0, 16]
	ldr	x0, [sp, 40]
	str	x1, [x0]
	ldr	x0, [sp, 56]
	ldr	x1, [sp, 40]
	str	x1, [x0, 16]
	ldr	x0, [sp, 40]
	ldr	x0, [x0]
	cmp	x0, 0
	beq	L575
	ldr	x19, [sp, 40]
	ldr	x0, [sp, 56]
	ldr	x20, [x0]
	ldr	x0, [sp, 40]
	bl	__ZNKSt8__detail10_Hash_nodeISt4pairIKiiELb0EE7_M_nextEv
	add	x0, x0, 8
	mov	x1, x0
	ldr	x0, [sp, 56]
	bl	__ZNKSt10_HashtableIiSt4pairIKiiESaIS2_ENSt8__detail10_Select1stESt8equal_toIiESt4hashIiENS4_18_Mod_range_hashingENS4_20_Default_ranged_hashENS4_20_Prime_rehash_policyENS4_17_Hashtable_traitsILb0ELb0ELb1EEEE15_M_bucket_indexERKNS4_16_Hash_node_valueIS2_Lb0EEE
	lsl	x0, x0, 3
	add	x0, x20, x0
	str	x19, [x0]
L575:
	ldr	x0, [sp, 56]
	ldr	x1, [x0]
	ldr	x0, [sp, 48]
	lsl	x0, x0, 3
	add	x0, x1, x0
	ldr	x1, [sp, 56]
	add	x1, x1, 16
	str	x1, [x0]
L576:
	nop
	ldp	x19, x20, [sp, 16]
	ldp	x29, x30, [sp], 64
LCFI549:
	ret
LFE5263:
	.align	2
	.globl __ZSt7forwardIRNSt8__detail14_Node_iteratorISt4pairIKiiELb0ELb0EEEEOT_RNSt16remove_referenceIS7_E4typeE
	.weak_definition __ZSt7forwardIRNSt8__detail14_Node_iteratorISt4pairIKiiELb0ELb0EEEEOT_RNSt16remove_referenceIS7_E4typeE
__ZSt7forwardIRNSt8__detail14_Node_iteratorISt4pairIKiiELb0ELb0EEEEOT_RNSt16remove_referenceIS7_E4typeE:
LFB5264:
	sub	sp, sp, #16
LCFI550:
	str	x0, [sp, 8]
	ldr	x0, [sp, 8]
	add	sp, sp, 16
LCFI551:
	ret
LFE5264:
	.align	2
	.globl __ZNK9__gnu_cxx13new_allocatorI5blockE11_M_max_sizeEv
	.weak_definition __ZNK9__gnu_cxx13new_allocatorI5blockE11_M_max_sizeEv
__ZNK9__gnu_cxx13new_allocatorI5blockE11_M_max_sizeEv:
LFB5290:
	sub	sp, sp, #16
LCFI552:
	str	x0, [sp, 8]
	mov	x0, 576460752303423487
	add	sp, sp, 16
LCFI553:
	ret
LFE5290:
	.align	2
	.globl __ZN9__gnu_cxx13new_allocatorI5blockE8allocateEmPKv
	.weak_definition __ZN9__gnu_cxx13new_allocatorI5blockE8allocateEmPKv
__ZN9__gnu_cxx13new_allocatorI5blockE8allocateEmPKv:
LFB5291:
	stp	x29, x30, [sp, -48]!
LCFI554:
	mov	x29, sp
	str	x0, [sp, 40]
	str	x1, [sp, 32]
	str	x2, [sp, 24]
	ldr	x0, [sp, 40]
	bl	__ZNK9__gnu_cxx13new_allocatorI5blockE11_M_max_sizeEv
	mov	x1, x0
	ldr	x0, [sp, 32]
	cmp	x0, x1
	cset	w0, hi
	and	w0, w0, 255
	and	x0, x0, 255
	cmp	x0, 0
	cset	w0, ne
	and	w0, w0, 255
	cmp	w0, 0
	beq	L582
	ldr	x1, [sp, 32]
	mov	x0, 1152921504606846975
	cmp	x1, x0
	bls	L583
	bl	__ZSt28__throw_bad_array_new_lengthv
L583:
	bl	__ZSt17__throw_bad_allocv
L582:
	ldr	x0, [sp, 32]
	lsl	x0, x0, 4
	bl	__Znwm
	nop
	ldp	x29, x30, [sp], 48
LCFI555:
	ret
LFE5291:
	.align	2
	.globl __ZSt10_ConstructI5blockJRKS0_EEvPT_DpOT0_
	.weak_definition __ZSt10_ConstructI5blockJRKS0_EEvPT_DpOT0_
__ZSt10_ConstructI5blockJRKS0_EEvPT_DpOT0_:
LFB5292:
	stp	x29, x30, [sp, -48]!
LCFI556:
	mov	x29, sp
	str	x19, [sp, 16]
LCFI557:
	str	x0, [sp, 40]
	str	x1, [sp, 32]
	ldr	x0, [sp, 32]
	bl	__ZSt7forwardIRK5blockEOT_RNSt16remove_referenceIS3_E4typeE
	mov	x19, x0
	ldr	x0, [sp, 40]
	mov	x1, x0
	mov	x0, 16
	bl	__ZnwmPv
	mov	x2, x0
	ldp	x0, x1, [x19]
	stp	x0, x1, [x2]
	nop
	ldr	x19, [sp, 16]
	ldp	x29, x30, [sp], 48
LCFI558:
	ret
LFE5292:
	.align	2
	.globl __ZNSt8__detail21_Hashtable_ebo_helperILi0ESaINS_10_Hash_nodeISt4pairIKiiELb0EEEELb1EE6_M_getEv
	.weak_definition __ZNSt8__detail21_Hashtable_ebo_helperILi0ESaINS_10_Hash_nodeISt4pairIKiiELb0EEEELb1EE6_M_getEv
__ZNSt8__detail21_Hashtable_ebo_helperILi0ESaINS_10_Hash_nodeISt4pairIKiiELb0EEEELb1EE6_M_getEv:
LFB5293:
	sub	sp, sp, #16
LCFI559:
	str	x0, [sp, 8]
	ldr	x0, [sp, 8]
	add	sp, sp, 16
LCFI560:
	ret
LFE5293:
	.align	2
	.globl __ZN9__gnu_cxx13new_allocatorINSt8__detail10_Hash_nodeISt4pairIKiiELb0EEEE7destroyIS5_EEvPT_
	.weak_definition __ZN9__gnu_cxx13new_allocatorINSt8__detail10_Hash_nodeISt4pairIKiiELb0EEEE7destroyIS5_EEvPT_
__ZN9__gnu_cxx13new_allocatorINSt8__detail10_Hash_nodeISt4pairIKiiELb0EEEE7destroyIS5_EEvPT_:
LFB5294:
	sub	sp, sp, #16
LCFI561:
	str	x0, [sp, 8]
	str	x1, [sp]
	nop
	add	sp, sp, 16
LCFI562:
	ret
LFE5294:
	.align	2
	.globl __ZNSt14pointer_traitsIPNSt8__detail10_Hash_nodeISt4pairIKiiELb0EEEE10pointer_toERS5_
	.weak_definition __ZNSt14pointer_traitsIPNSt8__detail10_Hash_nodeISt4pairIKiiELb0EEEE10pointer_toERS5_
__ZNSt14pointer_traitsIPNSt8__detail10_Hash_nodeISt4pairIKiiELb0EEEE10pointer_toERS5_:
LFB5295:
	stp	x29, x30, [sp, -32]!
LCFI563:
	mov	x29, sp
	str	x0, [sp, 24]
	ldr	x0, [sp, 24]
	bl	__ZSt9addressofINSt8__detail10_Hash_nodeISt4pairIKiiELb0EEEEPT_RS6_
	ldp	x29, x30, [sp], 32
LCFI564:
	ret
LFE5295:
	.align	2
	.globl __ZNSt16allocator_traitsISaINSt8__detail10_Hash_nodeISt4pairIKiiELb0EEEEE10deallocateERS6_PS5_m
	.weak_definition __ZNSt16allocator_traitsISaINSt8__detail10_Hash_nodeISt4pairIKiiELb0EEEEE10deallocateERS6_PS5_m
__ZNSt16allocator_traitsISaINSt8__detail10_Hash_nodeISt4pairIKiiELb0EEEEE10deallocateERS6_PS5_m:
LFB5296:
	stp	x29, x30, [sp, -48]!
LCFI565:
	mov	x29, sp
	str	x0, [sp, 40]
	str	x1, [sp, 32]
	str	x2, [sp, 24]
	ldr	x2, [sp, 24]
	ldr	x1, [sp, 32]
	ldr	x0, [sp, 40]
	bl	__ZN9__gnu_cxx13new_allocatorINSt8__detail10_Hash_nodeISt4pairIKiiELb0EEEE10deallocateEPS6_m
	nop
	ldp	x29, x30, [sp], 48
LCFI566:
	ret
LFE5296:
	.align	2
	.globl __ZSt9addressofIPNSt8__detail15_Hash_node_baseEEPT_RS3_
	.weak_definition __ZSt9addressofIPNSt8__detail15_Hash_node_baseEEPT_RS3_
__ZSt9addressofIPNSt8__detail15_Hash_node_baseEEPT_RS3_:
LFB5297:
	stp	x29, x30, [sp, -32]!
LCFI567:
	mov	x29, sp
	str	x0, [sp, 24]
	ldr	x0, [sp, 24]
	bl	__ZSt11__addressofIPNSt8__detail15_Hash_node_baseEEPT_RS3_
	ldp	x29, x30, [sp], 32
LCFI568:
	ret
LFE5297:
	.align	2
	.globl __ZN9__gnu_cxx13new_allocatorIPNSt8__detail15_Hash_node_baseEEC2Ev
	.weak_definition __ZN9__gnu_cxx13new_allocatorIPNSt8__detail15_Hash_node_baseEEC2Ev
__ZN9__gnu_cxx13new_allocatorIPNSt8__detail15_Hash_node_baseEEC2Ev:
LFB5299:
	sub	sp, sp, #16
LCFI569:
	str	x0, [sp, 8]
	nop
	add	sp, sp, 16
LCFI570:
	ret
LFE5299:
	.align	2
	.globl __ZN9__gnu_cxx13new_allocatorIPNSt8__detail15_Hash_node_baseEED2Ev
	.weak_definition __ZN9__gnu_cxx13new_allocatorIPNSt8__detail15_Hash_node_baseEED2Ev
__ZN9__gnu_cxx13new_allocatorIPNSt8__detail15_Hash_node_baseEED2Ev:
LFB5302:
	sub	sp, sp, #16
LCFI571:
	str	x0, [sp, 8]
	nop
	add	sp, sp, 16
LCFI572:
	ret
LFE5302:
	.align	2
	.globl __ZN9__gnu_cxx13new_allocatorIPNSt8__detail15_Hash_node_baseEE10deallocateEPS3_m
	.weak_definition __ZN9__gnu_cxx13new_allocatorIPNSt8__detail15_Hash_node_baseEE10deallocateEPS3_m
__ZN9__gnu_cxx13new_allocatorIPNSt8__detail15_Hash_node_baseEE10deallocateEPS3_m:
LFB5304:
	stp	x29, x30, [sp, -48]!
LCFI573:
	mov	x29, sp
	str	x0, [sp, 40]
	str	x1, [sp, 32]
	str	x2, [sp, 24]
	ldr	x0, [sp, 24]
	lsl	x0, x0, 3
	mov	x1, x0
	ldr	x0, [sp, 32]
	bl	__ZdlPvm
	ldp	x29, x30, [sp], 48
LCFI574:
	ret
LFE5304:
	.align	2
	.globl __ZNK9__gnu_cxx13new_allocatorI9cache_setE11_M_max_sizeEv
	.weak_definition __ZNK9__gnu_cxx13new_allocatorI9cache_setE11_M_max_sizeEv
__ZNK9__gnu_cxx13new_allocatorI9cache_setE11_M_max_sizeEv:
LFB5305:
	sub	sp, sp, #16
LCFI575:
	str	x0, [sp, 8]
	mov	x0, 18724
	movk	x0, 0x2492, lsl 16
	movk	x0, 0x9249, lsl 32
	movk	x0, 0x124, lsl 48
	add	sp, sp, 16
LCFI576:
	ret
LFE5305:
	.align	2
	.globl __ZN9__gnu_cxx13new_allocatorI9cache_setE8allocateEmPKv
	.weak_definition __ZN9__gnu_cxx13new_allocatorI9cache_setE8allocateEmPKv
__ZN9__gnu_cxx13new_allocatorI9cache_setE8allocateEmPKv:
LFB5306:
	stp	x29, x30, [sp, -48]!
LCFI577:
	mov	x29, sp
	str	x0, [sp, 40]
	str	x1, [sp, 32]
	str	x2, [sp, 24]
	ldr	x0, [sp, 40]
	bl	__ZNK9__gnu_cxx13new_allocatorI9cache_setE11_M_max_sizeEv
	mov	x1, x0
	ldr	x0, [sp, 32]
	cmp	x0, x1
	cset	w0, hi
	and	w0, w0, 255
	and	x0, x0, 255
	cmp	x0, 0
	cset	w0, ne
	and	w0, w0, 255
	cmp	w0, 0
	beq	L601
	ldr	x1, [sp, 32]
	mov	x0, 37449
	movk	x0, 0x4924, lsl 16
	movk	x0, 0x2492, lsl 32
	movk	x0, 0x249, lsl 48
	cmp	x1, x0
	bls	L602
	bl	__ZSt28__throw_bad_array_new_lengthv
L602:
	bl	__ZSt17__throw_bad_allocv
L601:
	ldr	x1, [sp, 32]
	mov	x0, x1
	lsl	x0, x0, 3
	sub	x0, x0, x1
	lsl	x0, x0, 4
	bl	__Znwm
	nop
	ldp	x29, x30, [sp], 48
LCFI578:
	ret
LFE5306:
	.align	2
	.globl __ZNSt13unordered_mapIiiSt4hashIiESt8equal_toIiESaISt4pairIKiiEEEC1ERKS8_
	.weak_definition __ZNSt13unordered_mapIiiSt4hashIiESt8equal_toIiESaISt4pairIKiiEEEC1ERKS8_
__ZNSt13unordered_mapIiiSt4hashIiESt8equal_toIiESaISt4pairIKiiEEEC1ERKS8_:
LFB5311:
	stp	x29, x30, [sp, -32]!
LCFI579:
	mov	x29, sp
	str	x0, [sp, 24]
	str	x1, [sp, 16]
	ldr	x0, [sp, 24]
	ldr	x1, [sp, 16]
	bl	__ZNSt10_HashtableIiSt4pairIKiiESaIS2_ENSt8__detail10_Select1stESt8equal_toIiESt4hashIiENS4_18_Mod_range_hashingENS4_20_Default_ranged_hashENS4_20_Prime_rehash_policyENS4_17_Hashtable_traitsILb0ELb0ELb1EEEEC1ERKSF_
	nop
	ldp	x29, x30, [sp], 32
LCFI580:
	ret
LFE5311:
	.align	2
	.globl __ZN9cache_setC1ERKS_
	.weak_definition __ZN9cache_setC1ERKS_
__ZN9cache_setC1ERKS_:
LFB5313:
	stp	x29, x30, [sp, -48]!
LCFI581:
	mov	x29, sp
	str	x19, [sp, 16]
LCFI582:
	str	x0, [sp, 40]
	str	x1, [sp, 32]
	ldr	x0, [sp, 32]
	ldr	w1, [x0]
	ldr	x0, [sp, 40]
	str	w1, [x0]
	ldr	x0, [sp, 32]
	ldr	w1, [x0, 4]
	ldr	x0, [sp, 40]
	str	w1, [x0, 4]
	ldr	x0, [sp, 40]
	add	x2, x0, 8
	ldr	x0, [sp, 32]
	add	x0, x0, 8
	mov	x1, x0
	mov	x0, x2
LEHB56:
	bl	__ZNSt6vectorI5blockSaIS0_EEC1ERKS2_
LEHE56:
	ldr	x0, [sp, 40]
	add	x2, x0, 32
	ldr	x0, [sp, 32]
	add	x0, x0, 32
	mov	x1, x0
	mov	x0, x2
LEHB57:
	bl	__ZNSt13unordered_mapIiiSt4hashIiESt8equal_toIiESaISt4pairIKiiEEEC1ERKS8_
LEHE57:
	ldr	x0, [sp, 40]
	add	x2, x0, 88
	ldr	x0, [sp, 32]
	add	x0, x0, 88
	mov	x1, x0
	mov	x0, x2
LEHB58:
	bl	__ZNSt7__cxx114listIiSaIiEEC1ERKS2_
LEHE58:
	b	L610
L609:
	mov	x19, x0
	ldr	x0, [sp, 40]
	add	x0, x0, 32
	bl	__ZNSt13unordered_mapIiiSt4hashIiESt8equal_toIiESaISt4pairIKiiEEED1Ev
	b	L607
L608:
	mov	x19, x0
L607:
	ldr	x0, [sp, 40]
	add	x0, x0, 8
	bl	__ZNSt6vectorI5blockSaIS0_EED1Ev
	mov	x0, x19
LEHB59:
	bl	__Unwind_Resume
LEHE59:
L610:
	ldr	x19, [sp, 16]
	ldp	x29, x30, [sp], 48
LCFI583:
	ret
LFE5313:
	.section __DATA,__gcc_except_tab
_GCC_except_table27:
LLSDA5313:
	.byte	0xff
	.byte	0xff
	.byte	0x1
	.uleb128 LLSDACSE5313-LLSDACSB5313
LLSDACSB5313:
	.uleb128 LEHB56-LFB5313
	.uleb128 LEHE56-LEHB56
	.uleb128 0
	.uleb128 0
	.uleb128 LEHB57-LFB5313
	.uleb128 LEHE57-LEHB57
	.uleb128 L608-LFB5313
	.uleb128 0
	.uleb128 LEHB58-LFB5313
	.uleb128 LEHE58-LEHB58
	.uleb128 L609-LFB5313
	.uleb128 0
	.uleb128 LEHB59-LFB5313
	.uleb128 LEHE59-LEHB59
	.uleb128 0
	.uleb128 0
LLSDACSE5313:
	.text
	.align	2
	.globl __ZSt10_ConstructI9cache_setJRKS0_EEvPT_DpOT0_
	.weak_definition __ZSt10_ConstructI9cache_setJRKS0_EEvPT_DpOT0_
__ZSt10_ConstructI9cache_setJRKS0_EEvPT_DpOT0_:
LFB5307:
	stp	x29, x30, [sp, -64]!
LCFI584:
	mov	x29, sp
	stp	x19, x20, [sp, 16]
	str	x21, [sp, 32]
LCFI585:
	str	x0, [sp, 56]
	str	x1, [sp, 48]
	ldr	x0, [sp, 48]
	bl	__ZSt7forwardIRK9cache_setEOT_RNSt16remove_referenceIS3_E4typeE
	mov	x21, x0
	ldr	x19, [sp, 56]
	mov	x1, x19
	mov	x0, 112
	bl	__ZnwmPv
	mov	x20, x0
	mov	x1, x21
	mov	x0, x20
LEHB60:
	bl	__ZN9cache_setC1ERKS_
LEHE60:
	b	L614
L613:
	mov	x21, x0
	mov	x1, x19
	mov	x0, x20
	bl	__ZdlPvS_
	mov	x0, x21
LEHB61:
	bl	__Unwind_Resume
LEHE61:
L614:
	ldp	x19, x20, [sp, 16]
	ldr	x21, [sp, 32]
	ldp	x29, x30, [sp], 64
LCFI586:
	ret
LFE5307:
	.section __DATA,__gcc_except_tab
_GCC_except_table28:
LLSDA5307:
	.byte	0xff
	.byte	0xff
	.byte	0x1
	.uleb128 LLSDACSE5307-LLSDACSB5307
LLSDACSB5307:
	.uleb128 LEHB60-LFB5307
	.uleb128 LEHE60-LEHB60
	.uleb128 L613-LFB5307
	.uleb128 0
	.uleb128 LEHB61-LFB5307
	.uleb128 LEHE61-LEHB61
	.uleb128 0
	.uleb128 0
LLSDACSE5307:
	.text
	.align	2
	.globl __ZNSt8__detail15_Hashtable_baseIiSt4pairIKiiENS_10_Select1stESt8equal_toIiESt4hashIiENS_18_Mod_range_hashingENS_20_Default_ranged_hashENS_17_Hashtable_traitsILb0ELb0ELb1EEEE9_S_equalsEmRKNS_21_Hash_node_code_cacheILb0EEE
	.weak_definition __ZNSt8__detail15_Hashtable_baseIiSt4pairIKiiENS_10_Select1stESt8equal_toIiESt4hashIiENS_18_Mod_range_hashingENS_20_Default_ranged_hashENS_17_Hashtable_traitsILb0ELb0ELb1EEEE9_S_equalsEmRKNS_21_Hash_node_code_cacheILb0EEE
__ZNSt8__detail15_Hashtable_baseIiSt4pairIKiiENS_10_Select1stESt8equal_toIiESt4hashIiENS_18_Mod_range_hashingENS_20_Default_ranged_hashENS_17_Hashtable_traitsILb0ELb0ELb1EEEE9_S_equalsEmRKNS_21_Hash_node_code_cacheILb0EEE:
LFB5314:
	sub	sp, sp, #16
LCFI587:
	str	x0, [sp, 8]
	str	x1, [sp]
	mov	w0, 1
	add	sp, sp, 16
LCFI588:
	ret
LFE5314:
	.align	2
	.globl __ZNKSt8__detail15_Hashtable_baseIiSt4pairIKiiENS_10_Select1stESt8equal_toIiESt4hashIiENS_18_Mod_range_hashingENS_20_Default_ranged_hashENS_17_Hashtable_traitsILb0ELb0ELb1EEEE5_M_eqEv
	.weak_definition __ZNKSt8__detail15_Hashtable_baseIiSt4pairIKiiENS_10_Select1stESt8equal_toIiESt4hashIiENS_18_Mod_range_hashingENS_20_Default_ranged_hashENS_17_Hashtable_traitsILb0ELb0ELb1EEEE5_M_eqEv
__ZNKSt8__detail15_Hashtable_baseIiSt4pairIKiiENS_10_Select1stESt8equal_toIiESt4hashIiENS_18_Mod_range_hashingENS_20_Default_ranged_hashENS_17_Hashtable_traitsILb0ELb0ELb1EEEE5_M_eqEv:
LFB5315:
	stp	x29, x30, [sp, -32]!
LCFI589:
	mov	x29, sp
	str	x0, [sp, 24]
	ldr	x0, [sp, 24]
	bl	__ZNKSt8__detail21_Hashtable_ebo_helperILi0ESt8equal_toIiELb1EE7_M_cgetEv
	ldp	x29, x30, [sp], 32
LCFI590:
	ret
LFE5315:
	.align	2
	.globl __ZNKSt8__detail21_Hash_node_value_baseISt4pairIKiiEE4_M_vEv
	.weak_definition __ZNKSt8__detail21_Hash_node_value_baseISt4pairIKiiEE4_M_vEv
__ZNKSt8__detail21_Hash_node_value_baseISt4pairIKiiEE4_M_vEv:
LFB5316:
	stp	x29, x30, [sp, -32]!
LCFI591:
	mov	x29, sp
	str	x0, [sp, 24]
	ldr	x0, [sp, 24]
	bl	__ZNKSt8__detail21_Hash_node_value_baseISt4pairIKiiEE9_M_valptrEv
	ldp	x29, x30, [sp], 32
LCFI592:
	ret
LFE5316:
	.align	2
	.globl __ZNKSt8__detail10_Select1stclIRKSt4pairIKiiEEEDTcl3getILi0EEcl7forwardIT_Efp_EEEOS7_
	.weak_definition __ZNKSt8__detail10_Select1stclIRKSt4pairIKiiEEEDTcl3getILi0EEcl7forwardIT_Efp_EEEOS7_
__ZNKSt8__detail10_Select1stclIRKSt4pairIKiiEEEDTcl3getILi0EEcl7forwardIT_Efp_EEEOS7_:
LFB5317:
	stp	x29, x30, [sp, -32]!
LCFI593:
	mov	x29, sp
	str	x0, [sp, 24]
	str	x1, [sp, 16]
	ldr	x0, [sp, 16]
	bl	__ZSt7forwardIRKSt4pairIKiiEEOT_RNSt16remove_referenceIS5_E4typeE
	bl	__ZSt3getILm0EKiiERKNSt13tuple_elementIXT_ESt4pairIT0_T1_EE4typeERKS5_
	ldp	x29, x30, [sp], 32
LCFI594:
	ret
LFE5317:
	.align	2
	.globl __ZNKSt8equal_toIiEclERKiS2_
	.weak_definition __ZNKSt8equal_toIiEclERKiS2_
__ZNKSt8equal_toIiEclERKiS2_:
LFB5318:
	sub	sp, sp, #32
LCFI595:
	str	x0, [sp, 24]
	str	x1, [sp, 16]
	str	x2, [sp, 8]
	ldr	x0, [sp, 16]
	ldr	w1, [x0]
	ldr	x0, [sp, 8]
	ldr	w0, [x0]
	cmp	w1, w0
	cset	w0, eq
	and	w0, w0, 255
	add	sp, sp, 32
LCFI596:
	ret
LFE5318:
	.align	2
	.globl __ZNK9__gnu_cxx13new_allocatorISt10_List_nodeIiEE11_M_max_sizeEv
	.weak_definition __ZNK9__gnu_cxx13new_allocatorISt10_List_nodeIiEE11_M_max_sizeEv
__ZNK9__gnu_cxx13new_allocatorISt10_List_nodeIiEE11_M_max_sizeEv:
LFB5320:
	sub	sp, sp, #16
LCFI597:
	str	x0, [sp, 8]
	mov	x0, 6148914691236517205
	movk	x0, 0x555, lsl 48
	add	sp, sp, 16
LCFI598:
	ret
LFE5320:
	.align	2
	.globl __ZN9__gnu_cxx13new_allocatorISt10_List_nodeIiEE8allocateEmPKv
	.weak_definition __ZN9__gnu_cxx13new_allocatorISt10_List_nodeIiEE8allocateEmPKv
__ZN9__gnu_cxx13new_allocatorISt10_List_nodeIiEE8allocateEmPKv:
LFB5319:
	stp	x29, x30, [sp, -48]!
LCFI599:
	mov	x29, sp
	str	x0, [sp, 40]
	str	x1, [sp, 32]
	str	x2, [sp, 24]
	ldr	x0, [sp, 40]
	bl	__ZNK9__gnu_cxx13new_allocatorISt10_List_nodeIiEE11_M_max_sizeEv
	mov	x1, x0
	ldr	x0, [sp, 32]
	cmp	x0, x1
	cset	w0, hi
	and	w0, w0, 255
	and	x0, x0, 255
	cmp	x0, 0
	cset	w0, ne
	and	w0, w0, 255
	cmp	w0, 0
	beq	L628
	ldr	x1, [sp, 32]
	mov	x0, -6148914691236517206
	movk	x0, 0xaaa, lsl 48
	cmp	x1, x0
	bls	L629
	bl	__ZSt28__throw_bad_array_new_lengthv
L629:
	bl	__ZSt17__throw_bad_allocv
L628:
	ldr	x1, [sp, 32]
	mov	x0, x1
	lsl	x0, x0, 1
	add	x0, x0, x1
	lsl	x0, x0, 3
	bl	__Znwm
	nop
	ldp	x29, x30, [sp], 48
LCFI600:
	ret
LFE5319:
	.align	2
	.globl __ZNSt16allocator_traitsISaINSt8__detail10_Hash_nodeISt4pairIKiiELb0EEEEE8allocateERS6_m
	.weak_definition __ZNSt16allocator_traitsISaINSt8__detail10_Hash_nodeISt4pairIKiiELb0EEEEE8allocateERS6_m
__ZNSt16allocator_traitsISaINSt8__detail10_Hash_nodeISt4pairIKiiELb0EEEEE8allocateERS6_m:
LFB5321:
	stp	x29, x30, [sp, -32]!
LCFI601:
	mov	x29, sp
	str	x0, [sp, 24]
	str	x1, [sp, 16]
	mov	x2, 0
	ldr	x1, [sp, 16]
	ldr	x0, [sp, 24]
	bl	__ZN9__gnu_cxx13new_allocatorINSt8__detail10_Hash_nodeISt4pairIKiiELb0EEEE8allocateEmPKv
	ldp	x29, x30, [sp], 32
LCFI602:
	ret
LFE5321:
	.align	2
	.globl __ZSt12__to_addressINSt8__detail10_Hash_nodeISt4pairIKiiELb0EEEEPT_S7_
	.weak_definition __ZSt12__to_addressINSt8__detail10_Hash_nodeISt4pairIKiiELb0EEEEPT_S7_
__ZSt12__to_addressINSt8__detail10_Hash_nodeISt4pairIKiiELb0EEEEPT_S7_:
LFB5322:
	sub	sp, sp, #16
LCFI603:
	str	x0, [sp, 8]
	ldr	x0, [sp, 8]
	add	sp, sp, 16
LCFI604:
	ret
LFE5322:
	.align	2
	.globl __ZNSt16allocator_traitsISaINSt8__detail10_Hash_nodeISt4pairIKiiELb0EEEEE9constructIS4_JS2_IiiEEEEvRS6_PT_DpOT0_
	.weak_definition __ZNSt16allocator_traitsISaINSt8__detail10_Hash_nodeISt4pairIKiiELb0EEEEE9constructIS4_JS2_IiiEEEEvRS6_PT_DpOT0_
__ZNSt16allocator_traitsISaINSt8__detail10_Hash_nodeISt4pairIKiiELb0EEEEE9constructIS4_JS2_IiiEEEEvRS6_PT_DpOT0_:
LFB5323:
	stp	x29, x30, [sp, -48]!
LCFI605:
	mov	x29, sp
	str	x0, [sp, 40]
	str	x1, [sp, 32]
	str	x2, [sp, 24]
	ldr	x0, [sp, 24]
	bl	__ZSt7forwardISt4pairIiiEEOT_RNSt16remove_referenceIS2_E4typeE
	mov	x2, x0
	ldr	x1, [sp, 32]
	ldr	x0, [sp, 40]
	bl	__ZN9__gnu_cxx13new_allocatorINSt8__detail10_Hash_nodeISt4pairIKiiELb0EEEE9constructIS5_JS3_IiiEEEEvPT_DpOT0_
	nop
	ldp	x29, x30, [sp], 48
LCFI606:
	ret
LFE5323:
	.align	2
	.globl __ZNSt10__pair_getILm0EE5__getIKiiEERT_RSt4pairIS3_T0_E
	.weak_definition __ZNSt10__pair_getILm0EE5__getIKiiEERT_RSt4pairIS3_T0_E
__ZNSt10__pair_getILm0EE5__getIKiiEERT_RSt4pairIS3_T0_E:
LFB5324:
	sub	sp, sp, #16
LCFI607:
	str	x0, [sp, 8]
	ldr	x0, [sp, 8]
	add	sp, sp, 16
LCFI608:
	ret
LFE5324:
	.align	2
	.globl __ZNSt10_HashtableIiSt4pairIKiiESaIS2_ENSt8__detail10_Select1stESt8equal_toIiESt4hashIiENS4_18_Mod_range_hashingENS4_20_Default_ranged_hashENS4_20_Prime_rehash_policyENS4_17_Hashtable_traitsILb0ELb0ELb1EEEE13_M_rehash_auxEmSt17integral_constantIbLb1EE
	.weak_definition __ZNSt10_HashtableIiSt4pairIKiiESaIS2_ENSt8__detail10_Select1stESt8equal_toIiESt4hashIiENS4_18_Mod_range_hashingENS4_20_Default_ranged_hashENS4_20_Prime_rehash_policyENS4_17_Hashtable_traitsILb0ELb0ELb1EEEE13_M_rehash_auxEmSt17integral_constantIbLb1EE
__ZNSt10_HashtableIiSt4pairIKiiESaIS2_ENSt8__detail10_Select1stESt8equal_toIiESt4hashIiENS4_18_Mod_range_hashingENS4_20_Default_ranged_hashENS4_20_Prime_rehash_policyENS4_17_Hashtable_traitsILb0ELb0ELb1EEEE13_M_rehash_auxEmSt17integral_constantIbLb1EE:
LFB5325:
	stp	x29, x30, [sp, -96]!
LCFI609:
	mov	x29, sp
	str	x0, [sp, 40]
	str	x1, [sp, 32]
	strb	w2, [sp, 24]
	ldr	x1, [sp, 32]
	ldr	x0, [sp, 40]
	bl	__ZNSt10_HashtableIiSt4pairIKiiESaIS2_ENSt8__detail10_Select1stESt8equal_toIiESt4hashIiENS4_18_Mod_range_hashingENS4_20_Default_ranged_hashENS4_20_Prime_rehash_policyENS4_17_Hashtable_traitsILb0ELb0ELb1EEEE19_M_allocate_bucketsEm
	str	x0, [sp, 72]
	ldr	x0, [sp, 40]
	bl	__ZNKSt10_HashtableIiSt4pairIKiiESaIS2_ENSt8__detail10_Select1stESt8equal_toIiESt4hashIiENS4_18_Mod_range_hashingENS4_20_Default_ranged_hashENS4_20_Prime_rehash_policyENS4_17_Hashtable_traitsILb0ELb0ELb1EEEE8_M_beginEv
	str	x0, [sp, 88]
	ldr	x0, [sp, 40]
	str	xzr, [x0, 16]
	str	xzr, [sp, 80]
	b	L639
L643:
	ldr	x0, [sp, 88]
	bl	__ZNKSt8__detail10_Hash_nodeISt4pairIKiiELb0EE7_M_nextEv
	str	x0, [sp, 64]
	ldr	x0, [sp, 88]
	add	x0, x0, 8
	ldr	x2, [sp, 32]
	mov	x1, x0
	ldr	x0, [sp, 40]
	bl	__ZNKSt8__detail15_Hash_code_baseIiSt4pairIKiiENS_10_Select1stESt4hashIiENS_18_Mod_range_hashingENS_20_Default_ranged_hashELb0EE15_M_bucket_indexERKNS_16_Hash_node_valueIS3_Lb0EEEm
	str	x0, [sp, 56]
	ldr	x0, [sp, 56]
	lsl	x0, x0, 3
	ldr	x1, [sp, 72]
	add	x0, x1, x0
	ldr	x0, [x0]
	cmp	x0, 0
	bne	L640
	ldr	x0, [sp, 40]
	ldr	x1, [x0, 16]
	ldr	x0, [sp, 88]
	str	x1, [x0]
	ldr	x0, [sp, 40]
	ldr	x1, [sp, 88]
	str	x1, [x0, 16]
	ldr	x0, [sp, 56]
	lsl	x0, x0, 3
	ldr	x1, [sp, 72]
	add	x0, x1, x0
	ldr	x1, [sp, 40]
	add	x1, x1, 16
	str	x1, [x0]
	ldr	x0, [sp, 88]
	ldr	x0, [x0]
	cmp	x0, 0
	beq	L641
	ldr	x0, [sp, 80]
	lsl	x0, x0, 3
	ldr	x1, [sp, 72]
	add	x0, x1, x0
	ldr	x1, [sp, 88]
	str	x1, [x0]
L641:
	ldr	x0, [sp, 56]
	str	x0, [sp, 80]
	b	L642
L640:
	ldr	x0, [sp, 56]
	lsl	x0, x0, 3
	ldr	x1, [sp, 72]
	add	x0, x1, x0
	ldr	x0, [x0]
	ldr	x1, [x0]
	ldr	x0, [sp, 88]
	str	x1, [x0]
	ldr	x0, [sp, 56]
	lsl	x0, x0, 3
	ldr	x1, [sp, 72]
	add	x0, x1, x0
	ldr	x0, [x0]
	ldr	x1, [sp, 88]
	str	x1, [x0]
L642:
	ldr	x0, [sp, 64]
	str	x0, [sp, 88]
L639:
	ldr	x0, [sp, 88]
	cmp	x0, 0
	bne	L643
	ldr	x0, [sp, 40]
	bl	__ZNSt10_HashtableIiSt4pairIKiiESaIS2_ENSt8__detail10_Select1stESt8equal_toIiESt4hashIiENS4_18_Mod_range_hashingENS4_20_Default_ranged_hashENS4_20_Prime_rehash_policyENS4_17_Hashtable_traitsILb0ELb0ELb1EEEE21_M_deallocate_bucketsEv
	ldr	x0, [sp, 40]
	ldr	x1, [sp, 32]
	str	x1, [x0, 8]
	ldr	x0, [sp, 40]
	ldr	x1, [sp, 72]
	str	x1, [x0]
	nop
	ldp	x29, x30, [sp], 96
LCFI610:
	ret
LFE5325:
	.align	2
	.globl __ZSt7forwardIRK5blockEOT_RNSt16remove_referenceIS3_E4typeE
	.weak_definition __ZSt7forwardIRK5blockEOT_RNSt16remove_referenceIS3_E4typeE
__ZSt7forwardIRK5blockEOT_RNSt16remove_referenceIS3_E4typeE:
LFB5338:
	sub	sp, sp, #16
LCFI611:
	str	x0, [sp, 8]
	ldr	x0, [sp, 8]
	add	sp, sp, 16
LCFI612:
	ret
LFE5338:
	.align	2
	.globl __ZSt9addressofINSt8__detail10_Hash_nodeISt4pairIKiiELb0EEEEPT_RS6_
	.weak_definition __ZSt9addressofINSt8__detail10_Hash_nodeISt4pairIKiiELb0EEEEPT_RS6_
__ZSt9addressofINSt8__detail10_Hash_nodeISt4pairIKiiELb0EEEEPT_RS6_:
LFB5339:
	stp	x29, x30, [sp, -32]!
LCFI613:
	mov	x29, sp
	str	x0, [sp, 24]
	ldr	x0, [sp, 24]
	bl	__ZSt11__addressofINSt8__detail10_Hash_nodeISt4pairIKiiELb0EEEEPT_RS6_
	ldp	x29, x30, [sp], 32
LCFI614:
	ret
LFE5339:
	.align	2
	.globl __ZN9__gnu_cxx13new_allocatorINSt8__detail10_Hash_nodeISt4pairIKiiELb0EEEE10deallocateEPS6_m
	.weak_definition __ZN9__gnu_cxx13new_allocatorINSt8__detail10_Hash_nodeISt4pairIKiiELb0EEEE10deallocateEPS6_m
__ZN9__gnu_cxx13new_allocatorINSt8__detail10_Hash_nodeISt4pairIKiiELb0EEEE10deallocateEPS6_m:
LFB5340:
	stp	x29, x30, [sp, -48]!
LCFI615:
	mov	x29, sp
	str	x0, [sp, 40]
	str	x1, [sp, 32]
	str	x2, [sp, 24]
	ldr	x0, [sp, 24]
	lsl	x0, x0, 4
	mov	x1, x0
	ldr	x0, [sp, 32]
	bl	__ZdlPvm
	ldp	x29, x30, [sp], 48
LCFI616:
	ret
LFE5340:
	.align	2
	.globl __ZSt11__addressofIPNSt8__detail15_Hash_node_baseEEPT_RS3_
	.weak_definition __ZSt11__addressofIPNSt8__detail15_Hash_node_baseEEPT_RS3_
__ZSt11__addressofIPNSt8__detail15_Hash_node_baseEEPT_RS3_:
LFB5341:
	sub	sp, sp, #16
LCFI617:
	str	x0, [sp, 8]
	ldr	x0, [sp, 8]
	add	sp, sp, 16
LCFI618:
	ret
LFE5341:
	.align	2
	.globl __ZSt7forwardIRK9cache_setEOT_RNSt16remove_referenceIS3_E4typeE
	.weak_definition __ZSt7forwardIRK9cache_setEOT_RNSt16remove_referenceIS3_E4typeE
__ZSt7forwardIRK9cache_setEOT_RNSt16remove_referenceIS3_E4typeE:
LFB5342:
	sub	sp, sp, #16
LCFI619:
	str	x0, [sp, 8]
	ldr	x0, [sp, 8]
	add	sp, sp, 16
LCFI620:
	ret
LFE5342:
	.align	2
	.globl __ZNSt6vectorI5blockSaIS0_EEC1ERKS2_
	.weak_definition __ZNSt6vectorI5blockSaIS0_EEC1ERKS2_
__ZNSt6vectorI5blockSaIS0_EEC1ERKS2_:
LFB5345:
	stp	x29, x30, [sp, -80]!
LCFI621:
	mov	x29, sp
	stp	x19, x20, [sp, 16]
	str	x21, [sp, 32]
LCFI622:
	str	x0, [sp, 56]
	str	x1, [sp, 48]
	ldr	x19, [sp, 56]
	ldr	x0, [sp, 48]
	bl	__ZNKSt6vectorI5blockSaIS0_EE4sizeEv
	mov	x20, x0
	ldr	x0, [sp, 48]
	bl	__ZNKSt12_Vector_baseI5blockSaIS0_EE19_M_get_Tp_allocatorEv
	mov	x1, x0
	add	x0, sp, 72
	mov	x8, x0
	mov	x0, x1
LEHB62:
	bl	__ZN9__gnu_cxx14__alloc_traitsISaI5blockES1_E17_S_select_on_copyERKS2_
LEHE62:
	add	x0, sp, 72
	mov	x2, x0
	mov	x1, x20
	mov	x0, x19
LEHB63:
	bl	__ZNSt12_Vector_baseI5blockSaIS0_EEC2EmRKS1_
LEHE63:
	add	x0, sp, 72
	bl	__ZNSaI5blockED1Ev
	ldr	x0, [sp, 48]
	bl	__ZNKSt6vectorI5blockSaIS0_EE5beginEv
	mov	x20, x0
	ldr	x0, [sp, 48]
	bl	__ZNKSt6vectorI5blockSaIS0_EE3endEv
	mov	x21, x0
	ldr	x0, [sp, 56]
	ldr	x19, [x0]
	ldr	x0, [sp, 56]
	bl	__ZNSt12_Vector_baseI5blockSaIS0_EE19_M_get_Tp_allocatorEv
	mov	x3, x0
	mov	x2, x19
	mov	x1, x21
	mov	x0, x20
LEHB64:
	bl	__ZSt22__uninitialized_copy_aIN9__gnu_cxx17__normal_iteratorIPK5blockSt6vectorIS2_SaIS2_EEEEPS2_S2_ET0_T_SB_SA_RSaIT1_E
LEHE64:
	mov	x1, x0
	ldr	x0, [sp, 56]
	str	x1, [x0, 8]
	b	L659
L657:
	mov	x19, x0
	add	x0, sp, 72
	bl	__ZNSaI5blockED1Ev
	mov	x0, x19
LEHB65:
	bl	__Unwind_Resume
L658:
	mov	x19, x0
	ldr	x0, [sp, 56]
	bl	__ZNSt12_Vector_baseI5blockSaIS0_EED2Ev
	mov	x0, x19
	bl	__Unwind_Resume
LEHE65:
L659:
	ldp	x19, x20, [sp, 16]
	ldr	x21, [sp, 32]
	ldp	x29, x30, [sp], 80
LCFI623:
	ret
LFE5345:
	.section __DATA,__gcc_except_tab
_GCC_except_table29:
LLSDA5345:
	.byte	0xff
	.byte	0xff
	.byte	0x1
	.uleb128 LLSDACSE5345-LLSDACSB5345
LLSDACSB5345:
	.uleb128 LEHB62-LFB5345
	.uleb128 LEHE62-LEHB62
	.uleb128 0
	.uleb128 0
	.uleb128 LEHB63-LFB5345
	.uleb128 LEHE63-LEHB63
	.uleb128 L657-LFB5345
	.uleb128 0
	.uleb128 LEHB64-LFB5345
	.uleb128 LEHE64-LEHB64
	.uleb128 L658-LFB5345
	.uleb128 0
	.uleb128 LEHB65-LFB5345
	.uleb128 LEHE65-LEHB65
	.uleb128 0
	.uleb128 0
LLSDACSE5345:
	.text
	.align	2
	.globl __ZNSt10_HashtableIiSt4pairIKiiESaIS2_ENSt8__detail10_Select1stESt8equal_toIiESt4hashIiENS4_18_Mod_range_hashingENS4_20_Default_ranged_hashENS4_20_Prime_rehash_policyENS4_17_Hashtable_traitsILb0ELb0ELb1EEEEC1ERKSF_
	.weak_definition __ZNSt10_HashtableIiSt4pairIKiiESaIS2_ENSt8__detail10_Select1stESt8equal_toIiESt4hashIiENS4_18_Mod_range_hashingENS4_20_Default_ranged_hashENS4_20_Prime_rehash_policyENS4_17_Hashtable_traitsILb0ELb0ELb1EEEEC1ERKSF_
__ZNSt10_HashtableIiSt4pairIKiiESaIS2_ENSt8__detail10_Select1stESt8equal_toIiESt4hashIiENS4_18_Mod_range_hashingENS4_20_Default_ranged_hashENS4_20_Prime_rehash_policyENS4_17_Hashtable_traitsILb0ELb0ELb1EEEEC1ERKSF_:
LFB5348:
	stp	x29, x30, [sp, -64]!
LCFI624:
	mov	x29, sp
	str	x19, [sp, 16]
LCFI625:
	str	x0, [sp, 40]
	str	x1, [sp, 32]
	ldr	x0, [sp, 32]
LEHB66:
	bl	__ZNKSt8__detail16_Hashtable_allocISaINS_10_Hash_nodeISt4pairIKiiELb0EEEEE17_M_node_allocatorEv
	mov	x1, x0
	add	x0, sp, 56
	mov	x8, x0
	mov	x0, x1
	bl	__ZN9__gnu_cxx14__alloc_traitsISaINSt8__detail10_Hash_nodeISt4pairIKiiELb0EEEES6_E17_S_select_on_copyERKS7_
LEHE66:
	add	x0, sp, 56
	mov	x1, x0
	ldr	x0, [sp, 40]
LEHB67:
	bl	__ZNSt8__detail16_Hashtable_allocISaINS_10_Hash_nodeISt4pairIKiiELb0EEEEEC2IS6_EEOT_
LEHE67:
	add	x0, sp, 56
	bl	__ZNSaINSt8__detail10_Hash_nodeISt4pairIKiiELb0EEEED1Ev
	ldr	x0, [sp, 40]
	str	xzr, [x0]
	ldr	x0, [sp, 32]
	ldr	x1, [x0, 8]
	ldr	x0, [sp, 40]
	str	x1, [x0, 8]
	ldr	x0, [sp, 40]
	add	x0, x0, 16
	bl	__ZNSt8__detail15_Hash_node_baseC1Ev
	ldr	x0, [sp, 32]
	ldr	x1, [x0, 24]
	ldr	x0, [sp, 40]
	str	x1, [x0, 24]
	ldr	x2, [sp, 40]
	ldr	x0, [sp, 32]
	ldp	x0, x1, [x0, 32]
	stp	x0, x1, [x2, 32]
	ldr	x0, [sp, 40]
	str	xzr, [x0, 48]
	add	x0, sp, 48
	ldr	x1, [sp, 40]
	bl	__ZNSt8__detail10_AllocNodeISaINS_10_Hash_nodeISt4pairIKiiELb0EEEEEC1ERNS_16_Hashtable_allocIS6_EE
	add	x0, sp, 48
	mov	x2, x0
	ldr	x1, [sp, 32]
	ldr	x0, [sp, 40]
LEHB68:
	bl	__ZNSt10_HashtableIiSt4pairIKiiESaIS2_ENSt8__detail10_Select1stESt8equal_toIiESt4hashIiENS4_18_Mod_range_hashingENS4_20_Default_ranged_hashENS4_20_Prime_rehash_policyENS4_17_Hashtable_traitsILb0ELb0ELb1EEEE9_M_assignIRKSF_NS4_10_AllocNodeISaINS4_10_Hash_nodeIS2_Lb0EEEEEEEEvOT_RKT0_
LEHE68:
	b	L665
L663:
	mov	x19, x0
	add	x0, sp, 56
	bl	__ZNSaINSt8__detail10_Hash_nodeISt4pairIKiiELb0EEEED1Ev
	mov	x0, x19
LEHB69:
	bl	__Unwind_Resume
L664:
	mov	x19, x0
	ldr	x0, [sp, 40]
	bl	__ZNSt8__detail16_Hashtable_allocISaINS_10_Hash_nodeISt4pairIKiiELb0EEEEED2Ev
	mov	x0, x19
	bl	__Unwind_Resume
LEHE69:
L665:
	ldr	x19, [sp, 16]
	ldp	x29, x30, [sp], 64
LCFI626:
	ret
LFE5348:
	.section __DATA,__gcc_except_tab
_GCC_except_table30:
LLSDA5348:
	.byte	0xff
	.byte	0xff
	.byte	0x1
	.uleb128 LLSDACSE5348-LLSDACSB5348
LLSDACSB5348:
	.uleb128 LEHB66-LFB5348
	.uleb128 LEHE66-LEHB66
	.uleb128 0
	.uleb128 0
	.uleb128 LEHB67-LFB5348
	.uleb128 LEHE67-LEHB67
	.uleb128 L663-LFB5348
	.uleb128 0
	.uleb128 LEHB68-LFB5348
	.uleb128 LEHE68-LEHB68
	.uleb128 L664-LFB5348
	.uleb128 0
	.uleb128 LEHB69-LFB5348
	.uleb128 LEHE69-LEHB69
	.uleb128 0
	.uleb128 0
LLSDACSE5348:
	.text
	.align	2
	.globl __ZNSt7__cxx114listIiSaIiEEC1ERKS2_
	.weak_definition __ZNSt7__cxx114listIiSaIiEEC1ERKS2_
__ZNSt7__cxx114listIiSaIiEEC1ERKS2_:
LFB5351:
	stp	x29, x30, [sp, -64]!
LCFI627:
	mov	x29, sp
	stp	x19, x20, [sp, 16]
LCFI628:
	str	x0, [sp, 40]
	str	x1, [sp, 32]
	ldr	x19, [sp, 40]
	ldr	x0, [sp, 32]
	bl	__ZNKSt7__cxx1110_List_baseIiSaIiEE21_M_get_Node_allocatorEv
	mov	x1, x0
	add	x0, sp, 56
	mov	x8, x0
	mov	x0, x1
LEHB70:
	bl	__ZN9__gnu_cxx14__alloc_traitsISaISt10_List_nodeIiEES2_E17_S_select_on_copyERKS3_
LEHE70:
	add	x0, sp, 56
	mov	x1, x0
	mov	x0, x19
	bl	__ZNSt7__cxx1110_List_baseIiSaIiEEC2EOSaISt10_List_nodeIiEE
	add	x0, sp, 56
	bl	__ZNSaISt10_List_nodeIiEED1Ev
	ldr	x0, [sp, 32]
	bl	__ZNKSt7__cxx114listIiSaIiEE5beginEv
	mov	x19, x0
	ldr	x0, [sp, 32]
	bl	__ZNKSt7__cxx114listIiSaIiEE3endEv
	mov	w3, w20
	mov	x2, x0
	mov	x1, x19
	ldr	x0, [sp, 40]
LEHB71:
	bl	__ZNSt7__cxx114listIiSaIiEE22_M_initialize_dispatchISt20_List_const_iteratorIiEEEvT_S6_St12__false_type
LEHE71:
	b	L669
L668:
	mov	x19, x0
	ldr	x0, [sp, 40]
	bl	__ZNSt7__cxx1110_List_baseIiSaIiEED2Ev
	mov	x0, x19
LEHB72:
	bl	__Unwind_Resume
LEHE72:
L669:
	ldp	x19, x20, [sp, 16]
	ldp	x29, x30, [sp], 64
LCFI629:
	ret
LFE5351:
	.section __DATA,__gcc_except_tab
_GCC_except_table31:
LLSDA5351:
	.byte	0xff
	.byte	0xff
	.byte	0x1
	.uleb128 LLSDACSE5351-LLSDACSB5351
LLSDACSB5351:
	.uleb128 LEHB70-LFB5351
	.uleb128 LEHE70-LEHB70
	.uleb128 0
	.uleb128 0
	.uleb128 LEHB71-LFB5351
	.uleb128 LEHE71-LEHB71
	.uleb128 L668-LFB5351
	.uleb128 0
	.uleb128 LEHB72-LFB5351
	.uleb128 LEHE72-LEHB72
	.uleb128 0
	.uleb128 0
LLSDACSE5351:
	.text
	.align	2
	.globl __ZNKSt8__detail21_Hashtable_ebo_helperILi0ESt8equal_toIiELb1EE7_M_cgetEv
	.weak_definition __ZNKSt8__detail21_Hashtable_ebo_helperILi0ESt8equal_toIiELb1EE7_M_cgetEv
__ZNKSt8__detail21_Hashtable_ebo_helperILi0ESt8equal_toIiELb1EE7_M_cgetEv:
LFB5352:
	sub	sp, sp, #16
LCFI630:
	str	x0, [sp, 8]
	ldr	x0, [sp, 8]
	add	sp, sp, 16
LCFI631:
	ret
LFE5352:
	.align	2
	.globl __ZNKSt8__detail21_Hash_node_value_baseISt4pairIKiiEE9_M_valptrEv
	.weak_definition __ZNKSt8__detail21_Hash_node_value_baseISt4pairIKiiEE9_M_valptrEv
__ZNKSt8__detail21_Hash_node_value_baseISt4pairIKiiEE9_M_valptrEv:
LFB5353:
	stp	x29, x30, [sp, -32]!
LCFI632:
	mov	x29, sp
	str	x0, [sp, 24]
	ldr	x0, [sp, 24]
	bl	__ZNK9__gnu_cxx16__aligned_bufferISt4pairIKiiEE6_M_ptrEv
	ldp	x29, x30, [sp], 32
LCFI633:
	ret
LFE5353:
	.align	2
	.globl __ZSt7forwardIRKSt4pairIKiiEEOT_RNSt16remove_referenceIS5_E4typeE
	.weak_definition __ZSt7forwardIRKSt4pairIKiiEEOT_RNSt16remove_referenceIS5_E4typeE
__ZSt7forwardIRKSt4pairIKiiEEOT_RNSt16remove_referenceIS5_E4typeE:
LFB5354:
	sub	sp, sp, #16
LCFI634:
	str	x0, [sp, 8]
	ldr	x0, [sp, 8]
	add	sp, sp, 16
LCFI635:
	ret
LFE5354:
	.align	2
	.globl __ZSt3getILm0EKiiERKNSt13tuple_elementIXT_ESt4pairIT0_T1_EE4typeERKS5_
	.weak_definition __ZSt3getILm0EKiiERKNSt13tuple_elementIXT_ESt4pairIT0_T1_EE4typeERKS5_
__ZSt3getILm0EKiiERKNSt13tuple_elementIXT_ESt4pairIT0_T1_EE4typeERKS5_:
LFB5355:
	stp	x29, x30, [sp, -32]!
LCFI636:
	mov	x29, sp
	str	x0, [sp, 24]
	ldr	x0, [sp, 24]
	bl	__ZNSt10__pair_getILm0EE11__const_getIKiiEERKT_RKSt4pairIS3_T0_E
	ldp	x29, x30, [sp], 32
LCFI637:
	ret
LFE5355:
	.align	2
	.globl __ZNK9__gnu_cxx13new_allocatorINSt8__detail10_Hash_nodeISt4pairIKiiELb0EEEE11_M_max_sizeEv
	.weak_definition __ZNK9__gnu_cxx13new_allocatorINSt8__detail10_Hash_nodeISt4pairIKiiELb0EEEE11_M_max_sizeEv
__ZNK9__gnu_cxx13new_allocatorINSt8__detail10_Hash_nodeISt4pairIKiiELb0EEEE11_M_max_sizeEv:
LFB5357:
	sub	sp, sp, #16
LCFI638:
	str	x0, [sp, 8]
	mov	x0, 576460752303423487
	add	sp, sp, 16
LCFI639:
	ret
LFE5357:
	.align	2
	.globl __ZN9__gnu_cxx13new_allocatorINSt8__detail10_Hash_nodeISt4pairIKiiELb0EEEE8allocateEmPKv
	.weak_definition __ZN9__gnu_cxx13new_allocatorINSt8__detail10_Hash_nodeISt4pairIKiiELb0EEEE8allocateEmPKv
__ZN9__gnu_cxx13new_allocatorINSt8__detail10_Hash_nodeISt4pairIKiiELb0EEEE8allocateEmPKv:
LFB5356:
	stp	x29, x30, [sp, -48]!
LCFI640:
	mov	x29, sp
	str	x0, [sp, 40]
	str	x1, [sp, 32]
	str	x2, [sp, 24]
	ldr	x0, [sp, 40]
	bl	__ZNK9__gnu_cxx13new_allocatorINSt8__detail10_Hash_nodeISt4pairIKiiELb0EEEE11_M_max_sizeEv
	mov	x1, x0
	ldr	x0, [sp, 32]
	cmp	x0, x1
	cset	w0, hi
	and	w0, w0, 255
	and	x0, x0, 255
	cmp	x0, 0
	cset	w0, ne
	and	w0, w0, 255
	cmp	w0, 0
	beq	L681
	ldr	x1, [sp, 32]
	mov	x0, 1152921504606846975
	cmp	x1, x0
	bls	L682
	bl	__ZSt28__throw_bad_array_new_lengthv
L682:
	bl	__ZSt17__throw_bad_allocv
L681:
	ldr	x0, [sp, 32]
	lsl	x0, x0, 4
	bl	__Znwm
	nop
	ldp	x29, x30, [sp], 48
LCFI641:
	ret
LFE5356:
	.align	2
	.globl __ZN9__gnu_cxx13new_allocatorINSt8__detail10_Hash_nodeISt4pairIKiiELb0EEEE9constructIS5_JS3_IiiEEEEvPT_DpOT0_
	.weak_definition __ZN9__gnu_cxx13new_allocatorINSt8__detail10_Hash_nodeISt4pairIKiiELb0EEEE9constructIS5_JS3_IiiEEEEvPT_DpOT0_
__ZN9__gnu_cxx13new_allocatorINSt8__detail10_Hash_nodeISt4pairIKiiELb0EEEE9constructIS5_JS3_IiiEEEEvPT_DpOT0_:
LFB5358:
	stp	x29, x30, [sp, -64]!
LCFI642:
	mov	x29, sp
	str	x19, [sp, 16]
LCFI643:
	str	x0, [sp, 56]
	str	x1, [sp, 48]
	str	x2, [sp, 40]
	ldr	x0, [sp, 40]
	bl	__ZSt7forwardISt4pairIiiEEOT_RNSt16remove_referenceIS2_E4typeE
	mov	x19, x0
	ldr	x0, [sp, 48]
	mov	x1, x0
	mov	x0, 8
	bl	__ZnwmPv
	mov	x1, x19
	bl	__ZNSt4pairIKiiEC1IiiLb1EEEOS_IT_T0_E
	nop
	ldr	x19, [sp, 16]
	ldp	x29, x30, [sp], 64
LCFI644:
	ret
LFE5358:
	.align	2
	.globl __ZNSt10_HashtableIiSt4pairIKiiESaIS2_ENSt8__detail10_Select1stESt8equal_toIiESt4hashIiENS4_18_Mod_range_hashingENS4_20_Default_ranged_hashENS4_20_Prime_rehash_policyENS4_17_Hashtable_traitsILb0ELb0ELb1EEEE19_M_allocate_bucketsEm
	.weak_definition __ZNSt10_HashtableIiSt4pairIKiiESaIS2_ENSt8__detail10_Select1stESt8equal_toIiESt4hashIiENS4_18_Mod_range_hashingENS4_20_Default_ranged_hashENS4_20_Prime_rehash_policyENS4_17_Hashtable_traitsILb0ELb0ELb1EEEE19_M_allocate_bucketsEm
__ZNSt10_HashtableIiSt4pairIKiiESaIS2_ENSt8__detail10_Select1stESt8equal_toIiESt4hashIiENS4_18_Mod_range_hashingENS4_20_Default_ranged_hashENS4_20_Prime_rehash_policyENS4_17_Hashtable_traitsILb0ELb0ELb1EEEE19_M_allocate_bucketsEm:
LFB5359:
	stp	x29, x30, [sp, -32]!
LCFI645:
	mov	x29, sp
	str	x0, [sp, 24]
	str	x1, [sp, 16]
	ldr	x0, [sp, 16]
	cmp	x0, 1
	cset	w0, eq
	and	w0, w0, 255
	and	x0, x0, 255
	cmp	x0, 0
	beq	L686
	ldr	x0, [sp, 24]
	str	xzr, [x0, 48]
	ldr	x0, [sp, 24]
	add	x0, x0, 48
	b	L687
L686:
	ldr	x1, [sp, 16]
	ldr	x0, [sp, 24]
	bl	__ZNSt8__detail16_Hashtable_allocISaINS_10_Hash_nodeISt4pairIKiiELb0EEEEE19_M_allocate_bucketsEm
	nop
L687:
	ldp	x29, x30, [sp], 32
LCFI646:
	ret
LFE5359:
	.align	2
	.globl __ZSt11__addressofINSt8__detail10_Hash_nodeISt4pairIKiiELb0EEEEPT_RS6_
	.weak_definition __ZSt11__addressofINSt8__detail10_Hash_nodeISt4pairIKiiELb0EEEEPT_RS6_
__ZSt11__addressofINSt8__detail10_Hash_nodeISt4pairIKiiELb0EEEEPT_RS6_:
LFB5362:
	sub	sp, sp, #16
LCFI647:
	str	x0, [sp, 8]
	ldr	x0, [sp, 8]
	add	sp, sp, 16
LCFI648:
	ret
LFE5362:
	.align	2
	.globl __ZNKSt6vectorI5blockSaIS0_EE4sizeEv
	.weak_definition __ZNKSt6vectorI5blockSaIS0_EE4sizeEv
__ZNKSt6vectorI5blockSaIS0_EE4sizeEv:
LFB5363:
	sub	sp, sp, #16
LCFI649:
	str	x0, [sp, 8]
	ldr	x0, [sp, 8]
	ldr	x1, [x0, 8]
	ldr	x0, [sp, 8]
	ldr	x0, [x0]
	sub	x0, x1, x0
	asr	x0, x0, 4
	add	sp, sp, 16
LCFI650:
	ret
LFE5363:
	.align	2
	.globl __ZN9__gnu_cxx14__alloc_traitsISaI5blockES1_E17_S_select_on_copyERKS2_
	.weak_definition __ZN9__gnu_cxx14__alloc_traitsISaI5blockES1_E17_S_select_on_copyERKS2_
__ZN9__gnu_cxx14__alloc_traitsISaI5blockES1_E17_S_select_on_copyERKS2_:
LFB5364:
	stp	x29, x30, [sp, -48]!
LCFI651:
	mov	x29, sp
	str	x19, [sp, 16]
LCFI652:
	mov	x19, x8
	str	x0, [sp, 40]
	mov	x8, x19
	ldr	x0, [sp, 40]
	bl	__ZNSt16allocator_traitsISaI5blockEE37select_on_container_copy_constructionERKS1_
	mov	x0, x19
	ldr	x19, [sp, 16]
	ldp	x29, x30, [sp], 48
LCFI653:
	ret
LFE5364:
	.align	2
	.globl __ZNKSt12_Vector_baseI5blockSaIS0_EE19_M_get_Tp_allocatorEv
	.weak_definition __ZNKSt12_Vector_baseI5blockSaIS0_EE19_M_get_Tp_allocatorEv
__ZNKSt12_Vector_baseI5blockSaIS0_EE19_M_get_Tp_allocatorEv:
LFB5365:
	sub	sp, sp, #16
LCFI654:
	str	x0, [sp, 8]
	ldr	x0, [sp, 8]
	add	sp, sp, 16
LCFI655:
	ret
LFE5365:
	.align	2
	.globl __ZNKSt6vectorI5blockSaIS0_EE5beginEv
	.weak_definition __ZNKSt6vectorI5blockSaIS0_EE5beginEv
__ZNKSt6vectorI5blockSaIS0_EE5beginEv:
LFB5366:
	stp	x29, x30, [sp, -48]!
LCFI656:
	mov	x29, sp
	str	x0, [sp, 24]
	ldr	x1, [sp, 24]
	add	x0, sp, 40
	bl	__ZN9__gnu_cxx17__normal_iteratorIPK5blockSt6vectorIS1_SaIS1_EEEC1ERKS3_
	ldr	x0, [sp, 40]
	ldp	x29, x30, [sp], 48
LCFI657:
	ret
LFE5366:
	.align	2
	.globl __ZNKSt6vectorI5blockSaIS0_EE3endEv
	.weak_definition __ZNKSt6vectorI5blockSaIS0_EE3endEv
__ZNKSt6vectorI5blockSaIS0_EE3endEv:
LFB5367:
	stp	x29, x30, [sp, -48]!
LCFI658:
	mov	x29, sp
	str	x0, [sp, 24]
	ldr	x0, [sp, 24]
	add	x1, x0, 8
	add	x0, sp, 40
	bl	__ZN9__gnu_cxx17__normal_iteratorIPK5blockSt6vectorIS1_SaIS1_EEEC1ERKS3_
	ldr	x0, [sp, 40]
	ldp	x29, x30, [sp], 48
LCFI659:
	ret
LFE5367:
	.align	2
	.globl __ZSt22__uninitialized_copy_aIN9__gnu_cxx17__normal_iteratorIPK5blockSt6vectorIS2_SaIS2_EEEEPS2_S2_ET0_T_SB_SA_RSaIT1_E
	.weak_definition __ZSt22__uninitialized_copy_aIN9__gnu_cxx17__normal_iteratorIPK5blockSt6vectorIS2_SaIS2_EEEEPS2_S2_ET0_T_SB_SA_RSaIT1_E
__ZSt22__uninitialized_copy_aIN9__gnu_cxx17__normal_iteratorIPK5blockSt6vectorIS2_SaIS2_EEEEPS2_S2_ET0_T_SB_SA_RSaIT1_E:
LFB5368:
	stp	x29, x30, [sp, -48]!
LCFI660:
	mov	x29, sp
	str	x0, [sp, 40]
	str	x1, [sp, 32]
	str	x2, [sp, 24]
	str	x3, [sp, 16]
	ldr	x2, [sp, 24]
	ldr	x1, [sp, 32]
	ldr	x0, [sp, 40]
	bl	__ZSt18uninitialized_copyIN9__gnu_cxx17__normal_iteratorIPK5blockSt6vectorIS2_SaIS2_EEEEPS2_ET0_T_SB_SA_
	ldp	x29, x30, [sp], 48
LCFI661:
	ret
LFE5368:
	.align	2
	.globl __ZN9__gnu_cxx14__alloc_traitsISaINSt8__detail10_Hash_nodeISt4pairIKiiELb0EEEES6_E17_S_select_on_copyERKS7_
	.weak_definition __ZN9__gnu_cxx14__alloc_traitsISaINSt8__detail10_Hash_nodeISt4pairIKiiELb0EEEES6_E17_S_select_on_copyERKS7_
__ZN9__gnu_cxx14__alloc_traitsISaINSt8__detail10_Hash_nodeISt4pairIKiiELb0EEEES6_E17_S_select_on_copyERKS7_:
LFB5369:
	stp	x29, x30, [sp, -48]!
LCFI662:
	mov	x29, sp
	str	x19, [sp, 16]
LCFI663:
	mov	x19, x8
	str	x0, [sp, 40]
	mov	x8, x19
	ldr	x0, [sp, 40]
	bl	__ZNSt16allocator_traitsISaINSt8__detail10_Hash_nodeISt4pairIKiiELb0EEEEE37select_on_container_copy_constructionERKS6_
	mov	x0, x19
	ldr	x19, [sp, 16]
	ldp	x29, x30, [sp], 48
LCFI664:
	ret
LFE5369:
	.align	2
	.globl __ZNKSt8__detail16_Hashtable_allocISaINS_10_Hash_nodeISt4pairIKiiELb0EEEEE17_M_node_allocatorEv
	.weak_definition __ZNKSt8__detail16_Hashtable_allocISaINS_10_Hash_nodeISt4pairIKiiELb0EEEEE17_M_node_allocatorEv
__ZNKSt8__detail16_Hashtable_allocISaINS_10_Hash_nodeISt4pairIKiiELb0EEEEE17_M_node_allocatorEv:
LFB5370:
	stp	x29, x30, [sp, -32]!
LCFI665:
	mov	x29, sp
	str	x0, [sp, 24]
	ldr	x0, [sp, 24]
	bl	__ZNKSt8__detail21_Hashtable_ebo_helperILi0ESaINS_10_Hash_nodeISt4pairIKiiELb0EEEELb1EE7_M_cgetEv
	ldp	x29, x30, [sp], 32
LCFI666:
	ret
LFE5370:
	.align	2
	.globl __ZNSt8__detail16_Hashtable_allocISaINS_10_Hash_nodeISt4pairIKiiELb0EEEEEC2IS6_EEOT_
	.weak_definition __ZNSt8__detail16_Hashtable_allocISaINS_10_Hash_nodeISt4pairIKiiELb0EEEEEC2IS6_EEOT_
__ZNSt8__detail16_Hashtable_allocISaINS_10_Hash_nodeISt4pairIKiiELb0EEEEEC2IS6_EEOT_:
LFB5372:
	stp	x29, x30, [sp, -32]!
LCFI667:
	mov	x29, sp
	str	x0, [sp, 24]
	str	x1, [sp, 16]
	ldr	x0, [sp, 16]
	bl	__ZSt7forwardISaINSt8__detail10_Hash_nodeISt4pairIKiiELb0EEEEEOT_RNSt16remove_referenceIS7_E4typeE
	mov	x1, x0
	ldr	x0, [sp, 24]
	bl	__ZNSt8__detail21_Hashtable_ebo_helperILi0ESaINS_10_Hash_nodeISt4pairIKiiELb0EEEELb1EEC2IS6_EEOT_
	nop
	ldp	x29, x30, [sp], 32
LCFI668:
	ret
LFE5372:
	.align	2
	.globl __ZNSt8__detail10_AllocNodeISaINS_10_Hash_nodeISt4pairIKiiELb0EEEEEC1ERNS_16_Hashtable_allocIS6_EE
	.weak_definition __ZNSt8__detail10_AllocNodeISaINS_10_Hash_nodeISt4pairIKiiELb0EEEEEC1ERNS_16_Hashtable_allocIS6_EE
__ZNSt8__detail10_AllocNodeISaINS_10_Hash_nodeISt4pairIKiiELb0EEEEEC1ERNS_16_Hashtable_allocIS6_EE:
LFB5376:
	sub	sp, sp, #16
LCFI669:
	str	x0, [sp, 8]
	str	x1, [sp]
	ldr	x0, [sp, 8]
	ldr	x1, [sp]
	str	x1, [x0]
	nop
	add	sp, sp, 16
LCFI670:
	ret
LFE5376:
	.align	2
	.globl __ZNSt10_HashtableIiSt4pairIKiiESaIS2_ENSt8__detail10_Select1stESt8equal_toIiESt4hashIiENS4_18_Mod_range_hashingENS4_20_Default_ranged_hashENS4_20_Prime_rehash_policyENS4_17_Hashtable_traitsILb0ELb0ELb1EEEE9_M_assignIRKSF_NS4_10_AllocNodeISaINS4_10_Hash_nodeIS2_Lb0EEEEEEEEvOT_RKT0_
	.weak_definition __ZNSt10_HashtableIiSt4pairIKiiESaIS2_ENSt8__detail10_Select1stESt8equal_toIiESt4hashIiENS4_18_Mod_range_hashingENS4_20_Default_ranged_hashENS4_20_Prime_rehash_policyENS4_17_Hashtable_traitsILb0ELb0ELb1EEEE9_M_assignIRKSF_NS4_10_AllocNodeISaINS4_10_Hash_nodeIS2_Lb0EEEEEEEEvOT_RKT0_
__ZNSt10_HashtableIiSt4pairIKiiESaIS2_ENSt8__detail10_Select1stESt8equal_toIiESt4hashIiENS4_18_Mod_range_hashingENS4_20_Default_ranged_hashENS4_20_Prime_rehash_policyENS4_17_Hashtable_traitsILb0ELb0ELb1EEEE9_M_assignIRKSF_NS4_10_AllocNodeISaINS4_10_Hash_nodeIS2_Lb0EEEEEEEEvOT_RKT0_:
LFB5377:
	stp	x29, x30, [sp, -112]!
LCFI671:
	mov	x29, sp
	str	x19, [sp, 16]
LCFI672:
	str	x0, [sp, 56]
	str	x1, [sp, 48]
	str	x2, [sp, 40]
	str	xzr, [sp, 104]
	ldr	x0, [sp, 56]
	ldr	x0, [x0]
	cmp	x0, 0
	bne	L709
	ldr	x0, [sp, 56]
	ldr	x0, [x0, 8]
	mov	x1, x0
	ldr	x0, [sp, 56]
LEHB73:
	bl	__ZNSt10_HashtableIiSt4pairIKiiESaIS2_ENSt8__detail10_Select1stESt8equal_toIiESt4hashIiENS4_18_Mod_range_hashingENS4_20_Default_ranged_hashENS4_20_Prime_rehash_policyENS4_17_Hashtable_traitsILb0ELb0ELb1EEEE19_M_allocate_bucketsEm
LEHE73:
	str	x0, [sp, 104]
	ldr	x0, [sp, 56]
	ldr	x1, [sp, 104]
	str	x1, [x0]
L709:
	ldr	x0, [sp, 48]
	ldr	x0, [x0, 16]
	cmp	x0, 0
	beq	L720
	ldr	x0, [sp, 48]
	bl	__ZNKSt10_HashtableIiSt4pairIKiiESaIS2_ENSt8__detail10_Select1stESt8equal_toIiESt4hashIiENS4_18_Mod_range_hashingENS4_20_Default_ranged_hashENS4_20_Prime_rehash_policyENS4_17_Hashtable_traitsILb0ELb0ELb1EEEE8_M_beginEv
	str	x0, [sp, 96]
	ldr	x0, [sp, 96]
	add	x0, x0, 8
	bl	__ZNSt8__detail21_Hash_node_value_baseISt4pairIKiiEE4_M_vEv
	bl	__ZNSt10_HashtableIiSt4pairIKiiESaIS2_ENSt8__detail10_Select1stESt8equal_toIiESt4hashIiENS4_18_Mod_range_hashingENS4_20_Default_ranged_hashENS4_20_Prime_rehash_policyENS4_17_Hashtable_traitsILb0ELb0ELb1EEEE15__fwd_value_forIRKSF_EENSt11conditionalIXsrSt19is_lvalue_referenceIT_E5valueERKS2_OS2_E4typeERS2_
	mov	x1, x0
	ldr	x0, [sp, 40]
LEHB74:
	bl	__ZNKSt8__detail10_AllocNodeISaINS_10_Hash_nodeISt4pairIKiiELb0EEEEEclIRKS4_EEPS5_OT_
	str	x0, [sp, 80]
	ldr	x0, [sp, 80]
	add	x1, x0, 8
	ldr	x0, [sp, 96]
	add	x0, x0, 8
	mov	x2, x0
	ldr	x0, [sp, 56]
	bl	__ZNKSt8__detail15_Hash_code_baseIiSt4pairIKiiENS_10_Select1stESt4hashIiENS_18_Mod_range_hashingENS_20_Default_ranged_hashELb0EE12_M_copy_codeERNS_21_Hash_node_code_cacheILb0EEERKSB_
	ldr	x1, [sp, 80]
	ldr	x0, [sp, 56]
	bl	__ZNSt10_HashtableIiSt4pairIKiiESaIS2_ENSt8__detail10_Select1stESt8equal_toIiESt4hashIiENS4_18_Mod_range_hashingENS4_20_Default_ranged_hashENS4_20_Prime_rehash_policyENS4_17_Hashtable_traitsILb0ELb0ELb1EEEE16_M_update_bbeginEPNS4_10_Hash_nodeIS2_Lb0EEE
	ldr	x0, [sp, 80]
	str	x0, [sp, 88]
	ldr	x0, [sp, 96]
	bl	__ZNKSt8__detail10_Hash_nodeISt4pairIKiiELb0EE7_M_nextEv
	str	x0, [sp, 96]
	b	L712
L714:
	ldr	x0, [sp, 96]
	add	x0, x0, 8
	bl	__ZNSt8__detail21_Hash_node_value_baseISt4pairIKiiEE4_M_vEv
	bl	__ZNSt10_HashtableIiSt4pairIKiiESaIS2_ENSt8__detail10_Select1stESt8equal_toIiESt4hashIiENS4_18_Mod_range_hashingENS4_20_Default_ranged_hashENS4_20_Prime_rehash_policyENS4_17_Hashtable_traitsILb0ELb0ELb1EEEE15__fwd_value_forIRKSF_EENSt11conditionalIXsrSt19is_lvalue_referenceIT_E5valueERKS2_OS2_E4typeERS2_
	mov	x1, x0
	ldr	x0, [sp, 40]
	bl	__ZNKSt8__detail10_AllocNodeISaINS_10_Hash_nodeISt4pairIKiiELb0EEEEEclIRKS4_EEPS5_OT_
LEHE74:
	str	x0, [sp, 80]
	ldr	x0, [sp, 88]
	ldr	x1, [sp, 80]
	str	x1, [x0]
	ldr	x0, [sp, 80]
	add	x1, x0, 8
	ldr	x0, [sp, 96]
	add	x0, x0, 8
	mov	x2, x0
	ldr	x0, [sp, 56]
	bl	__ZNKSt8__detail15_Hash_code_baseIiSt4pairIKiiENS_10_Select1stESt4hashIiENS_18_Mod_range_hashingENS_20_Default_ranged_hashELb0EE12_M_copy_codeERNS_21_Hash_node_code_cacheILb0EEERKSB_
	ldr	x0, [sp, 80]
	add	x0, x0, 8
	mov	x1, x0
	ldr	x0, [sp, 56]
	bl	__ZNKSt10_HashtableIiSt4pairIKiiESaIS2_ENSt8__detail10_Select1stESt8equal_toIiESt4hashIiENS4_18_Mod_range_hashingENS4_20_Default_ranged_hashENS4_20_Prime_rehash_policyENS4_17_Hashtable_traitsILb0ELb0ELb1EEEE15_M_bucket_indexERKNS4_16_Hash_node_valueIS2_Lb0EEE
	str	x0, [sp, 72]
	ldr	x0, [sp, 56]
	ldr	x1, [x0]
	ldr	x0, [sp, 72]
	lsl	x0, x0, 3
	add	x0, x1, x0
	ldr	x0, [x0]
	cmp	x0, 0
	bne	L713
	ldr	x0, [sp, 56]
	ldr	x1, [x0]
	ldr	x0, [sp, 72]
	lsl	x0, x0, 3
	add	x0, x1, x0
	ldr	x1, [sp, 88]
	str	x1, [x0]
L713:
	ldr	x0, [sp, 80]
	str	x0, [sp, 88]
	ldr	x0, [sp, 96]
	bl	__ZNKSt8__detail10_Hash_nodeISt4pairIKiiELb0EE7_M_nextEv
	str	x0, [sp, 96]
L712:
	ldr	x0, [sp, 96]
	cmp	x0, 0
	bne	L714
	b	L708
L718:
	bl	___cxa_begin_catch
	ldr	x0, [sp, 56]
	bl	__ZNSt10_HashtableIiSt4pairIKiiESaIS2_ENSt8__detail10_Select1stESt8equal_toIiESt4hashIiENS4_18_Mod_range_hashingENS4_20_Default_ranged_hashENS4_20_Prime_rehash_policyENS4_17_Hashtable_traitsILb0ELb0ELb1EEEE5clearEv
	ldr	x0, [sp, 104]
	cmp	x0, 0
	beq	L716
	ldr	x0, [sp, 56]
LEHB75:
	bl	__ZNSt10_HashtableIiSt4pairIKiiESaIS2_ENSt8__detail10_Select1stESt8equal_toIiESt4hashIiENS4_18_Mod_range_hashingENS4_20_Default_ranged_hashENS4_20_Prime_rehash_policyENS4_17_Hashtable_traitsILb0ELb0ELb1EEEE21_M_deallocate_bucketsEv
L716:
	bl	___cxa_rethrow
LEHE75:
L719:
	mov	x19, x0
	bl	___cxa_end_catch
	mov	x0, x19
LEHB76:
	bl	__Unwind_Resume
LEHE76:
L720:
	nop
L708:
	ldr	x19, [sp, 16]
	ldp	x29, x30, [sp], 112
LCFI673:
	ret
LFE5377:
	.section __DATA,__gcc_except_tab
_GCC_except_table32:
	.align	3
LLSDA5377:
	.byte	0xff
	.byte	0
	.uleb128 LLSDATT5377-LLSDATTD5377
LLSDATTD5377:
	.byte	0x1
	.uleb128 LLSDACSE5377-LLSDACSB5377
LLSDACSB5377:
	.uleb128 LEHB73-LFB5377
	.uleb128 LEHE73-LEHB73
	.uleb128 0
	.uleb128 0
	.uleb128 LEHB74-LFB5377
	.uleb128 LEHE74-LEHB74
	.uleb128 L718-LFB5377
	.uleb128 0x1
	.uleb128 LEHB75-LFB5377
	.uleb128 LEHE75-LEHB75
	.uleb128 L719-LFB5377
	.uleb128 0
	.uleb128 LEHB76-LFB5377
	.uleb128 LEHE76-LEHB76
	.uleb128 0
	.uleb128 0
LLSDACSE5377:
	.byte	0x1
	.byte	0
	.align	3
	.xword	0
LLSDATT5377:
	.text
	.align	2
	.globl __ZN9__gnu_cxx14__alloc_traitsISaISt10_List_nodeIiEES2_E17_S_select_on_copyERKS3_
	.weak_definition __ZN9__gnu_cxx14__alloc_traitsISaISt10_List_nodeIiEES2_E17_S_select_on_copyERKS3_
__ZN9__gnu_cxx14__alloc_traitsISaISt10_List_nodeIiEES2_E17_S_select_on_copyERKS3_:
LFB5378:
	stp	x29, x30, [sp, -48]!
LCFI674:
	mov	x29, sp
	str	x19, [sp, 16]
LCFI675:
	mov	x19, x8
	str	x0, [sp, 40]
	mov	x8, x19
	ldr	x0, [sp, 40]
	bl	__ZNSt16allocator_traitsISaISt10_List_nodeIiEEE37select_on_container_copy_constructionERKS2_
	mov	x0, x19
	ldr	x19, [sp, 16]
	ldp	x29, x30, [sp], 48
LCFI676:
	ret
LFE5378:
	.align	2
	.globl __ZNKSt7__cxx1110_List_baseIiSaIiEE21_M_get_Node_allocatorEv
	.weak_definition __ZNKSt7__cxx1110_List_baseIiSaIiEE21_M_get_Node_allocatorEv
__ZNKSt7__cxx1110_List_baseIiSaIiEE21_M_get_Node_allocatorEv:
LFB5379:
	sub	sp, sp, #16
LCFI677:
	str	x0, [sp, 8]
	ldr	x0, [sp, 8]
	add	sp, sp, 16
LCFI678:
	ret
LFE5379:
	.align	2
	.globl __ZNSt7__cxx1110_List_baseIiSaIiEEC2EOSaISt10_List_nodeIiEE
	.weak_definition __ZNSt7__cxx1110_List_baseIiSaIiEEC2EOSaISt10_List_nodeIiEE
__ZNSt7__cxx1110_List_baseIiSaIiEEC2EOSaISt10_List_nodeIiEE:
LFB5381:
	stp	x29, x30, [sp, -48]!
LCFI679:
	mov	x29, sp
	str	x19, [sp, 16]
LCFI680:
	str	x0, [sp, 40]
	str	x1, [sp, 32]
	ldr	x19, [sp, 40]
	ldr	x0, [sp, 32]
	bl	__ZSt4moveIRSaISt10_List_nodeIiEEEONSt16remove_referenceIT_E4typeEOS5_
	mov	x1, x0
	mov	x0, x19
	bl	__ZNSt7__cxx1110_List_baseIiSaIiEE10_List_implC1EOSaISt10_List_nodeIiEE
	nop
	ldr	x19, [sp, 16]
	ldp	x29, x30, [sp], 48
LCFI681:
	ret
LFE5381:
	.align	2
	.globl __ZNKSt7__cxx114listIiSaIiEE5beginEv
	.weak_definition __ZNKSt7__cxx114listIiSaIiEE5beginEv
__ZNKSt7__cxx114listIiSaIiEE5beginEv:
LFB5383:
	stp	x29, x30, [sp, -48]!
LCFI682:
	mov	x29, sp
	str	x0, [sp, 24]
	ldr	x0, [sp, 24]
	ldr	x1, [x0]
	add	x0, sp, 40
	bl	__ZNSt20_List_const_iteratorIiEC1EPKNSt8__detail15_List_node_baseE
	ldr	x0, [sp, 40]
	ldp	x29, x30, [sp], 48
LCFI683:
	ret
LFE5383:
	.align	2
	.globl __ZNKSt7__cxx114listIiSaIiEE3endEv
	.weak_definition __ZNKSt7__cxx114listIiSaIiEE3endEv
__ZNKSt7__cxx114listIiSaIiEE3endEv:
LFB5384:
	stp	x29, x30, [sp, -48]!
LCFI684:
	mov	x29, sp
	str	x0, [sp, 24]
	ldr	x1, [sp, 24]
	add	x0, sp, 40
	bl	__ZNSt20_List_const_iteratorIiEC1EPKNSt8__detail15_List_node_baseE
	ldr	x0, [sp, 40]
	ldp	x29, x30, [sp], 48
LCFI685:
	ret
LFE5384:
	.align	2
	.globl __ZNSt7__cxx114listIiSaIiEE22_M_initialize_dispatchISt20_List_const_iteratorIiEEEvT_S6_St12__false_type
	.weak_definition __ZNSt7__cxx114listIiSaIiEE22_M_initialize_dispatchISt20_List_const_iteratorIiEEEvT_S6_St12__false_type
__ZNSt7__cxx114listIiSaIiEE22_M_initialize_dispatchISt20_List_const_iteratorIiEEEvT_S6_St12__false_type:
LFB5385:
	stp	x29, x30, [sp, -48]!
LCFI686:
	mov	x29, sp
	str	x0, [sp, 40]
	str	x1, [sp, 32]
	str	x2, [sp, 24]
	strb	w3, [sp, 16]
	b	L731
L732:
	add	x0, sp, 32
	bl	__ZNKSt20_List_const_iteratorIiEdeEv
	mov	x1, x0
	ldr	x0, [sp, 40]
	bl	__ZNSt7__cxx114listIiSaIiEE12emplace_backIJRKiEEERiDpOT_
	add	x0, sp, 32
	bl	__ZNSt20_List_const_iteratorIiEppEv
L731:
	add	x1, sp, 24
	add	x0, sp, 32
	bl	__ZStneRKSt20_List_const_iteratorIiES2_
	and	w0, w0, 255
	cmp	w0, 0
	bne	L732
	nop
	nop
	ldp	x29, x30, [sp], 48
LCFI687:
	ret
LFE5385:
	.align	2
	.globl __ZNK9__gnu_cxx16__aligned_bufferISt4pairIKiiEE6_M_ptrEv
	.weak_definition __ZNK9__gnu_cxx16__aligned_bufferISt4pairIKiiEE6_M_ptrEv
__ZNK9__gnu_cxx16__aligned_bufferISt4pairIKiiEE6_M_ptrEv:
LFB5386:
	stp	x29, x30, [sp, -32]!
LCFI688:
	mov	x29, sp
	str	x0, [sp, 24]
	ldr	x0, [sp, 24]
	bl	__ZNK9__gnu_cxx16__aligned_bufferISt4pairIKiiEE7_M_addrEv
	ldp	x29, x30, [sp], 32
LCFI689:
	ret
LFE5386:
	.align	2
	.globl __ZNSt10__pair_getILm0EE11__const_getIKiiEERKT_RKSt4pairIS3_T0_E
	.weak_definition __ZNSt10__pair_getILm0EE11__const_getIKiiEERKT_RKSt4pairIS3_T0_E
__ZNSt10__pair_getILm0EE11__const_getIKiiEERKT_RKSt4pairIS3_T0_E:
LFB5387:
	sub	sp, sp, #16
LCFI690:
	str	x0, [sp, 8]
	ldr	x0, [sp, 8]
	add	sp, sp, 16
LCFI691:
	ret
LFE5387:
	.align	2
	.globl __ZNSt4pairIKiiEC1IiiLb1EEEOS_IT_T0_E
	.weak_definition __ZNSt4pairIKiiEC1IiiLb1EEEOS_IT_T0_E
__ZNSt4pairIKiiEC1IiiLb1EEEOS_IT_T0_E:
LFB5390:
	stp	x29, x30, [sp, -32]!
LCFI692:
	mov	x29, sp
	str	x0, [sp, 24]
	str	x1, [sp, 16]
	ldr	x0, [sp, 16]
	bl	__ZSt7forwardIiEOT_RNSt16remove_referenceIS0_E4typeE
	ldr	w1, [x0]
	ldr	x0, [sp, 24]
	str	w1, [x0]
	ldr	x0, [sp, 16]
	add	x0, x0, 4
	bl	__ZSt7forwardIiEOT_RNSt16remove_referenceIS0_E4typeE
	ldr	w1, [x0]
	ldr	x0, [sp, 24]
	str	w1, [x0, 4]
	nop
	ldp	x29, x30, [sp], 32
LCFI693:
	ret
LFE5390:
	.align	2
	.globl __ZNSt8__detail16_Hashtable_allocISaINS_10_Hash_nodeISt4pairIKiiELb0EEEEE19_M_allocate_bucketsEm
	.weak_definition __ZNSt8__detail16_Hashtable_allocISaINS_10_Hash_nodeISt4pairIKiiELb0EEEEE19_M_allocate_bucketsEm
__ZNSt8__detail16_Hashtable_allocISaINS_10_Hash_nodeISt4pairIKiiELb0EEEEE19_M_allocate_bucketsEm:
LFB5391:
	stp	x29, x30, [sp, -80]!
LCFI694:
	mov	x29, sp
	str	x19, [sp, 16]
LCFI695:
	str	x0, [sp, 40]
	str	x1, [sp, 32]
	ldr	x0, [sp, 40]
	bl	__ZNSt8__detail16_Hashtable_allocISaINS_10_Hash_nodeISt4pairIKiiELb0EEEEE17_M_node_allocatorEv
	mov	x1, x0
	add	x0, sp, 56
	bl	__ZNSaIPNSt8__detail15_Hash_node_baseEEC1INS_10_Hash_nodeISt4pairIKiiELb0EEEEERKSaIT_E
	add	x0, sp, 56
	ldr	x1, [sp, 32]
LEHB77:
	bl	__ZNSt16allocator_traitsISaIPNSt8__detail15_Hash_node_baseEEE8allocateERS3_m
LEHE77:
	str	x0, [sp, 72]
	ldr	x0, [sp, 72]
	bl	__ZSt12__to_addressIPNSt8__detail15_Hash_node_baseEEPT_S4_
	str	x0, [sp, 64]
	ldr	x0, [sp, 32]
	lsl	x0, x0, 3
	ldr	x1, [sp, 64]
	mov	x3, x1
	mov	x2, x0
	mov	w1, 0
	mov	x0, x3
	bl	_memset
	ldr	x19, [sp, 64]
	add	x0, sp, 56
	bl	__ZNSaIPNSt8__detail15_Hash_node_baseEED1Ev
	mov	x0, x19
	b	L742
L741:
	mov	x19, x0
	add	x0, sp, 56
	bl	__ZNSaIPNSt8__detail15_Hash_node_baseEED1Ev
	mov	x0, x19
LEHB78:
	bl	__Unwind_Resume
LEHE78:
L742:
	ldr	x19, [sp, 16]
	ldp	x29, x30, [sp], 80
LCFI696:
	ret
LFE5391:
	.section __DATA,__gcc_except_tab
_GCC_except_table33:
LLSDA5391:
	.byte	0xff
	.byte	0xff
	.byte	0x1
	.uleb128 LLSDACSE5391-LLSDACSB5391
LLSDACSB5391:
	.uleb128 LEHB77-LFB5391
	.uleb128 LEHE77-LEHB77
	.uleb128 L741-LFB5391
	.uleb128 0
	.uleb128 LEHB78-LFB5391
	.uleb128 LEHE78-LEHB78
	.uleb128 0
	.uleb128 0
LLSDACSE5391:
	.text
	.align	2
	.globl __ZNSt16allocator_traitsISaI5blockEE37select_on_container_copy_constructionERKS1_
	.weak_definition __ZNSt16allocator_traitsISaI5blockEE37select_on_container_copy_constructionERKS1_
__ZNSt16allocator_traitsISaI5blockEE37select_on_container_copy_constructionERKS1_:
LFB5392:
	stp	x29, x30, [sp, -48]!
LCFI697:
	mov	x29, sp
	str	x19, [sp, 16]
LCFI698:
	mov	x19, x8
	str	x0, [sp, 40]
	ldr	x1, [sp, 40]
	mov	x0, x19
	bl	__ZNSaI5blockEC1ERKS0_
	mov	x0, x19
	ldr	x19, [sp, 16]
	ldp	x29, x30, [sp], 48
LCFI699:
	ret
LFE5392:
	.align	2
	.globl __ZN9__gnu_cxx17__normal_iteratorIPK5blockSt6vectorIS1_SaIS1_EEEC1ERKS3_
	.weak_definition __ZN9__gnu_cxx17__normal_iteratorIPK5blockSt6vectorIS1_SaIS1_EEEC1ERKS3_
__ZN9__gnu_cxx17__normal_iteratorIPK5blockSt6vectorIS1_SaIS1_EEEC1ERKS3_:
LFB5395:
	sub	sp, sp, #16
LCFI700:
	str	x0, [sp, 8]
	str	x1, [sp]
	ldr	x0, [sp]
	ldr	x1, [x0]
	ldr	x0, [sp, 8]
	str	x1, [x0]
	nop
	add	sp, sp, 16
LCFI701:
	ret
LFE5395:
	.align	2
	.globl __ZSt18uninitialized_copyIN9__gnu_cxx17__normal_iteratorIPK5blockSt6vectorIS2_SaIS2_EEEEPS2_ET0_T_SB_SA_
	.weak_definition __ZSt18uninitialized_copyIN9__gnu_cxx17__normal_iteratorIPK5blockSt6vectorIS2_SaIS2_EEEEPS2_ET0_T_SB_SA_
__ZSt18uninitialized_copyIN9__gnu_cxx17__normal_iteratorIPK5blockSt6vectorIS2_SaIS2_EEEEPS2_ET0_T_SB_SA_:
LFB5396:
	stp	x29, x30, [sp, -64]!
LCFI702:
	mov	x29, sp
	str	x0, [sp, 40]
	str	x1, [sp, 32]
	str	x2, [sp, 24]
	mov	w0, 1
	strb	w0, [sp, 63]
	ldr	x2, [sp, 24]
	ldr	x1, [sp, 32]
	ldr	x0, [sp, 40]
	bl	__ZNSt20__uninitialized_copyILb0EE13__uninit_copyIN9__gnu_cxx17__normal_iteratorIPK5blockSt6vectorIS4_SaIS4_EEEEPS4_EET0_T_SD_SC_
	ldp	x29, x30, [sp], 64
LCFI703:
	ret
LFE5396:
	.align	2
	.globl __ZNSt16allocator_traitsISaINSt8__detail10_Hash_nodeISt4pairIKiiELb0EEEEE37select_on_container_copy_constructionERKS6_
	.weak_definition __ZNSt16allocator_traitsISaINSt8__detail10_Hash_nodeISt4pairIKiiELb0EEEEE37select_on_container_copy_constructionERKS6_
__ZNSt16allocator_traitsISaINSt8__detail10_Hash_nodeISt4pairIKiiELb0EEEEE37select_on_container_copy_constructionERKS6_:
LFB5398:
	stp	x29, x30, [sp, -48]!
LCFI704:
	mov	x29, sp
	str	x19, [sp, 16]
LCFI705:
	mov	x19, x8
	str	x0, [sp, 40]
	ldr	x1, [sp, 40]
	mov	x0, x19
	bl	__ZNSaINSt8__detail10_Hash_nodeISt4pairIKiiELb0EEEEC1ERKS5_
	mov	x0, x19
	ldr	x19, [sp, 16]
	ldp	x29, x30, [sp], 48
LCFI706:
	ret
LFE5398:
	.align	2
	.globl __ZNKSt8__detail21_Hashtable_ebo_helperILi0ESaINS_10_Hash_nodeISt4pairIKiiELb0EEEELb1EE7_M_cgetEv
	.weak_definition __ZNKSt8__detail21_Hashtable_ebo_helperILi0ESaINS_10_Hash_nodeISt4pairIKiiELb0EEEELb1EE7_M_cgetEv
__ZNKSt8__detail21_Hashtable_ebo_helperILi0ESaINS_10_Hash_nodeISt4pairIKiiELb0EEEELb1EE7_M_cgetEv:
LFB5399:
	sub	sp, sp, #16
LCFI707:
	str	x0, [sp, 8]
	ldr	x0, [sp, 8]
	add	sp, sp, 16
LCFI708:
	ret
LFE5399:
	.align	2
	.globl __ZSt7forwardISaINSt8__detail10_Hash_nodeISt4pairIKiiELb0EEEEEOT_RNSt16remove_referenceIS7_E4typeE
	.weak_definition __ZSt7forwardISaINSt8__detail10_Hash_nodeISt4pairIKiiELb0EEEEEOT_RNSt16remove_referenceIS7_E4typeE
__ZSt7forwardISaINSt8__detail10_Hash_nodeISt4pairIKiiELb0EEEEEOT_RNSt16remove_referenceIS7_E4typeE:
LFB5400:
	sub	sp, sp, #16
LCFI709:
	str	x0, [sp, 8]
	ldr	x0, [sp, 8]
	add	sp, sp, 16
LCFI710:
	ret
LFE5400:
	.align	2
	.globl __ZNSt8__detail21_Hashtable_ebo_helperILi0ESaINS_10_Hash_nodeISt4pairIKiiELb0EEEELb1EEC2IS6_EEOT_
	.weak_definition __ZNSt8__detail21_Hashtable_ebo_helperILi0ESaINS_10_Hash_nodeISt4pairIKiiELb0EEEELb1EEC2IS6_EEOT_
__ZNSt8__detail21_Hashtable_ebo_helperILi0ESaINS_10_Hash_nodeISt4pairIKiiELb0EEEELb1EEC2IS6_EEOT_:
LFB5402:
	stp	x29, x30, [sp, -32]!
LCFI711:
	mov	x29, sp
	str	x0, [sp, 24]
	str	x1, [sp, 16]
	ldr	x0, [sp, 16]
	bl	__ZSt7forwardISaINSt8__detail10_Hash_nodeISt4pairIKiiELb0EEEEEOT_RNSt16remove_referenceIS7_E4typeE
	mov	x1, x0
	ldr	x0, [sp, 24]
	bl	__ZNSaINSt8__detail10_Hash_nodeISt4pairIKiiELb0EEEEC2ERKS5_
	nop
	ldp	x29, x30, [sp], 32
LCFI712:
	ret
LFE5402:
	.align	2
	.globl __ZNSt10_HashtableIiSt4pairIKiiESaIS2_ENSt8__detail10_Select1stESt8equal_toIiESt4hashIiENS4_18_Mod_range_hashingENS4_20_Default_ranged_hashENS4_20_Prime_rehash_policyENS4_17_Hashtable_traitsILb0ELb0ELb1EEEE15__fwd_value_forIRKSF_EENSt11conditionalIXsrSt19is_lvalue_referenceIT_E5valueERKS2_OS2_E4typeERS2_
	.weak_definition __ZNSt10_HashtableIiSt4pairIKiiESaIS2_ENSt8__detail10_Select1stESt8equal_toIiESt4hashIiENS4_18_Mod_range_hashingENS4_20_Default_ranged_hashENS4_20_Prime_rehash_policyENS4_17_Hashtable_traitsILb0ELb0ELb1EEEE15__fwd_value_forIRKSF_EENSt11conditionalIXsrSt19is_lvalue_referenceIT_E5valueERKS2_OS2_E4typeERS2_
__ZNSt10_HashtableIiSt4pairIKiiESaIS2_ENSt8__detail10_Select1stESt8equal_toIiESt4hashIiENS4_18_Mod_range_hashingENS4_20_Default_ranged_hashENS4_20_Prime_rehash_policyENS4_17_Hashtable_traitsILb0ELb0ELb1EEEE15__fwd_value_forIRKSF_EENSt11conditionalIXsrSt19is_lvalue_referenceIT_E5valueERKS2_OS2_E4typeERS2_:
LFB5404:
	stp	x29, x30, [sp, -32]!
LCFI713:
	mov	x29, sp
	str	x0, [sp, 24]
	ldr	x0, [sp, 24]
	bl	__ZSt4moveIRSt4pairIKiiEEONSt16remove_referenceIT_E4typeEOS5_
	ldp	x29, x30, [sp], 32
LCFI714:
	ret
LFE5404:
	.align	2
	.globl __ZNKSt8__detail10_AllocNodeISaINS_10_Hash_nodeISt4pairIKiiELb0EEEEEclIRKS4_EEPS5_OT_
	.weak_definition __ZNKSt8__detail10_AllocNodeISaINS_10_Hash_nodeISt4pairIKiiELb0EEEEEclIRKS4_EEPS5_OT_
__ZNKSt8__detail10_AllocNodeISaINS_10_Hash_nodeISt4pairIKiiELb0EEEEEclIRKS4_EEPS5_OT_:
LFB5405:
	stp	x29, x30, [sp, -48]!
LCFI715:
	mov	x29, sp
	str	x19, [sp, 16]
LCFI716:
	str	x0, [sp, 40]
	str	x1, [sp, 32]
	ldr	x0, [sp, 40]
	ldr	x19, [x0]
	ldr	x0, [sp, 32]
	bl	__ZSt7forwardIRKSt4pairIKiiEEOT_RNSt16remove_referenceIS5_E4typeE
	mov	x1, x0
	mov	x0, x19
	bl	__ZNSt8__detail16_Hashtable_allocISaINS_10_Hash_nodeISt4pairIKiiELb0EEEEE16_M_allocate_nodeIJRKS4_EEEPS5_DpOT_
	ldr	x19, [sp, 16]
	ldp	x29, x30, [sp], 48
LCFI717:
	ret
LFE5405:
	.align	2
	.globl __ZNKSt8__detail15_Hash_code_baseIiSt4pairIKiiENS_10_Select1stESt4hashIiENS_18_Mod_range_hashingENS_20_Default_ranged_hashELb0EE12_M_copy_codeERNS_21_Hash_node_code_cacheILb0EEERKSB_
	.weak_definition __ZNKSt8__detail15_Hash_code_baseIiSt4pairIKiiENS_10_Select1stESt4hashIiENS_18_Mod_range_hashingENS_20_Default_ranged_hashELb0EE12_M_copy_codeERNS_21_Hash_node_code_cacheILb0EEERKSB_
__ZNKSt8__detail15_Hash_code_baseIiSt4pairIKiiENS_10_Select1stESt4hashIiENS_18_Mod_range_hashingENS_20_Default_ranged_hashELb0EE12_M_copy_codeERNS_21_Hash_node_code_cacheILb0EEERKSB_:
LFB5406:
	sub	sp, sp, #32
LCFI718:
	str	x0, [sp, 24]
	str	x1, [sp, 16]
	str	x2, [sp, 8]
	nop
	add	sp, sp, 32
LCFI719:
	ret
LFE5406:
	.align	2
	.globl __ZNSt10_HashtableIiSt4pairIKiiESaIS2_ENSt8__detail10_Select1stESt8equal_toIiESt4hashIiENS4_18_Mod_range_hashingENS4_20_Default_ranged_hashENS4_20_Prime_rehash_policyENS4_17_Hashtable_traitsILb0ELb0ELb1EEEE16_M_update_bbeginEPNS4_10_Hash_nodeIS2_Lb0EEE
	.weak_definition __ZNSt10_HashtableIiSt4pairIKiiESaIS2_ENSt8__detail10_Select1stESt8equal_toIiESt4hashIiENS4_18_Mod_range_hashingENS4_20_Default_ranged_hashENS4_20_Prime_rehash_policyENS4_17_Hashtable_traitsILb0ELb0ELb1EEEE16_M_update_bbeginEPNS4_10_Hash_nodeIS2_Lb0EEE
__ZNSt10_HashtableIiSt4pairIKiiESaIS2_ENSt8__detail10_Select1stESt8equal_toIiESt4hashIiENS4_18_Mod_range_hashingENS4_20_Default_ranged_hashENS4_20_Prime_rehash_policyENS4_17_Hashtable_traitsILb0ELb0ELb1EEEE16_M_update_bbeginEPNS4_10_Hash_nodeIS2_Lb0EEE:
LFB5407:
	stp	x29, x30, [sp, -32]!
LCFI720:
	mov	x29, sp
	str	x0, [sp, 24]
	str	x1, [sp, 16]
	ldr	x0, [sp, 24]
	ldr	x1, [sp, 16]
	str	x1, [x0, 16]
	ldr	x0, [sp, 24]
	bl	__ZNSt10_HashtableIiSt4pairIKiiESaIS2_ENSt8__detail10_Select1stESt8equal_toIiESt4hashIiENS4_18_Mod_range_hashingENS4_20_Default_ranged_hashENS4_20_Prime_rehash_policyENS4_17_Hashtable_traitsILb0ELb0ELb1EEEE16_M_update_bbeginEv
	nop
	ldp	x29, x30, [sp], 32
LCFI721:
	ret
LFE5407:
	.align	2
	.globl __ZNSt16allocator_traitsISaISt10_List_nodeIiEEE37select_on_container_copy_constructionERKS2_
	.weak_definition __ZNSt16allocator_traitsISaISt10_List_nodeIiEEE37select_on_container_copy_constructionERKS2_
__ZNSt16allocator_traitsISaISt10_List_nodeIiEEE37select_on_container_copy_constructionERKS2_:
LFB5408:
	stp	x29, x30, [sp, -48]!
LCFI722:
	mov	x29, sp
	str	x19, [sp, 16]
LCFI723:
	mov	x19, x8
	str	x0, [sp, 40]
	ldr	x1, [sp, 40]
	mov	x0, x19
	bl	__ZNSaISt10_List_nodeIiEEC1ERKS1_
	mov	x0, x19
	ldr	x19, [sp, 16]
	ldp	x29, x30, [sp], 48
LCFI724:
	ret
LFE5408:
	.align	2
	.globl __ZSt4moveIRSaISt10_List_nodeIiEEEONSt16remove_referenceIT_E4typeEOS5_
	.weak_definition __ZSt4moveIRSaISt10_List_nodeIiEEEONSt16remove_referenceIT_E4typeEOS5_
__ZSt4moveIRSaISt10_List_nodeIiEEEONSt16remove_referenceIT_E4typeEOS5_:
LFB5409:
	sub	sp, sp, #16
LCFI725:
	str	x0, [sp, 8]
	ldr	x0, [sp, 8]
	add	sp, sp, 16
LCFI726:
	ret
LFE5409:
	.align	2
	.globl __ZNSt7__cxx1110_List_baseIiSaIiEE10_List_implC1EOSaISt10_List_nodeIiEE
	.weak_definition __ZNSt7__cxx1110_List_baseIiSaIiEE10_List_implC1EOSaISt10_List_nodeIiEE
__ZNSt7__cxx1110_List_baseIiSaIiEE10_List_implC1EOSaISt10_List_nodeIiEE:
LFB5412:
	stp	x29, x30, [sp, -32]!
LCFI727:
	mov	x29, sp
	str	x0, [sp, 24]
	str	x1, [sp, 16]
	ldr	x0, [sp, 16]
	bl	__ZSt4moveIRSaISt10_List_nodeIiEEEONSt16remove_referenceIT_E4typeEOS5_
	mov	x1, x0
	ldr	x0, [sp, 24]
	bl	__ZNSaISt10_List_nodeIiEEC2ERKS1_
	ldr	x0, [sp, 24]
	bl	__ZNSt8__detail17_List_node_headerC1Ev
	nop
	ldp	x29, x30, [sp], 32
LCFI728:
	ret
LFE5412:
	.align	2
	.globl __ZNSt20_List_const_iteratorIiEC1EPKNSt8__detail15_List_node_baseE
	.weak_definition __ZNSt20_List_const_iteratorIiEC1EPKNSt8__detail15_List_node_baseE
__ZNSt20_List_const_iteratorIiEC1EPKNSt8__detail15_List_node_baseE:
LFB5415:
	sub	sp, sp, #16
LCFI729:
	str	x0, [sp, 8]
	str	x1, [sp]
	ldr	x0, [sp, 8]
	ldr	x1, [sp]
	str	x1, [x0]
	nop
	add	sp, sp, 16
LCFI730:
	ret
LFE5415:
	.align	2
	.globl __ZStneRKSt20_List_const_iteratorIiES2_
	.weak_definition __ZStneRKSt20_List_const_iteratorIiES2_
__ZStneRKSt20_List_const_iteratorIiES2_:
LFB5416:
	sub	sp, sp, #16
LCFI731:
	str	x0, [sp, 8]
	str	x1, [sp]
	ldr	x0, [sp, 8]
	ldr	x1, [x0]
	ldr	x0, [sp]
	ldr	x0, [x0]
	cmp	x1, x0
	cset	w0, ne
	and	w0, w0, 255
	add	sp, sp, 16
LCFI732:
	ret
LFE5416:
	.align	2
	.globl __ZNSt20_List_const_iteratorIiEppEv
	.weak_definition __ZNSt20_List_const_iteratorIiEppEv
__ZNSt20_List_const_iteratorIiEppEv:
LFB5417:
	sub	sp, sp, #16
LCFI733:
	str	x0, [sp, 8]
	ldr	x0, [sp, 8]
	ldr	x0, [x0]
	ldr	x1, [x0]
	ldr	x0, [sp, 8]
	str	x1, [x0]
	ldr	x0, [sp, 8]
	add	sp, sp, 16
LCFI734:
	ret
LFE5417:
	.align	2
	.globl __ZNKSt20_List_const_iteratorIiEdeEv
	.weak_definition __ZNKSt20_List_const_iteratorIiEdeEv
__ZNKSt20_List_const_iteratorIiEdeEv:
LFB5418:
	stp	x29, x30, [sp, -32]!
LCFI735:
	mov	x29, sp
	str	x0, [sp, 24]
	ldr	x0, [sp, 24]
	ldr	x0, [x0]
	bl	__ZNKSt10_List_nodeIiE9_M_valptrEv
	ldp	x29, x30, [sp], 32
LCFI736:
	ret
LFE5418:
	.align	2
	.globl __ZNSt7__cxx114listIiSaIiEE12emplace_backIJRKiEEERiDpOT_
	.weak_definition __ZNSt7__cxx114listIiSaIiEE12emplace_backIJRKiEEERiDpOT_
__ZNSt7__cxx114listIiSaIiEE12emplace_backIJRKiEEERiDpOT_:
LFB5419:
	stp	x29, x30, [sp, -48]!
LCFI737:
	mov	x29, sp
	str	x19, [sp, 16]
LCFI738:
	str	x0, [sp, 40]
	str	x1, [sp, 32]
	ldr	x0, [sp, 40]
	bl	__ZNSt7__cxx114listIiSaIiEE3endEv
	mov	x19, x0
	ldr	x0, [sp, 32]
	bl	__ZSt7forwardIRKiEOT_RNSt16remove_referenceIS2_E4typeE
	mov	x2, x0
	mov	x1, x19
	ldr	x0, [sp, 40]
	bl	__ZNSt7__cxx114listIiSaIiEE9_M_insertIJRKiEEEvSt14_List_iteratorIiEDpOT_
	ldr	x0, [sp, 40]
	bl	__ZNSt7__cxx114listIiSaIiEE4backEv
	ldr	x19, [sp, 16]
	ldp	x29, x30, [sp], 48
LCFI739:
	ret
LFE5419:
	.align	2
	.globl __ZNK9__gnu_cxx16__aligned_bufferISt4pairIKiiEE7_M_addrEv
	.weak_definition __ZNK9__gnu_cxx16__aligned_bufferISt4pairIKiiEE7_M_addrEv
__ZNK9__gnu_cxx16__aligned_bufferISt4pairIKiiEE7_M_addrEv:
LFB5420:
	sub	sp, sp, #16
LCFI740:
	str	x0, [sp, 8]
	ldr	x0, [sp, 8]
	add	sp, sp, 16
LCFI741:
	ret
LFE5420:
	.align	2
	.globl __ZNSt16allocator_traitsISaIPNSt8__detail15_Hash_node_baseEEE8allocateERS3_m
	.weak_definition __ZNSt16allocator_traitsISaIPNSt8__detail15_Hash_node_baseEEE8allocateERS3_m
__ZNSt16allocator_traitsISaIPNSt8__detail15_Hash_node_baseEEE8allocateERS3_m:
LFB5421:
	stp	x29, x30, [sp, -32]!
LCFI742:
	mov	x29, sp
	str	x0, [sp, 24]
	str	x1, [sp, 16]
	mov	x2, 0
	ldr	x1, [sp, 16]
	ldr	x0, [sp, 24]
	bl	__ZN9__gnu_cxx13new_allocatorIPNSt8__detail15_Hash_node_baseEE8allocateEmPKv
	ldp	x29, x30, [sp], 32
LCFI743:
	ret
LFE5421:
	.align	2
	.globl __ZSt12__to_addressIPNSt8__detail15_Hash_node_baseEEPT_S4_
	.weak_definition __ZSt12__to_addressIPNSt8__detail15_Hash_node_baseEEPT_S4_
__ZSt12__to_addressIPNSt8__detail15_Hash_node_baseEEPT_S4_:
LFB5422:
	sub	sp, sp, #16
LCFI744:
	str	x0, [sp, 8]
	ldr	x0, [sp, 8]
	add	sp, sp, 16
LCFI745:
	ret
LFE5422:
	.align	2
	.globl __ZNSt20__uninitialized_copyILb0EE13__uninit_copyIN9__gnu_cxx17__normal_iteratorIPK5blockSt6vectorIS4_SaIS4_EEEEPS4_EET0_T_SD_SC_
	.weak_definition __ZNSt20__uninitialized_copyILb0EE13__uninit_copyIN9__gnu_cxx17__normal_iteratorIPK5blockSt6vectorIS4_SaIS4_EEEEPS4_EET0_T_SD_SC_
__ZNSt20__uninitialized_copyILb0EE13__uninit_copyIN9__gnu_cxx17__normal_iteratorIPK5blockSt6vectorIS4_SaIS4_EEEEPS4_EET0_T_SD_SC_:
LFB5423:
	stp	x29, x30, [sp, -80]!
LCFI746:
	mov	x29, sp
	str	x19, [sp, 16]
LCFI747:
	str	x0, [sp, 56]
	str	x1, [sp, 48]
	str	x2, [sp, 40]
	ldr	x0, [sp, 40]
	str	x0, [sp, 72]
	b	L782
L783:
	ldr	x0, [sp, 72]
	bl	__ZSt11__addressofI5blockEPT_RS1_
	mov	x19, x0
	add	x0, sp, 56
	bl	__ZNK9__gnu_cxx17__normal_iteratorIPK5blockSt6vectorIS1_SaIS1_EEEdeEv
	mov	x1, x0
	mov	x0, x19
	bl	__ZSt10_ConstructI5blockJRKS0_EEvPT_DpOT0_
	add	x0, sp, 56
	bl	__ZN9__gnu_cxx17__normal_iteratorIPK5blockSt6vectorIS1_SaIS1_EEEppEv
	ldr	x0, [sp, 72]
	add	x0, x0, 16
	str	x0, [sp, 72]
L782:
	add	x1, sp, 48
	add	x0, sp, 56
	bl	__ZN9__gnu_cxxneIPK5blockSt6vectorIS1_SaIS1_EEEEbRKNS_17__normal_iteratorIT_T0_EESC_
	and	w0, w0, 255
	cmp	w0, 0
	bne	L783
	ldr	x0, [sp, 72]
	ldr	x19, [sp, 16]
	ldp	x29, x30, [sp], 80
LCFI748:
	ret
LFE5423:
	.align	2
	.globl __ZNSaINSt8__detail10_Hash_nodeISt4pairIKiiELb0EEEEC2ERKS5_
	.weak_definition __ZNSaINSt8__detail10_Hash_nodeISt4pairIKiiELb0EEEEC2ERKS5_
__ZNSaINSt8__detail10_Hash_nodeISt4pairIKiiELb0EEEEC2ERKS5_:
LFB5425:
	stp	x29, x30, [sp, -32]!
LCFI749:
	mov	x29, sp
	str	x0, [sp, 24]
	str	x1, [sp, 16]
	ldr	x1, [sp, 16]
	ldr	x0, [sp, 24]
	bl	__ZN9__gnu_cxx13new_allocatorINSt8__detail10_Hash_nodeISt4pairIKiiELb0EEEEC2ERKS7_
	nop
	ldp	x29, x30, [sp], 32
LCFI750:
	ret
LFE5425:
	.align	2
	.globl __ZNSaINSt8__detail10_Hash_nodeISt4pairIKiiELb0EEEEC1ERKS5_
	.weak_definition __ZNSaINSt8__detail10_Hash_nodeISt4pairIKiiELb0EEEEC1ERKS5_
__ZNSaINSt8__detail10_Hash_nodeISt4pairIKiiELb0EEEEC1ERKS5_:
LFB5426:
	stp	x29, x30, [sp, -32]!
LCFI751:
	mov	x29, sp
	str	x0, [sp, 24]
	str	x1, [sp, 16]
	ldr	x1, [sp, 16]
	ldr	x0, [sp, 24]
	bl	__ZN9__gnu_cxx13new_allocatorINSt8__detail10_Hash_nodeISt4pairIKiiELb0EEEEC2ERKS7_
	nop
	ldp	x29, x30, [sp], 32
LCFI752:
	ret
LFE5426:
	.align	2
	.globl __ZSt4moveIRSt4pairIKiiEEONSt16remove_referenceIT_E4typeEOS5_
	.weak_definition __ZSt4moveIRSt4pairIKiiEEONSt16remove_referenceIT_E4typeEOS5_
__ZSt4moveIRSt4pairIKiiEEONSt16remove_referenceIT_E4typeEOS5_:
LFB5427:
	sub	sp, sp, #16
LCFI753:
	str	x0, [sp, 8]
	ldr	x0, [sp, 8]
	add	sp, sp, 16
LCFI754:
	ret
LFE5427:
	.align	2
	.globl __ZNSt8__detail16_Hashtable_allocISaINS_10_Hash_nodeISt4pairIKiiELb0EEEEE16_M_allocate_nodeIJRKS4_EEEPS5_DpOT_
	.weak_definition __ZNSt8__detail16_Hashtable_allocISaINS_10_Hash_nodeISt4pairIKiiELb0EEEEE16_M_allocate_nodeIJRKS4_EEEPS5_DpOT_
__ZNSt8__detail16_Hashtable_allocISaINS_10_Hash_nodeISt4pairIKiiELb0EEEEE16_M_allocate_nodeIJRKS4_EEEPS5_DpOT_:
LFB5428:
	stp	x29, x30, [sp, -64]!
LCFI755:
	mov	x29, sp
	stp	x19, x20, [sp, 16]
LCFI756:
	str	x0, [sp, 40]
	str	x1, [sp, 32]
	ldr	x0, [sp, 40]
	bl	__ZNSt8__detail16_Hashtable_allocISaINS_10_Hash_nodeISt4pairIKiiELb0EEEEE17_M_node_allocatorEv
	mov	x1, 1
	bl	__ZNSt16allocator_traitsISaINSt8__detail10_Hash_nodeISt4pairIKiiELb0EEEEE8allocateERS6_m
	str	x0, [sp, 56]
	ldr	x0, [sp, 56]
	bl	__ZSt12__to_addressINSt8__detail10_Hash_nodeISt4pairIKiiELb0EEEEPT_S7_
	str	x0, [sp, 48]
	ldr	x0, [sp, 48]
	mov	x1, x0
	mov	x0, 16
	bl	__ZnwmPv
	bl	__ZNSt8__detail10_Hash_nodeISt4pairIKiiELb0EEC1Ev
	ldr	x0, [sp, 40]
	bl	__ZNSt8__detail16_Hashtable_allocISaINS_10_Hash_nodeISt4pairIKiiELb0EEEEE17_M_node_allocatorEv
	mov	x19, x0
	ldr	x0, [sp, 48]
	add	x0, x0, 8
	bl	__ZNSt8__detail21_Hash_node_value_baseISt4pairIKiiEE9_M_valptrEv
	mov	x20, x0
	ldr	x0, [sp, 32]
	bl	__ZSt7forwardIRKSt4pairIKiiEEOT_RNSt16remove_referenceIS5_E4typeE
	mov	x2, x0
	mov	x1, x20
	mov	x0, x19
	bl	__ZNSt16allocator_traitsISaINSt8__detail10_Hash_nodeISt4pairIKiiELb0EEEEE9constructIS4_JRKS4_EEEvRS6_PT_DpOT0_
	ldr	x0, [sp, 48]
	ldp	x19, x20, [sp, 16]
	ldp	x29, x30, [sp], 64
LCFI757:
	ret
LFE5428:
	.align	2
	.globl __ZNSt10_HashtableIiSt4pairIKiiESaIS2_ENSt8__detail10_Select1stESt8equal_toIiESt4hashIiENS4_18_Mod_range_hashingENS4_20_Default_ranged_hashENS4_20_Prime_rehash_policyENS4_17_Hashtable_traitsILb0ELb0ELb1EEEE16_M_update_bbeginEv
	.weak_definition __ZNSt10_HashtableIiSt4pairIKiiESaIS2_ENSt8__detail10_Select1stESt8equal_toIiESt4hashIiENS4_18_Mod_range_hashingENS4_20_Default_ranged_hashENS4_20_Prime_rehash_policyENS4_17_Hashtable_traitsILb0ELb0ELb1EEEE16_M_update_bbeginEv
__ZNSt10_HashtableIiSt4pairIKiiESaIS2_ENSt8__detail10_Select1stESt8equal_toIiESt4hashIiENS4_18_Mod_range_hashingENS4_20_Default_ranged_hashENS4_20_Prime_rehash_policyENS4_17_Hashtable_traitsILb0ELb0ELb1EEEE16_M_update_bbeginEv:
LFB5429:
	stp	x29, x30, [sp, -48]!
LCFI758:
	mov	x29, sp
	stp	x19, x20, [sp, 16]
LCFI759:
	str	x0, [sp, 40]
	ldr	x0, [sp, 40]
	bl	__ZNKSt10_HashtableIiSt4pairIKiiESaIS2_ENSt8__detail10_Select1stESt8equal_toIiESt4hashIiENS4_18_Mod_range_hashingENS4_20_Default_ranged_hashENS4_20_Prime_rehash_policyENS4_17_Hashtable_traitsILb0ELb0ELb1EEEE8_M_beginEv
	cmp	x0, 0
	cset	w0, ne
	and	w0, w0, 255
	cmp	w0, 0
	beq	L793
	ldr	x0, [sp, 40]
	add	x19, x0, 16
	ldr	x0, [sp, 40]
	ldr	x20, [x0]
	ldr	x0, [sp, 40]
	bl	__ZNKSt10_HashtableIiSt4pairIKiiESaIS2_ENSt8__detail10_Select1stESt8equal_toIiESt4hashIiENS4_18_Mod_range_hashingENS4_20_Default_ranged_hashENS4_20_Prime_rehash_policyENS4_17_Hashtable_traitsILb0ELb0ELb1EEEE8_M_beginEv
	add	x0, x0, 8
	mov	x1, x0
	ldr	x0, [sp, 40]
	bl	__ZNKSt10_HashtableIiSt4pairIKiiESaIS2_ENSt8__detail10_Select1stESt8equal_toIiESt4hashIiENS4_18_Mod_range_hashingENS4_20_Default_ranged_hashENS4_20_Prime_rehash_policyENS4_17_Hashtable_traitsILb0ELb0ELb1EEEE15_M_bucket_indexERKNS4_16_Hash_node_valueIS2_Lb0EEE
	lsl	x0, x0, 3
	add	x0, x20, x0
	str	x19, [x0]
L793:
	nop
	ldp	x19, x20, [sp, 16]
	ldp	x29, x30, [sp], 48
LCFI760:
	ret
LFE5429:
	.align	2
	.globl __ZNSaISt10_List_nodeIiEEC2ERKS1_
	.weak_definition __ZNSaISt10_List_nodeIiEEC2ERKS1_
__ZNSaISt10_List_nodeIiEEC2ERKS1_:
LFB5431:
	stp	x29, x30, [sp, -32]!
LCFI761:
	mov	x29, sp
	str	x0, [sp, 24]
	str	x1, [sp, 16]
	ldr	x1, [sp, 16]
	ldr	x0, [sp, 24]
	bl	__ZN9__gnu_cxx13new_allocatorISt10_List_nodeIiEEC2ERKS3_
	nop
	ldp	x29, x30, [sp], 32
LCFI762:
	ret
LFE5431:
	.align	2
	.globl __ZNSaISt10_List_nodeIiEEC1ERKS1_
	.weak_definition __ZNSaISt10_List_nodeIiEEC1ERKS1_
__ZNSaISt10_List_nodeIiEEC1ERKS1_:
LFB5432:
	stp	x29, x30, [sp, -32]!
LCFI763:
	mov	x29, sp
	str	x0, [sp, 24]
	str	x1, [sp, 16]
	ldr	x1, [sp, 16]
	ldr	x0, [sp, 24]
	bl	__ZN9__gnu_cxx13new_allocatorISt10_List_nodeIiEEC2ERKS3_
	nop
	ldp	x29, x30, [sp], 32
LCFI764:
	ret
LFE5432:
	.align	2
	.globl __ZNKSt10_List_nodeIiE9_M_valptrEv
	.weak_definition __ZNKSt10_List_nodeIiE9_M_valptrEv
__ZNKSt10_List_nodeIiE9_M_valptrEv:
LFB5433:
	stp	x29, x30, [sp, -32]!
LCFI765:
	mov	x29, sp
	str	x0, [sp, 24]
	ldr	x0, [sp, 24]
	add	x0, x0, 16
	bl	__ZNK9__gnu_cxx16__aligned_membufIiE6_M_ptrEv
	ldp	x29, x30, [sp], 32
LCFI766:
	ret
LFE5433:
	.align	2
	.globl __ZNSt7__cxx114listIiSaIiEE4backEv
	.weak_definition __ZNSt7__cxx114listIiSaIiEE4backEv
__ZNSt7__cxx114listIiSaIiEE4backEv:
LFB5434:
	stp	x29, x30, [sp, -48]!
LCFI767:
	mov	x29, sp
	str	x0, [sp, 24]
	ldr	x0, [sp, 24]
	bl	__ZNSt7__cxx114listIiSaIiEE3endEv
	str	x0, [sp, 40]
	add	x0, sp, 40
	bl	__ZNSt14_List_iteratorIiEmmEv
	add	x0, sp, 40
	bl	__ZNKSt14_List_iteratorIiEdeEv
	ldp	x29, x30, [sp], 48
LCFI768:
	ret
LFE5434:
	.align	2
	.globl __ZNK9__gnu_cxx13new_allocatorIPNSt8__detail15_Hash_node_baseEE11_M_max_sizeEv
	.weak_definition __ZNK9__gnu_cxx13new_allocatorIPNSt8__detail15_Hash_node_baseEE11_M_max_sizeEv
__ZNK9__gnu_cxx13new_allocatorIPNSt8__detail15_Hash_node_baseEE11_M_max_sizeEv:
LFB5436:
	sub	sp, sp, #16
LCFI769:
	str	x0, [sp, 8]
	mov	x0, 1152921504606846975
	add	sp, sp, 16
LCFI770:
	ret
LFE5436:
	.align	2
	.globl __ZN9__gnu_cxx13new_allocatorIPNSt8__detail15_Hash_node_baseEE8allocateEmPKv
	.weak_definition __ZN9__gnu_cxx13new_allocatorIPNSt8__detail15_Hash_node_baseEE8allocateEmPKv
__ZN9__gnu_cxx13new_allocatorIPNSt8__detail15_Hash_node_baseEE8allocateEmPKv:
LFB5435:
	stp	x29, x30, [sp, -48]!
LCFI771:
	mov	x29, sp
	str	x0, [sp, 40]
	str	x1, [sp, 32]
	str	x2, [sp, 24]
	ldr	x0, [sp, 40]
	bl	__ZNK9__gnu_cxx13new_allocatorIPNSt8__detail15_Hash_node_baseEE11_M_max_sizeEv
	mov	x1, x0
	ldr	x0, [sp, 32]
	cmp	x0, x1
	cset	w0, hi
	and	w0, w0, 255
	and	x0, x0, 255
	cmp	x0, 0
	cset	w0, ne
	and	w0, w0, 255
	cmp	w0, 0
	beq	L803
	ldr	x1, [sp, 32]
	mov	x0, 2305843009213693951
	cmp	x1, x0
	bls	L804
	bl	__ZSt28__throw_bad_array_new_lengthv
L804:
	bl	__ZSt17__throw_bad_allocv
L803:
	ldr	x0, [sp, 32]
	lsl	x0, x0, 3
	bl	__Znwm
	nop
	ldp	x29, x30, [sp], 48
LCFI772:
	ret
LFE5435:
	.align	2
	.globl __ZN9__gnu_cxxneIPK5blockSt6vectorIS1_SaIS1_EEEEbRKNS_17__normal_iteratorIT_T0_EESC_
	.weak_definition __ZN9__gnu_cxxneIPK5blockSt6vectorIS1_SaIS1_EEEEbRKNS_17__normal_iteratorIT_T0_EESC_
__ZN9__gnu_cxxneIPK5blockSt6vectorIS1_SaIS1_EEEEbRKNS_17__normal_iteratorIT_T0_EESC_:
LFB5437:
	stp	x29, x30, [sp, -48]!
LCFI773:
	mov	x29, sp
	str	x19, [sp, 16]
LCFI774:
	str	x0, [sp, 40]
	str	x1, [sp, 32]
	ldr	x0, [sp, 40]
	bl	__ZNK9__gnu_cxx17__normal_iteratorIPK5blockSt6vectorIS1_SaIS1_EEE4baseEv
	ldr	x19, [x0]
	ldr	x0, [sp, 32]
	bl	__ZNK9__gnu_cxx17__normal_iteratorIPK5blockSt6vectorIS1_SaIS1_EEE4baseEv
	ldr	x0, [x0]
	cmp	x19, x0
	cset	w0, ne
	and	w0, w0, 255
	ldr	x19, [sp, 16]
	ldp	x29, x30, [sp], 48
LCFI775:
	ret
LFE5437:
	.align	2
	.globl __ZN9__gnu_cxx17__normal_iteratorIPK5blockSt6vectorIS1_SaIS1_EEEppEv
	.weak_definition __ZN9__gnu_cxx17__normal_iteratorIPK5blockSt6vectorIS1_SaIS1_EEEppEv
__ZN9__gnu_cxx17__normal_iteratorIPK5blockSt6vectorIS1_SaIS1_EEEppEv:
LFB5438:
	sub	sp, sp, #16
LCFI776:
	str	x0, [sp, 8]
	ldr	x0, [sp, 8]
	ldr	x0, [x0]
	add	x1, x0, 16
	ldr	x0, [sp, 8]
	str	x1, [x0]
	ldr	x0, [sp, 8]
	add	sp, sp, 16
LCFI777:
	ret
LFE5438:
	.align	2
	.globl __ZNK9__gnu_cxx17__normal_iteratorIPK5blockSt6vectorIS1_SaIS1_EEEdeEv
	.weak_definition __ZNK9__gnu_cxx17__normal_iteratorIPK5blockSt6vectorIS1_SaIS1_EEEdeEv
__ZNK9__gnu_cxx17__normal_iteratorIPK5blockSt6vectorIS1_SaIS1_EEEdeEv:
LFB5439:
	sub	sp, sp, #16
LCFI778:
	str	x0, [sp, 8]
	ldr	x0, [sp, 8]
	ldr	x0, [x0]
	add	sp, sp, 16
LCFI779:
	ret
LFE5439:
	.align	2
	.globl __ZN9__gnu_cxx13new_allocatorINSt8__detail10_Hash_nodeISt4pairIKiiELb0EEEEC2ERKS7_
	.weak_definition __ZN9__gnu_cxx13new_allocatorINSt8__detail10_Hash_nodeISt4pairIKiiELb0EEEEC2ERKS7_
__ZN9__gnu_cxx13new_allocatorINSt8__detail10_Hash_nodeISt4pairIKiiELb0EEEEC2ERKS7_:
LFB5441:
	sub	sp, sp, #16
LCFI780:
	str	x0, [sp, 8]
	str	x1, [sp]
	nop
	add	sp, sp, 16
LCFI781:
	ret
LFE5441:
	.align	2
	.globl __ZNSt16allocator_traitsISaINSt8__detail10_Hash_nodeISt4pairIKiiELb0EEEEE9constructIS4_JRKS4_EEEvRS6_PT_DpOT0_
	.weak_definition __ZNSt16allocator_traitsISaINSt8__detail10_Hash_nodeISt4pairIKiiELb0EEEEE9constructIS4_JRKS4_EEEvRS6_PT_DpOT0_
__ZNSt16allocator_traitsISaINSt8__detail10_Hash_nodeISt4pairIKiiELb0EEEEE9constructIS4_JRKS4_EEEvRS6_PT_DpOT0_:
LFB5443:
	stp	x29, x30, [sp, -48]!
LCFI782:
	mov	x29, sp
	str	x0, [sp, 40]
	str	x1, [sp, 32]
	str	x2, [sp, 24]
	ldr	x0, [sp, 24]
	bl	__ZSt7forwardIRKSt4pairIKiiEEOT_RNSt16remove_referenceIS5_E4typeE
	mov	x2, x0
	ldr	x1, [sp, 32]
	ldr	x0, [sp, 40]
	bl	__ZN9__gnu_cxx13new_allocatorINSt8__detail10_Hash_nodeISt4pairIKiiELb0EEEE9constructIS5_JRKS5_EEEvPT_DpOT0_
	nop
	ldp	x29, x30, [sp], 48
LCFI783:
	ret
LFE5443:
	.align	2
	.globl __ZN9__gnu_cxx13new_allocatorISt10_List_nodeIiEEC2ERKS3_
	.weak_definition __ZN9__gnu_cxx13new_allocatorISt10_List_nodeIiEEC2ERKS3_
__ZN9__gnu_cxx13new_allocatorISt10_List_nodeIiEEC2ERKS3_:
LFB5445:
	sub	sp, sp, #16
LCFI784:
	str	x0, [sp, 8]
	str	x1, [sp]
	nop
	add	sp, sp, 16
LCFI785:
	ret
LFE5445:
	.align	2
	.globl __ZNK9__gnu_cxx16__aligned_membufIiE6_M_ptrEv
	.weak_definition __ZNK9__gnu_cxx16__aligned_membufIiE6_M_ptrEv
__ZNK9__gnu_cxx16__aligned_membufIiE6_M_ptrEv:
LFB5447:
	stp	x29, x30, [sp, -32]!
LCFI786:
	mov	x29, sp
	str	x0, [sp, 24]
	ldr	x0, [sp, 24]
	bl	__ZNK9__gnu_cxx16__aligned_membufIiE7_M_addrEv
	ldp	x29, x30, [sp], 32
LCFI787:
	ret
LFE5447:
	.align	2
	.globl __ZNSt14_List_iteratorIiEmmEv
	.weak_definition __ZNSt14_List_iteratorIiEmmEv
__ZNSt14_List_iteratorIiEmmEv:
LFB5448:
	sub	sp, sp, #16
LCFI788:
	str	x0, [sp, 8]
	ldr	x0, [sp, 8]
	ldr	x0, [x0]
	ldr	x1, [x0, 8]
	ldr	x0, [sp, 8]
	str	x1, [x0]
	ldr	x0, [sp, 8]
	add	sp, sp, 16
LCFI789:
	ret
LFE5448:
	.align	2
	.globl __ZNK9__gnu_cxx17__normal_iteratorIPK5blockSt6vectorIS1_SaIS1_EEE4baseEv
	.weak_definition __ZNK9__gnu_cxx17__normal_iteratorIPK5blockSt6vectorIS1_SaIS1_EEE4baseEv
__ZNK9__gnu_cxx17__normal_iteratorIPK5blockSt6vectorIS1_SaIS1_EEE4baseEv:
LFB5449:
	sub	sp, sp, #16
LCFI790:
	str	x0, [sp, 8]
	ldr	x0, [sp, 8]
	add	sp, sp, 16
LCFI791:
	ret
LFE5449:
	.align	2
	.globl __ZN9__gnu_cxx13new_allocatorINSt8__detail10_Hash_nodeISt4pairIKiiELb0EEEE9constructIS5_JRKS5_EEEvPT_DpOT0_
	.weak_definition __ZN9__gnu_cxx13new_allocatorINSt8__detail10_Hash_nodeISt4pairIKiiELb0EEEE9constructIS5_JRKS5_EEEvPT_DpOT0_
__ZN9__gnu_cxx13new_allocatorINSt8__detail10_Hash_nodeISt4pairIKiiELb0EEEE9constructIS5_JRKS5_EEEvPT_DpOT0_:
LFB5450:
	stp	x29, x30, [sp, -64]!
LCFI792:
	mov	x29, sp
	str	x19, [sp, 16]
LCFI793:
	str	x0, [sp, 56]
	str	x1, [sp, 48]
	str	x2, [sp, 40]
	ldr	x0, [sp, 40]
	bl	__ZSt7forwardIRKSt4pairIKiiEEOT_RNSt16remove_referenceIS5_E4typeE
	mov	x19, x0
	ldr	x0, [sp, 48]
	mov	x1, x0
	mov	x0, 8
	bl	__ZnwmPv
	mov	x1, x0
	ldr	x0, [x19]
	str	x0, [x1]
	nop
	ldr	x19, [sp, 16]
	ldp	x29, x30, [sp], 64
LCFI794:
	ret
LFE5450:
	.align	2
	.globl __ZNK9__gnu_cxx16__aligned_membufIiE7_M_addrEv
	.weak_definition __ZNK9__gnu_cxx16__aligned_membufIiE7_M_addrEv
__ZNK9__gnu_cxx16__aligned_membufIiE7_M_addrEv:
LFB5451:
	sub	sp, sp, #16
LCFI795:
	str	x0, [sp, 8]
	ldr	x0, [sp, 8]
	add	sp, sp, 16
LCFI796:
	ret
LFE5451:
	.align	2
__Z41__static_initialization_and_destruction_0ii:
LFB5452:
	stp	x29, x30, [sp, -32]!
LCFI797:
	mov	x29, sp
	str	w0, [sp, 28]
	str	w1, [sp, 24]
	ldr	w0, [sp, 28]
	cmp	w0, 1
	bne	L826
	ldr	w1, [sp, 24]
	mov	w0, 65535
	cmp	w1, w0
	bne	L826
	adrp	x0, __ZStL8__ioinit@PAGE
	add	x0, x0, __ZStL8__ioinit@PAGEOFF;momd
	bl	__ZNSt8ios_base4InitC1Ev
	adrp	x0, ___dso_handle@GOTPAGE
	ldr	x2, [x0, ___dso_handle@GOTPAGEOFF];momd
	adrp	x0, __ZStL8__ioinit@PAGE
	add	x1, x0, __ZStL8__ioinit@PAGEOFF;momd
	adrp	x0, __ZNSt8ios_base4InitD1Ev@GOTPAGE
	ldr	x0, [x0, __ZNSt8ios_base4InitD1Ev@GOTPAGEOFF];momd
	bl	___cxa_atexit
L826:
	nop
	ldp	x29, x30, [sp], 32
LCFI798:
	ret
LFE5452:
	.align	2
__GLOBAL__sub_I_cache.cpp:
LFB5453:
	stp	x29, x30, [sp, -16]!
LCFI799:
	mov	x29, sp
	mov	w1, 65535
	mov	w0, 1
	bl	__Z41__static_initialization_and_destruction_0ii
	ldp	x29, x30, [sp], 16
LCFI800:
	ret
LFE5453:
	.section __TEXT,__eh_frame,coalesced,no_toc+strip_static_syms+live_support
EH_frame1:
	.set L$set$0,LECIE1-LSCIE1
	.long L$set$0
LSCIE1:
	.long	0
	.byte	0x1
	.ascii "zPLR\0"
	.uleb128 0x1
	.sleb128 -8
	.byte	0x1e
	.uleb128 0x7
	.byte	0x9b
	.long	___gxx_personality_v0@GOT-.
	.byte	0x10
	.byte	0x10
	.byte	0xc
	.uleb128 0x1f
	.uleb128 0
	.align	3
LECIE1:
LSFDE1:
	.set L$set$1,LEFDE1-LASFDE1
	.long L$set$1
LASFDE1:
	.long	LASFDE1-EH_frame1
	.quad	LFB1044-.
	.set L$set$2,LFE1044-LFB1044
	.quad L$set$2
	.uleb128 0x8
	.quad	0
	.byte	0x4
	.set L$set$3,LCFI0-LFB1044
	.long L$set$3
	.byte	0xe
	.uleb128 0x10
	.byte	0x4
	.set L$set$4,LCFI1-LCFI0
	.long L$set$4
	.byte	0xe
	.uleb128 0
	.align	3
LEFDE1:
LSFDE3:
	.set L$set$5,LEFDE3-LASFDE3
	.long L$set$5
LASFDE3:
	.long	LASFDE3-EH_frame1
	.quad	LFB1046-.
	.set L$set$6,LFE1046-LFB1046
	.quad L$set$6
	.uleb128 0x8
	.quad	0
	.byte	0x4
	.set L$set$7,LCFI2-LFB1046
	.long L$set$7
	.byte	0xe
	.uleb128 0x10
	.byte	0x4
	.set L$set$8,LCFI3-LCFI2
	.long L$set$8
	.byte	0xe
	.uleb128 0
	.align	3
LEFDE3:
LSFDE5:
	.set L$set$9,LEFDE5-LASFDE5
	.long L$set$9
LASFDE5:
	.long	LASFDE5-EH_frame1
	.quad	LFB1107-.
	.set L$set$10,LFE1107-LFB1107
	.quad L$set$10
	.uleb128 0x8
	.quad	0
	.byte	0x4
	.set L$set$11,LCFI4-LFB1107
	.long L$set$11
	.byte	0xe
	.uleb128 0x30
	.byte	0x9d
	.uleb128 0x6
	.byte	0x9e
	.uleb128 0x5
	.byte	0x4
	.set L$set$12,LCFI5-LCFI4
	.long L$set$12
	.byte	0xde
	.byte	0xdd
	.byte	0xe
	.uleb128 0
	.align	3
LEFDE5:
LSFDE7:
	.set L$set$13,LEFDE7-LASFDE7
	.long L$set$13
LASFDE7:
	.long	LASFDE7-EH_frame1
	.quad	LFB1437-.
	.set L$set$14,LFE1437-LFB1437
	.quad L$set$14
	.uleb128 0x8
	.quad	0
	.byte	0x4
	.set L$set$15,LCFI6-LFB1437
	.long L$set$15
	.byte	0xe
	.uleb128 0x10
	.byte	0x4
	.set L$set$16,LCFI7-LCFI6
	.long L$set$16
	.byte	0xe
	.uleb128 0
	.align	3
LEFDE7:
LSFDE9:
	.set L$set$17,LEFDE9-LASFDE9
	.long L$set$17
LASFDE9:
	.long	LASFDE9-EH_frame1
	.quad	LFB1766-.
	.set L$set$18,LFE1766-LFB1766
	.quad L$set$18
	.uleb128 0x8
	.quad	0
	.byte	0x4
	.set L$set$19,LCFI8-LFB1766
	.long L$set$19
	.byte	0xe
	.uleb128 0x30
	.byte	0x9d
	.uleb128 0x6
	.byte	0x9e
	.uleb128 0x5
	.byte	0x4
	.set L$set$20,LCFI9-LCFI8
	.long L$set$20
	.byte	0xde
	.byte	0xdd
	.byte	0xe
	.uleb128 0
	.align	3
LEFDE9:
LSFDE11:
	.set L$set$21,LEFDE11-LASFDE11
	.long L$set$21
LASFDE11:
	.long	LASFDE11-EH_frame1
	.quad	LFB1951-.
	.set L$set$22,LFE1951-LFB1951
	.quad L$set$22
	.uleb128 0x8
	.quad	0
	.byte	0x4
	.set L$set$23,LCFI10-LFB1951
	.long L$set$23
	.byte	0xe
	.uleb128 0x10
	.byte	0x4
	.set L$set$24,LCFI11-LCFI10
	.long L$set$24
	.byte	0xe
	.uleb128 0
	.align	3
LEFDE11:
LSFDE13:
	.set L$set$25,LEFDE13-LASFDE13
	.long L$set$25
LASFDE13:
	.long	LASFDE13-EH_frame1
	.quad	LFB1952-.
	.set L$set$26,LFE1952-LFB1952
	.quad L$set$26
	.uleb128 0x8
	.quad	0
	.byte	0x4
	.set L$set$27,LCFI12-LFB1952
	.long L$set$27
	.byte	0xe
	.uleb128 0x10
	.byte	0x4
	.set L$set$28,LCFI13-LCFI12
	.long L$set$28
	.byte	0xe
	.uleb128 0
	.align	3
LEFDE13:
LSFDE15:
	.set L$set$29,LEFDE15-LASFDE15
	.long L$set$29
LASFDE15:
	.long	LASFDE15-EH_frame1
	.quad	LFB1954-.
	.set L$set$30,LFE1954-LFB1954
	.quad L$set$30
	.uleb128 0x8
	.quad	0
	.byte	0x4
	.set L$set$31,LCFI14-LFB1954
	.long L$set$31
	.byte	0xe
	.uleb128 0x10
	.byte	0x4
	.set L$set$32,LCFI15-LCFI14
	.long L$set$32
	.byte	0xe
	.uleb128 0
	.align	3
LEFDE15:
LSFDE17:
	.set L$set$33,LEFDE17-LASFDE17
	.long L$set$33
LASFDE17:
	.long	LASFDE17-EH_frame1
	.quad	LFB1955-.
	.set L$set$34,LFE1955-LFB1955
	.quad L$set$34
	.uleb128 0x8
	.quad	0
	.byte	0x4
	.set L$set$35,LCFI16-LFB1955
	.long L$set$35
	.byte	0xe
	.uleb128 0x20
	.byte	0x9d
	.uleb128 0x4
	.byte	0x9e
	.uleb128 0x3
	.byte	0x4
	.set L$set$36,LCFI17-LCFI16
	.long L$set$36
	.byte	0xde
	.byte	0xdd
	.byte	0xe
	.uleb128 0
	.align	3
LEFDE17:
LSFDE19:
	.set L$set$37,LEFDE19-LASFDE19
	.long L$set$37
LASFDE19:
	.long	LASFDE19-EH_frame1
	.quad	LFB1956-.
	.set L$set$38,LFE1956-LFB1956
	.quad L$set$38
	.uleb128 0x8
	.quad	0
	.byte	0x4
	.set L$set$39,LCFI18-LFB1956
	.long L$set$39
	.byte	0xe
	.uleb128 0x20
	.byte	0x9d
	.uleb128 0x4
	.byte	0x9e
	.uleb128 0x3
	.byte	0x4
	.set L$set$40,LCFI19-LCFI18
	.long L$set$40
	.byte	0xde
	.byte	0xdd
	.byte	0xe
	.uleb128 0
	.align	3
LEFDE19:
LSFDE21:
	.set L$set$41,LEFDE21-LASFDE21
	.long L$set$41
LASFDE21:
	.long	LASFDE21-EH_frame1
	.quad	LFB1985-.
	.set L$set$42,LFE1985-LFB1985
	.quad L$set$42
	.uleb128 0x8
	.quad	0
	.byte	0x4
	.set L$set$43,LCFI20-LFB1985
	.long L$set$43
	.byte	0xe
	.uleb128 0x30
	.byte	0x9d
	.uleb128 0x6
	.byte	0x9e
	.uleb128 0x5
	.byte	0x4
	.set L$set$44,LCFI21-LCFI20
	.long L$set$44
	.byte	0xde
	.byte	0xdd
	.byte	0xe
	.uleb128 0
	.align	3
LEFDE21:
LSFDE23:
	.set L$set$45,LEFDE23-LASFDE23
	.long L$set$45
LASFDE23:
	.long	LASFDE23-EH_frame1
	.quad	LFB2013-.
	.set L$set$46,LFE2013-LFB2013
	.quad L$set$46
	.uleb128 0x8
	.quad	0
	.byte	0x4
	.set L$set$47,LCFI22-LFB2013
	.long L$set$47
	.byte	0xe
	.uleb128 0x20
	.byte	0x9d
	.uleb128 0x4
	.byte	0x9e
	.uleb128 0x3
	.byte	0x4
	.set L$set$48,LCFI23-LCFI22
	.long L$set$48
	.byte	0xde
	.byte	0xdd
	.byte	0xe
	.uleb128 0
	.align	3
LEFDE23:
LSFDE25:
	.set L$set$49,LEFDE25-LASFDE25
	.long L$set$49
LASFDE25:
	.long	LASFDE25-EH_frame1
	.quad	LFB3015-.
	.set L$set$50,LFE3015-LFB3015
	.quad L$set$50
	.uleb128 0x8
	.quad	0
	.byte	0x4
	.set L$set$51,LCFI24-LFB3015
	.long L$set$51
	.byte	0xe
	.uleb128 0x10
	.byte	0x4
	.set L$set$52,LCFI25-LCFI24
	.long L$set$52
	.byte	0xe
	.uleb128 0
	.align	3
LEFDE25:
LSFDE27:
	.set L$set$53,LEFDE27-LASFDE27
	.long L$set$53
LASFDE27:
	.long	LASFDE27-EH_frame1
	.quad	LFB3016-.
	.set L$set$54,LFE3016-LFB3016
	.quad L$set$54
	.uleb128 0x8
	.quad	0
	.byte	0x4
	.set L$set$55,LCFI26-LFB3016
	.long L$set$55
	.byte	0xe
	.uleb128 0x10
	.byte	0x4
	.set L$set$56,LCFI27-LCFI26
	.long L$set$56
	.byte	0xe
	.uleb128 0
	.align	3
LEFDE27:
LSFDE29:
	.set L$set$57,LEFDE29-LASFDE29
	.long L$set$57
LASFDE29:
	.long	LASFDE29-EH_frame1
	.quad	LFB3041-.
	.set L$set$58,LFE3041-LFB3041
	.quad L$set$58
	.uleb128 0x8
	.quad	0
	.byte	0x4
	.set L$set$59,LCFI28-LFB3041
	.long L$set$59
	.byte	0xe
	.uleb128 0x20
	.byte	0x4
	.set L$set$60,LCFI29-LCFI28
	.long L$set$60
	.byte	0xe
	.uleb128 0
	.align	3
LEFDE29:
LSFDE31:
	.set L$set$61,LEFDE31-LASFDE31
	.long L$set$61
LASFDE31:
	.long	LASFDE31-EH_frame1
	.quad	LFB3044-.
	.set L$set$62,LFE3044-LFB3044
	.quad L$set$62
	.uleb128 0x8
	.quad	0
	.byte	0x4
	.set L$set$63,LCFI30-LFB3044
	.long L$set$63
	.byte	0xe
	.uleb128 0x10
	.byte	0x4
	.set L$set$64,LCFI31-LCFI30
	.long L$set$64
	.byte	0xe
	.uleb128 0
	.align	3
LEFDE31:
LSFDE33:
	.set L$set$65,LEFDE33-LASFDE33
	.long L$set$65
LASFDE33:
	.long	LASFDE33-EH_frame1
	.quad	LFB3047-.
	.set L$set$66,LFE3047-LFB3047
	.quad L$set$66
	.uleb128 0x8
	.quad	0
	.byte	0x4
	.set L$set$67,LCFI32-LFB3047
	.long L$set$67
	.byte	0xe
	.uleb128 0x10
	.byte	0x4
	.set L$set$68,LCFI33-LCFI32
	.long L$set$68
	.byte	0xe
	.uleb128 0
	.align	3
LEFDE33:
LSFDE35:
	.set L$set$69,LEFDE35-LASFDE35
	.long L$set$69
LASFDE35:
	.long	LASFDE35-EH_frame1
	.quad	LFB3049-.
	.set L$set$70,LFE3049-LFB3049
	.quad L$set$70
	.uleb128 0x8
	.quad	0
	.byte	0x4
	.set L$set$71,LCFI34-LFB3049
	.long L$set$71
	.byte	0xe
	.uleb128 0x10
	.byte	0x4
	.set L$set$72,LCFI35-LCFI34
	.long L$set$72
	.byte	0xe
	.uleb128 0
	.align	3
LEFDE35:
LSFDE37:
	.set L$set$73,LEFDE37-LASFDE37
	.long L$set$73
LASFDE37:
	.long	LASFDE37-EH_frame1
	.quad	LFB3057-.
	.set L$set$74,LFE3057-LFB3057
	.quad L$set$74
	.uleb128 0x8
	.quad	0
	.byte	0x4
	.set L$set$75,LCFI36-LFB3057
	.long L$set$75
	.byte	0xe
	.uleb128 0x10
	.byte	0x4
	.set L$set$76,LCFI37-LCFI36
	.long L$set$76
	.byte	0xe
	.uleb128 0
	.align	3
LEFDE37:
LSFDE39:
	.set L$set$77,LEFDE39-LASFDE39
	.long L$set$77
LASFDE39:
	.long	LASFDE39-EH_frame1
	.quad	LFB3897-.
	.set L$set$78,LFE3897-LFB3897
	.quad L$set$78
	.uleb128 0x8
	.quad	0
	.byte	0x4
	.set L$set$79,LCFI38-LFB3897
	.long L$set$79
	.byte	0xe
	.uleb128 0x20
	.byte	0x9d
	.uleb128 0x4
	.byte	0x9e
	.uleb128 0x3
	.byte	0x4
	.set L$set$80,LCFI39-LCFI38
	.long L$set$80
	.byte	0xde
	.byte	0xdd
	.byte	0xe
	.uleb128 0
	.align	3
LEFDE39:
LSFDE41:
	.set L$set$81,LEFDE41-LASFDE41
	.long L$set$81
LASFDE41:
	.long	LASFDE41-EH_frame1
	.quad	LFB3902-.
	.set L$set$82,LFE3902-LFB3902
	.quad L$set$82
	.uleb128 0x8
	.quad	0
	.byte	0x4
	.set L$set$83,LCFI40-LFB3902
	.long L$set$83
	.byte	0xe
	.uleb128 0x10
	.byte	0x4
	.set L$set$84,LCFI41-LCFI40
	.long L$set$84
	.byte	0xe
	.uleb128 0
	.align	3
LEFDE41:
LSFDE43:
	.set L$set$85,LEFDE43-LASFDE43
	.long L$set$85
LASFDE43:
	.long	LASFDE43-EH_frame1
	.quad	LFB4184-.
	.set L$set$86,LFE4184-LFB4184
	.quad L$set$86
	.uleb128 0x8
	.quad	0
	.byte	0x4
	.set L$set$87,LCFI42-LFB4184
	.long L$set$87
	.byte	0xe
	.uleb128 0x10
	.byte	0x4
	.set L$set$88,LCFI43-LCFI42
	.long L$set$88
	.byte	0xe
	.uleb128 0
	.align	3
LEFDE43:
LSFDE45:
	.set L$set$89,LEFDE45-LASFDE45
	.long L$set$89
LASFDE45:
	.long	LASFDE45-EH_frame1
	.quad	LFB4187-.
	.set L$set$90,LFE4187-LFB4187
	.quad L$set$90
	.uleb128 0x8
	.quad	0
	.byte	0x4
	.set L$set$91,LCFI44-LFB4187
	.long L$set$91
	.byte	0xe
	.uleb128 0x10
	.byte	0x4
	.set L$set$92,LCFI45-LCFI44
	.long L$set$92
	.byte	0xe
	.uleb128 0
	.align	3
LEFDE45:
LSFDE47:
	.set L$set$93,LEFDE47-LASFDE47
	.long L$set$93
LASFDE47:
	.long	LASFDE47-EH_frame1
	.quad	LFB4193-.
	.set L$set$94,LFE4193-LFB4193
	.quad L$set$94
	.uleb128 0x8
	.quad	0
	.byte	0x4
	.set L$set$95,LCFI46-LFB4193
	.long L$set$95
	.byte	0xe
	.uleb128 0x20
	.byte	0x9d
	.uleb128 0x4
	.byte	0x9e
	.uleb128 0x3
	.byte	0x4
	.set L$set$96,LCFI47-LCFI46
	.long L$set$96
	.byte	0xde
	.byte	0xdd
	.byte	0xe
	.uleb128 0
	.align	3
LEFDE47:
LSFDE49:
	.set L$set$97,LEFDE49-LASFDE49
	.long L$set$97
LASFDE49:
	.long	LASFDE49-EH_frame1
	.quad	LFB4196-.
	.set L$set$98,LFE4196-LFB4196
	.quad L$set$98
	.uleb128 0x8
	.quad	0
	.byte	0x4
	.set L$set$99,LCFI48-LFB4196
	.long L$set$99
	.byte	0xe
	.uleb128 0x20
	.byte	0x9d
	.uleb128 0x4
	.byte	0x9e
	.uleb128 0x3
	.byte	0x4
	.set L$set$100,LCFI49-LCFI48
	.long L$set$100
	.byte	0xde
	.byte	0xdd
	.byte	0xe
	.uleb128 0
	.align	3
LEFDE49:
LSFDE51:
	.set L$set$101,LEFDE51-LASFDE51
	.long L$set$101
LASFDE51:
	.long	LASFDE51-EH_frame1
	.quad	LFB4198-.
	.set L$set$102,LFE4198-LFB4198
	.quad L$set$102
	.uleb128 0x8
	.quad	0
	.byte	0x4
	.set L$set$103,LCFI50-LFB4198
	.long L$set$103
	.byte	0xe
	.uleb128 0x20
	.byte	0x9d
	.uleb128 0x4
	.byte	0x9e
	.uleb128 0x3
	.byte	0x4
	.set L$set$104,LCFI51-LCFI50
	.long L$set$104
	.byte	0xde
	.byte	0xdd
	.byte	0xe
	.uleb128 0
	.align	3
LEFDE51:
LSFDE53:
	.set L$set$105,LEFDE53-LASFDE53
	.long L$set$105
LASFDE53:
	.long	LASFDE53-EH_frame1
	.quad	LFB4201-.
	.set L$set$106,LFE4201-LFB4201
	.quad L$set$106
	.uleb128 0x8
	.quad	0
	.byte	0x4
	.set L$set$107,LCFI52-LFB4201
	.long L$set$107
	.byte	0xe
	.uleb128 0x20
	.byte	0x9d
	.uleb128 0x4
	.byte	0x9e
	.uleb128 0x3
	.byte	0x4
	.set L$set$108,LCFI53-LCFI52
	.long L$set$108
	.byte	0xde
	.byte	0xdd
	.byte	0xe
	.uleb128 0
	.align	3
LEFDE53:
LSFDE55:
	.set L$set$109,LEFDE55-LASFDE55
	.long L$set$109
LASFDE55:
	.long	LASFDE55-EH_frame1
	.quad	LFB4204-.
	.set L$set$110,LFE4204-LFB4204
	.quad L$set$110
	.uleb128 0x8
	.quad	0
	.byte	0x4
	.set L$set$111,LCFI54-LFB4204
	.long L$set$111
	.byte	0xe
	.uleb128 0x20
	.byte	0x9d
	.uleb128 0x4
	.byte	0x9e
	.uleb128 0x3
	.byte	0x4
	.set L$set$112,LCFI55-LCFI54
	.long L$set$112
	.byte	0xde
	.byte	0xdd
	.byte	0xe
	.uleb128 0
	.align	3
LEFDE55:
LSFDE57:
	.set L$set$113,LEFDE57-LASFDE57
	.long L$set$113
LASFDE57:
	.long	LASFDE57-EH_frame1
	.quad	LFB4206-.
	.set L$set$114,LFE4206-LFB4206
	.quad L$set$114
	.uleb128 0x8
	.quad	0
	.byte	0x4
	.set L$set$115,LCFI56-LFB4206
	.long L$set$115
	.byte	0xe
	.uleb128 0x20
	.byte	0x9d
	.uleb128 0x4
	.byte	0x9e
	.uleb128 0x3
	.byte	0x4
	.set L$set$116,LCFI57-LCFI56
	.long L$set$116
	.byte	0xde
	.byte	0xdd
	.byte	0xe
	.uleb128 0
	.align	3
LEFDE57:
LSFDE59:
	.set L$set$117,LEFDE59-LASFDE59
	.long L$set$117
LASFDE59:
	.long	LASFDE59-EH_frame1
	.quad	LFB4209-.
	.set L$set$118,LFE4209-LFB4209
	.quad L$set$118
	.uleb128 0x8
	.quad	0
	.byte	0x4
	.set L$set$119,LCFI58-LFB4209
	.long L$set$119
	.byte	0xe
	.uleb128 0x20
	.byte	0x9d
	.uleb128 0x4
	.byte	0x9e
	.uleb128 0x3
	.byte	0x4
	.set L$set$120,LCFI59-LCFI58
	.long L$set$120
	.byte	0xde
	.byte	0xdd
	.byte	0xe
	.uleb128 0
	.align	3
LEFDE59:
LSFDE61:
	.set L$set$121,LEFDE61-LASFDE61
	.long L$set$121
LASFDE61:
	.long	LASFDE61-EH_frame1
	.quad	LFB4215-.
	.set L$set$122,LFE4215-LFB4215
	.quad L$set$122
	.uleb128 0x8
	.quad	0
	.byte	0x4
	.set L$set$123,LCFI60-LFB4215
	.long L$set$123
	.byte	0xe
	.uleb128 0x20
	.byte	0x9d
	.uleb128 0x4
	.byte	0x9e
	.uleb128 0x3
	.byte	0x4
	.set L$set$124,LCFI61-LCFI60
	.long L$set$124
	.byte	0xde
	.byte	0xdd
	.byte	0xe
	.uleb128 0
	.align	3
LEFDE61:
LSFDE63:
	.set L$set$125,LEFDE63-LASFDE63
	.long L$set$125
LASFDE63:
	.long	LASFDE63-EH_frame1
	.quad	LFB4216-.
	.set L$set$126,LFE4216-LFB4216
	.quad L$set$126
	.uleb128 0x8
	.quad	0
	.byte	0x4
	.set L$set$127,LCFI62-LFB4216
	.long L$set$127
	.byte	0xe
	.uleb128 0x20
	.byte	0x9d
	.uleb128 0x4
	.byte	0x9e
	.uleb128 0x3
	.byte	0x4
	.set L$set$128,LCFI63-LCFI62
	.long L$set$128
	.byte	0xde
	.byte	0xdd
	.byte	0xe
	.uleb128 0
	.align	3
LEFDE63:
LSFDE65:
	.set L$set$129,LEFDE65-LASFDE65
	.long L$set$129
LASFDE65:
	.long	LASFDE65-EH_frame1
	.quad	LFB4219-.
	.set L$set$130,LFE4219-LFB4219
	.quad L$set$130
	.uleb128 0x8
	.quad	0
	.byte	0x4
	.set L$set$131,LCFI64-LFB4219
	.long L$set$131
	.byte	0xe
	.uleb128 0x20
	.byte	0x9d
	.uleb128 0x4
	.byte	0x9e
	.uleb128 0x3
	.byte	0x4
	.set L$set$132,LCFI65-LCFI64
	.long L$set$132
	.byte	0xde
	.byte	0xdd
	.byte	0xe
	.uleb128 0
	.align	3
LEFDE65:
LSFDE67:
	.set L$set$133,LEFDE67-LASFDE67
	.long L$set$133
LASFDE67:
	.long	LASFDE67-EH_frame1
	.quad	LFB4222-.
	.set L$set$134,LFE4222-LFB4222
	.quad L$set$134
	.uleb128 0x8
	.quad	0
	.byte	0x4
	.set L$set$135,LCFI66-LFB4222
	.long L$set$135
	.byte	0xe
	.uleb128 0x20
	.byte	0x9d
	.uleb128 0x4
	.byte	0x9e
	.uleb128 0x3
	.byte	0x4
	.set L$set$136,LCFI67-LCFI66
	.long L$set$136
	.byte	0xde
	.byte	0xdd
	.byte	0xe
	.uleb128 0
	.align	3
LEFDE67:
LSFDE69:
	.set L$set$137,LEFDE69-LASFDE69
	.long L$set$137
LASFDE69:
	.long	LASFDE69-EH_frame1
	.quad	LFB4224-.
	.set L$set$138,LFE4224-LFB4224
	.quad L$set$138
	.uleb128 0x8
	.quad	LLSDA4224-.
	.byte	0x4
	.set L$set$139,LCFI68-LFB4224
	.long L$set$139
	.byte	0xe
	.uleb128 0x50
	.byte	0x9d
	.uleb128 0xa
	.byte	0x9e
	.uleb128 0x9
	.byte	0x4
	.set L$set$140,LCFI69-LCFI68
	.long L$set$140
	.byte	0x93
	.uleb128 0x8
	.byte	0x94
	.uleb128 0x7
	.byte	0x4
	.set L$set$141,LCFI70-LCFI69
	.long L$set$141
	.byte	0xde
	.byte	0xdd
	.byte	0xd3
	.byte	0xd4
	.byte	0xe
	.uleb128 0
	.align	3
LEFDE69:
LSFDE71:
	.set L$set$142,LEFDE71-LASFDE71
	.long L$set$142
LASFDE71:
	.long	LASFDE71-EH_frame1
	.quad	LFB4227-.
	.set L$set$143,LFE4227-LFB4227
	.quad L$set$143
	.uleb128 0x8
	.quad	0
	.byte	0x4
	.set L$set$144,LCFI71-LFB4227
	.long L$set$144
	.byte	0xe
	.uleb128 0x20
	.byte	0x9d
	.uleb128 0x4
	.byte	0x9e
	.uleb128 0x3
	.byte	0x4
	.set L$set$145,LCFI72-LCFI71
	.long L$set$145
	.byte	0xde
	.byte	0xdd
	.byte	0xe
	.uleb128 0
	.align	3
LEFDE71:
LSFDE73:
	.set L$set$146,LEFDE73-LASFDE73
	.long L$set$146
LASFDE73:
	.long	LASFDE73-EH_frame1
	.quad	LFB4230-.
	.set L$set$147,LFE4230-LFB4230
	.quad L$set$147
	.uleb128 0x8
	.quad	LLSDA4230-.
	.byte	0x4
	.set L$set$148,LCFI73-LFB4230
	.long L$set$148
	.byte	0xe
	.uleb128 0xd0
	.byte	0x9d
	.uleb128 0x1a
	.byte	0x9e
	.uleb128 0x19
	.byte	0x4
	.set L$set$149,LCFI74-LCFI73
	.long L$set$149
	.byte	0x93
	.uleb128 0x18
	.byte	0x94
	.uleb128 0x17
	.byte	0x95
	.uleb128 0x16
	.byte	0x4
	.set L$set$150,LCFI75-LCFI74
	.long L$set$150
	.byte	0xde
	.byte	0xdd
	.byte	0xd5
	.byte	0xd3
	.byte	0xd4
	.byte	0xe
	.uleb128 0
	.align	3
LEFDE73:
LSFDE75:
	.set L$set$151,LEFDE75-LASFDE75
	.long L$set$151
LASFDE75:
	.long	LASFDE75-EH_frame1
	.quad	LFB4233-.
	.set L$set$152,LFE4233-LFB4233
	.quad L$set$152
	.uleb128 0x8
	.quad	0
	.byte	0x4
	.set L$set$153,LCFI76-LFB4233
	.long L$set$153
	.byte	0xe
	.uleb128 0x20
	.byte	0x9d
	.uleb128 0x4
	.byte	0x9e
	.uleb128 0x3
	.byte	0x4
	.set L$set$154,LCFI77-LCFI76
	.long L$set$154
	.byte	0xde
	.byte	0xdd
	.byte	0xe
	.uleb128 0
	.align	3
LEFDE75:
LSFDE77:
	.set L$set$155,LEFDE77-LASFDE77
	.long L$set$155
LASFDE77:
	.long	LASFDE77-EH_frame1
	.quad	LFB4234-.
	.set L$set$156,LFE4234-LFB4234
	.quad L$set$156
	.uleb128 0x8
	.quad	LLSDA4234-.
	.byte	0x4
	.set L$set$157,LCFI78-LFB4234
	.long L$set$157
	.byte	0xe
	.uleb128 0x1e0
	.byte	0x9d
	.uleb128 0x3c
	.byte	0x9e
	.uleb128 0x3b
	.byte	0x4
	.set L$set$158,LCFI79-LCFI78
	.long L$set$158
	.byte	0x93
	.uleb128 0x3a
	.byte	0x4
	.set L$set$159,LCFI80-LCFI79
	.long L$set$159
	.byte	0xde
	.byte	0xdd
	.byte	0xd3
	.byte	0xe
	.uleb128 0
	.align	3
LEFDE77:
LSFDE79:
	.set L$set$160,LEFDE79-LASFDE79
	.long L$set$160
LASFDE79:
	.long	LASFDE79-EH_frame1
	.quad	LFB4235-.
	.set L$set$161,LFE4235-LFB4235
	.quad L$set$161
	.uleb128 0x8
	.quad	0
	.byte	0x4
	.set L$set$162,LCFI81-LFB4235
	.long L$set$162
	.byte	0xe
	.uleb128 0x30
	.byte	0x4
	.set L$set$163,LCFI82-LCFI81
	.long L$set$163
	.byte	0xe
	.uleb128 0
	.align	3
LEFDE79:
LSFDE81:
	.set L$set$164,LEFDE81-LASFDE81
	.long L$set$164
LASFDE81:
	.long	LASFDE81-EH_frame1
	.quad	LFB4236-.
	.set L$set$165,LFE4236-LFB4236
	.quad L$set$165
	.uleb128 0x8
	.quad	0
	.byte	0x4
	.set L$set$166,LCFI83-LFB4236
	.long L$set$166
	.byte	0xe
	.uleb128 0x80
	.byte	0x9d
	.uleb128 0x10
	.byte	0x9e
	.uleb128 0xf
	.byte	0x4
	.set L$set$167,LCFI84-LCFI83
	.long L$set$167
	.byte	0x93
	.uleb128 0xe
	.byte	0x4
	.set L$set$168,LCFI85-LCFI84
	.long L$set$168
	.byte	0xde
	.byte	0xdd
	.byte	0xd3
	.byte	0xe
	.uleb128 0
	.align	3
LEFDE81:
LSFDE83:
	.set L$set$169,LEFDE83-LASFDE83
	.long L$set$169
LASFDE83:
	.long	LASFDE83-EH_frame1
	.quad	LFB4244-.
	.set L$set$170,LFE4244-LFB4244
	.quad L$set$170
	.uleb128 0x8
	.quad	0
	.byte	0x4
	.set L$set$171,LCFI86-LFB4244
	.long L$set$171
	.byte	0xe
	.uleb128 0x80
	.byte	0x9d
	.uleb128 0x10
	.byte	0x9e
	.uleb128 0xf
	.byte	0x4
	.set L$set$172,LCFI87-LCFI86
	.long L$set$172
	.byte	0x93
	.uleb128 0xe
	.byte	0x4
	.set L$set$173,LCFI88-LCFI87
	.long L$set$173
	.byte	0xde
	.byte	0xdd
	.byte	0xd3
	.byte	0xe
	.uleb128 0
	.align	3
LEFDE83:
LSFDE85:
	.set L$set$174,LEFDE85-LASFDE85
	.long L$set$174
LASFDE85:
	.long	LASFDE85-EH_frame1
	.quad	LFB4245-.
	.set L$set$175,LFE4245-LFB4245
	.quad L$set$175
	.uleb128 0x8
	.quad	LLSDA4245-.
	.byte	0x4
	.set L$set$176,LCFI89-LFB4245
	.long L$set$176
	.byte	0xe
	.uleb128 0x1f0
	.byte	0x9d
	.uleb128 0x3e
	.byte	0x9e
	.uleb128 0x3d
	.byte	0x4
	.set L$set$177,LCFI90-LCFI89
	.long L$set$177
	.byte	0x93
	.uleb128 0x3c
	.byte	0x94
	.uleb128 0x3b
	.byte	0x5
	.uleb128 0x48
	.uleb128 0x3a
	.byte	0x4
	.set L$set$178,LCFI91-LCFI90
	.long L$set$178
	.byte	0xde
	.byte	0xdd
	.byte	0xd3
	.byte	0xd4
	.byte	0x6
	.uleb128 0x48
	.byte	0xe
	.uleb128 0
	.align	3
LEFDE85:
LSFDE87:
	.set L$set$179,LEFDE87-LASFDE87
	.long L$set$179
LASFDE87:
	.long	LASFDE87-EH_frame1
	.quad	LFB4299-.
	.set L$set$180,LFE4299-LFB4299
	.quad L$set$180
	.uleb128 0x8
	.quad	0
	.byte	0x4
	.set L$set$181,LCFI92-LFB4299
	.long L$set$181
	.byte	0xe
	.uleb128 0x10
	.byte	0x4
	.set L$set$182,LCFI93-LCFI92
	.long L$set$182
	.byte	0xe
	.uleb128 0
	.align	3
LEFDE87:
LSFDE89:
	.set L$set$183,LEFDE89-LASFDE89
	.long L$set$183
LASFDE89:
	.long	LASFDE89-EH_frame1
	.quad	LFB4298-.
	.set L$set$184,LFE4298-LFB4298
	.quad L$set$184
	.uleb128 0x8
	.quad	0
	.byte	0x4
	.set L$set$185,LCFI94-LFB4298
	.long L$set$185
	.byte	0xe
	.uleb128 0x30
	.byte	0x9d
	.uleb128 0x6
	.byte	0x9e
	.uleb128 0x5
	.byte	0x4
	.set L$set$186,LCFI95-LCFI94
	.long L$set$186
	.byte	0xde
	.byte	0xdd
	.byte	0xe
	.uleb128 0
	.align	3
LEFDE89:
LSFDE91:
	.set L$set$187,LEFDE91-LASFDE91
	.long L$set$187
LASFDE91:
	.long	LASFDE91-EH_frame1
	.quad	LFB4329-.
	.set L$set$188,LFE4329-LFB4329
	.quad L$set$188
	.uleb128 0x8
	.quad	0
	.byte	0x4
	.set L$set$189,LCFI96-LFB4329
	.long L$set$189
	.byte	0xe
	.uleb128 0x20
	.byte	0x9d
	.uleb128 0x4
	.byte	0x9e
	.uleb128 0x3
	.byte	0x4
	.set L$set$190,LCFI97-LCFI96
	.long L$set$190
	.byte	0xde
	.byte	0xdd
	.byte	0xe
	.uleb128 0
	.align	3
LEFDE91:
LSFDE93:
	.set L$set$191,LEFDE93-LASFDE93
	.long L$set$191
LASFDE93:
	.long	LASFDE93-EH_frame1
	.quad	LFB4332-.
	.set L$set$192,LFE4332-LFB4332
	.quad L$set$192
	.uleb128 0x8
	.quad	LLSDA4332-.
	.byte	0x4
	.set L$set$193,LCFI98-LFB4332
	.long L$set$193
	.byte	0xe
	.uleb128 0x30
	.byte	0x9d
	.uleb128 0x6
	.byte	0x9e
	.uleb128 0x5
	.byte	0x4
	.set L$set$194,LCFI99-LCFI98
	.long L$set$194
	.byte	0x93
	.uleb128 0x4
	.byte	0x4
	.set L$set$195,LCFI100-LCFI99
	.long L$set$195
	.byte	0xde
	.byte	0xdd
	.byte	0xd3
	.byte	0xe
	.uleb128 0
	.align	3
LEFDE93:
LSFDE95:
	.set L$set$196,LEFDE95-LASFDE95
	.long L$set$196
LASFDE95:
	.long	LASFDE95-EH_frame1
	.quad	LFB4334-.
	.set L$set$197,LFE4334-LFB4334
	.quad L$set$197
	.uleb128 0x8
	.quad	0
	.byte	0x4
	.set L$set$198,LCFI101-LFB4334
	.long L$set$198
	.byte	0xe
	.uleb128 0x10
	.byte	0x4
	.set L$set$199,LCFI102-LCFI101
	.long L$set$199
	.byte	0xe
	.uleb128 0
	.align	3
LEFDE95:
LSFDE97:
	.set L$set$200,LEFDE97-LASFDE97
	.long L$set$200
LASFDE97:
	.long	LASFDE97-EH_frame1
	.quad	LFB4326-.
	.set L$set$201,LFE4326-LFB4326
	.quad L$set$201
	.uleb128 0x8
	.quad	LLSDA4326-.
	.byte	0x4
	.set L$set$202,LCFI103-LFB4326
	.long L$set$202
	.byte	0xe
	.uleb128 0x70
	.byte	0x9d
	.uleb128 0xe
	.byte	0x9e
	.uleb128 0xd
	.byte	0x4
	.set L$set$203,LCFI104-LCFI103
	.long L$set$203
	.byte	0x93
	.uleb128 0xc
	.byte	0x4
	.set L$set$204,LCFI105-LCFI104
	.long L$set$204
	.byte	0xde
	.byte	0xdd
	.byte	0xd3
	.byte	0xe
	.uleb128 0
	.align	3
LEFDE97:
LSFDE99:
	.set L$set$205,LEFDE99-LASFDE99
	.long L$set$205
LASFDE99:
	.long	LASFDE99-EH_frame1
	.quad	LFB4407-.
	.set L$set$206,LFE4407-LFB4407
	.quad L$set$206
	.uleb128 0x8
	.quad	0
	.byte	0x4
	.set L$set$207,LCFI106-LFB4407
	.long L$set$207
	.byte	0xe
	.uleb128 0x20
	.byte	0x9d
	.uleb128 0x4
	.byte	0x9e
	.uleb128 0x3
	.byte	0x4
	.set L$set$208,LCFI107-LCFI106
	.long L$set$208
	.byte	0xde
	.byte	0xdd
	.byte	0xe
	.uleb128 0
	.align	3
LEFDE99:
LSFDE101:
	.set L$set$209,LEFDE101-LASFDE101
	.long L$set$209
LASFDE101:
	.long	LASFDE101-EH_frame1
	.quad	LFB4563-.
	.set L$set$210,LFE4563-LFB4563
	.quad L$set$210
	.uleb128 0x8
	.quad	0
	.byte	0x4
	.set L$set$211,LCFI108-LFB4563
	.long L$set$211
	.byte	0xe
	.uleb128 0x10
	.byte	0x4
	.set L$set$212,LCFI109-LCFI108
	.long L$set$212
	.byte	0xe
	.uleb128 0
	.align	3
LEFDE101:
LSFDE103:
	.set L$set$213,LEFDE103-LASFDE103
	.long L$set$213
LASFDE103:
	.long	LASFDE103-EH_frame1
	.quad	LFB4586-.
	.set L$set$214,LFE4586-LFB4586
	.quad L$set$214
	.uleb128 0x8
	.quad	0
	.byte	0x4
	.set L$set$215,LCFI110-LFB4586
	.long L$set$215
	.byte	0xe
	.uleb128 0x20
	.byte	0x9d
	.uleb128 0x4
	.byte	0x9e
	.uleb128 0x3
	.byte	0x4
	.set L$set$216,LCFI111-LCFI110
	.long L$set$216
	.byte	0xde
	.byte	0xdd
	.byte	0xe
	.uleb128 0
	.align	3
LEFDE103:
LSFDE105:
	.set L$set$217,LEFDE105-LASFDE105
	.long L$set$217
LASFDE105:
	.long	LASFDE105-EH_frame1
	.quad	LFB4588-.
	.set L$set$218,LFE4588-LFB4588
	.quad L$set$218
	.uleb128 0x8
	.quad	0
	.byte	0x4
	.set L$set$219,LCFI112-LFB4588
	.long L$set$219
	.byte	0xe
	.uleb128 0x20
	.byte	0x9d
	.uleb128 0x4
	.byte	0x9e
	.uleb128 0x3
	.byte	0x4
	.set L$set$220,LCFI113-LCFI112
	.long L$set$220
	.byte	0xde
	.byte	0xdd
	.byte	0xe
	.uleb128 0
	.align	3
LEFDE105:
LSFDE107:
	.set L$set$221,LEFDE107-LASFDE107
	.long L$set$221
LASFDE107:
	.long	LASFDE107-EH_frame1
	.quad	LFB4589-.
	.set L$set$222,LFE4589-LFB4589
	.quad L$set$222
	.uleb128 0x8
	.quad	0
	.byte	0x4
	.set L$set$223,LCFI114-LFB4589
	.long L$set$223
	.byte	0xe
	.uleb128 0x20
	.byte	0x9d
	.uleb128 0x4
	.byte	0x9e
	.uleb128 0x3
	.byte	0x4
	.set L$set$224,LCFI115-LCFI114
	.long L$set$224
	.byte	0xde
	.byte	0xdd
	.byte	0xe
	.uleb128 0
	.align	3
LEFDE107:
LSFDE109:
	.set L$set$225,LEFDE109-LASFDE109
	.long L$set$225
LASFDE109:
	.long	LASFDE109-EH_frame1
	.quad	LFB4592-.
	.set L$set$226,LFE4592-LFB4592
	.quad L$set$226
	.uleb128 0x8
	.quad	LLSDA4592-.
	.byte	0x4
	.set L$set$227,LCFI116-LFB4592
	.long L$set$227
	.byte	0xe
	.uleb128 0x40
	.byte	0x9d
	.uleb128 0x8
	.byte	0x9e
	.uleb128 0x7
	.byte	0x4
	.set L$set$228,LCFI117-LCFI116
	.long L$set$228
	.byte	0x93
	.uleb128 0x6
	.byte	0x4
	.set L$set$229,LCFI118-LCFI117
	.long L$set$229
	.byte	0xde
	.byte	0xdd
	.byte	0xd3
	.byte	0xe
	.uleb128 0
	.align	3
LEFDE109:
LSFDE111:
	.set L$set$230,LEFDE111-LASFDE111
	.long L$set$230
LASFDE111:
	.long	LASFDE111-EH_frame1
	.quad	LFB4595-.
	.set L$set$231,LFE4595-LFB4595
	.quad L$set$231
	.uleb128 0x8
	.quad	LLSDA4595-.
	.byte	0x4
	.set L$set$232,LCFI119-LFB4595
	.long L$set$232
	.byte	0xe
	.uleb128 0x30
	.byte	0x9d
	.uleb128 0x6
	.byte	0x9e
	.uleb128 0x5
	.byte	0x4
	.set L$set$233,LCFI120-LCFI119
	.long L$set$233
	.byte	0x93
	.uleb128 0x4
	.byte	0x94
	.uleb128 0x3
	.byte	0x4
	.set L$set$234,LCFI121-LCFI120
	.long L$set$234
	.byte	0xde
	.byte	0xdd
	.byte	0xd3
	.byte	0xd4
	.byte	0xe
	.uleb128 0
	.align	3
LEFDE111:
LSFDE113:
	.set L$set$235,LEFDE113-LASFDE113
	.long L$set$235
LASFDE113:
	.long	LASFDE113-EH_frame1
	.quad	LFB4597-.
	.set L$set$236,LFE4597-LFB4597
	.quad L$set$236
	.uleb128 0x8
	.quad	0
	.byte	0x4
	.set L$set$237,LCFI122-LFB4597
	.long L$set$237
	.byte	0xe
	.uleb128 0x20
	.byte	0x9d
	.uleb128 0x4
	.byte	0x9e
	.uleb128 0x3
	.byte	0x4
	.set L$set$238,LCFI123-LCFI122
	.long L$set$238
	.byte	0xde
	.byte	0xdd
	.byte	0xe
	.uleb128 0
	.align	3
LEFDE113:
LSFDE115:
	.set L$set$239,LEFDE115-LASFDE115
	.long L$set$239
LASFDE115:
	.long	LASFDE115-EH_frame1
	.quad	LFB4600-.
	.set L$set$240,LFE4600-LFB4600
	.quad L$set$240
	.uleb128 0x8
	.quad	0
	.byte	0x4
	.set L$set$241,LCFI124-LFB4600
	.long L$set$241
	.byte	0xe
	.uleb128 0x20
	.byte	0x9d
	.uleb128 0x4
	.byte	0x9e
	.uleb128 0x3
	.byte	0x4
	.set L$set$242,LCFI125-LCFI124
	.long L$set$242
	.byte	0xde
	.byte	0xdd
	.byte	0xe
	.uleb128 0
	.align	3
LEFDE115:
LSFDE117:
	.set L$set$243,LEFDE117-LASFDE117
	.long L$set$243
LASFDE117:
	.long	LASFDE117-EH_frame1
	.quad	LFB4601-.
	.set L$set$244,LFE4601-LFB4601
	.quad L$set$244
	.uleb128 0x8
	.quad	0
	.byte	0x4
	.set L$set$245,LCFI126-LFB4601
	.long L$set$245
	.byte	0xe
	.uleb128 0x20
	.byte	0x9d
	.uleb128 0x4
	.byte	0x9e
	.uleb128 0x3
	.byte	0x4
	.set L$set$246,LCFI127-LCFI126
	.long L$set$246
	.byte	0xde
	.byte	0xdd
	.byte	0xe
	.uleb128 0
	.align	3
LEFDE117:
LSFDE119:
	.set L$set$247,LEFDE119-LASFDE119
	.long L$set$247
LASFDE119:
	.long	LASFDE119-EH_frame1
	.quad	LFB4604-.
	.set L$set$248,LFE4604-LFB4604
	.quad L$set$248
	.uleb128 0x8
	.quad	LLSDA4604-.
	.byte	0x4
	.set L$set$249,LCFI128-LFB4604
	.long L$set$249
	.byte	0xe
	.uleb128 0x20
	.byte	0x9d
	.uleb128 0x4
	.byte	0x9e
	.uleb128 0x3
	.byte	0x4
	.set L$set$250,LCFI129-LCFI128
	.long L$set$250
	.byte	0xde
	.byte	0xdd
	.byte	0xe
	.uleb128 0
	.align	3
LEFDE119:
LSFDE121:
	.set L$set$251,LEFDE121-LASFDE121
	.long L$set$251
LASFDE121:
	.long	LASFDE121-EH_frame1
	.quad	LFB4607-.
	.set L$set$252,LFE4607-LFB4607
	.quad L$set$252
	.uleb128 0x8
	.quad	0
	.byte	0x4
	.set L$set$253,LCFI130-LFB4607
	.long L$set$253
	.byte	0xe
	.uleb128 0x20
	.byte	0x9d
	.uleb128 0x4
	.byte	0x9e
	.uleb128 0x3
	.byte	0x4
	.set L$set$254,LCFI131-LCFI130
	.long L$set$254
	.byte	0xde
	.byte	0xdd
	.byte	0xe
	.uleb128 0
	.align	3
LEFDE121:
LSFDE123:
	.set L$set$255,LEFDE123-LASFDE123
	.long L$set$255
LASFDE123:
	.long	LASFDE123-EH_frame1
	.quad	LFB4609-.
	.set L$set$256,LFE4609-LFB4609
	.quad L$set$256
	.uleb128 0x8
	.quad	0
	.byte	0x4
	.set L$set$257,LCFI132-LFB4609
	.long L$set$257
	.byte	0xe
	.uleb128 0x20
	.byte	0x9d
	.uleb128 0x4
	.byte	0x9e
	.uleb128 0x3
	.byte	0x4
	.set L$set$258,LCFI133-LCFI132
	.long L$set$258
	.byte	0xde
	.byte	0xdd
	.byte	0xe
	.uleb128 0
	.align	3
LEFDE123:
LSFDE125:
	.set L$set$259,LEFDE125-LASFDE125
	.long L$set$259
LASFDE125:
	.long	LASFDE125-EH_frame1
	.quad	LFB4610-.
	.set L$set$260,LFE4610-LFB4610
	.quad L$set$260
	.uleb128 0x8
	.quad	0
	.byte	0x4
	.set L$set$261,LCFI134-LFB4610
	.long L$set$261
	.byte	0xe
	.uleb128 0x20
	.byte	0x9d
	.uleb128 0x4
	.byte	0x9e
	.uleb128 0x3
	.byte	0x4
	.set L$set$262,LCFI135-LCFI134
	.long L$set$262
	.byte	0xde
	.byte	0xdd
	.byte	0xe
	.uleb128 0
	.align	3
LEFDE125:
LSFDE127:
	.set L$set$263,LEFDE127-LASFDE127
	.long L$set$263
LASFDE127:
	.long	LASFDE127-EH_frame1
	.quad	LFB4612-.
	.set L$set$264,LFE4612-LFB4612
	.quad L$set$264
	.uleb128 0x8
	.quad	0
	.byte	0x4
	.set L$set$265,LCFI136-LFB4612
	.long L$set$265
	.byte	0xe
	.uleb128 0x20
	.byte	0x9d
	.uleb128 0x4
	.byte	0x9e
	.uleb128 0x3
	.byte	0x4
	.set L$set$266,LCFI137-LCFI136
	.long L$set$266
	.byte	0xde
	.byte	0xdd
	.byte	0xe
	.uleb128 0
	.align	3
LEFDE127:
LSFDE129:
	.set L$set$267,LEFDE129-LASFDE129
	.long L$set$267
LASFDE129:
	.long	LASFDE129-EH_frame1
	.quad	LFB4616-.
	.set L$set$268,LFE4616-LFB4616
	.quad L$set$268
	.uleb128 0x8
	.quad	0
	.byte	0x4
	.set L$set$269,LCFI138-LFB4616
	.long L$set$269
	.byte	0xe
	.uleb128 0x20
	.byte	0x9d
	.uleb128 0x4
	.byte	0x9e
	.uleb128 0x3
	.byte	0x4
	.set L$set$270,LCFI139-LCFI138
	.long L$set$270
	.byte	0xde
	.byte	0xdd
	.byte	0xe
	.uleb128 0
	.align	3
LEFDE129:
LSFDE131:
	.set L$set$271,LEFDE131-LASFDE131
	.long L$set$271
LASFDE131:
	.long	LASFDE131-EH_frame1
	.quad	LFB4618-.
	.set L$set$272,LFE4618-LFB4618
	.quad L$set$272
	.uleb128 0x8
	.quad	0
	.byte	0x4
	.set L$set$273,LCFI140-LFB4618
	.long L$set$273
	.byte	0xe
	.uleb128 0x20
	.byte	0x9d
	.uleb128 0x4
	.byte	0x9e
	.uleb128 0x3
	.byte	0x4
	.set L$set$274,LCFI141-LCFI140
	.long L$set$274
	.byte	0xde
	.byte	0xdd
	.byte	0xe
	.uleb128 0
	.align	3
LEFDE131:
LSFDE133:
	.set L$set$275,LEFDE133-LASFDE133
	.long L$set$275
LASFDE133:
	.long	LASFDE133-EH_frame1
	.quad	LFB4619-.
	.set L$set$276,LFE4619-LFB4619
	.quad L$set$276
	.uleb128 0x8
	.quad	0
	.byte	0x4
	.set L$set$277,LCFI142-LFB4619
	.long L$set$277
	.byte	0xe
	.uleb128 0x20
	.byte	0x9d
	.uleb128 0x4
	.byte	0x9e
	.uleb128 0x3
	.byte	0x4
	.set L$set$278,LCFI143-LCFI142
	.long L$set$278
	.byte	0xde
	.byte	0xdd
	.byte	0xe
	.uleb128 0
	.align	3
LEFDE133:
LSFDE135:
	.set L$set$279,LEFDE135-LASFDE135
	.long L$set$279
LASFDE135:
	.long	LASFDE135-EH_frame1
	.quad	LFB4622-.
	.set L$set$280,LFE4622-LFB4622
	.quad L$set$280
	.uleb128 0x8
	.quad	LLSDA4622-.
	.byte	0x4
	.set L$set$281,LCFI144-LFB4622
	.long L$set$281
	.byte	0xe
	.uleb128 0x40
	.byte	0x9d
	.uleb128 0x8
	.byte	0x9e
	.uleb128 0x7
	.byte	0x4
	.set L$set$282,LCFI145-LCFI144
	.long L$set$282
	.byte	0x93
	.uleb128 0x6
	.byte	0x4
	.set L$set$283,LCFI146-LCFI145
	.long L$set$283
	.byte	0xde
	.byte	0xdd
	.byte	0xd3
	.byte	0xe
	.uleb128 0
	.align	3
LEFDE135:
LSFDE137:
	.set L$set$284,LEFDE137-LASFDE137
	.long L$set$284
LASFDE137:
	.long	LASFDE137-EH_frame1
	.quad	LFB4625-.
	.set L$set$285,LFE4625-LFB4625
	.quad L$set$285
	.uleb128 0x8
	.quad	LLSDA4625-.
	.byte	0x4
	.set L$set$286,LCFI147-LFB4625
	.long L$set$286
	.byte	0xe
	.uleb128 0x30
	.byte	0x9d
	.uleb128 0x6
	.byte	0x9e
	.uleb128 0x5
	.byte	0x4
	.set L$set$287,LCFI148-LCFI147
	.long L$set$287
	.byte	0x93
	.uleb128 0x4
	.byte	0x94
	.uleb128 0x3
	.byte	0x4
	.set L$set$288,LCFI149-LCFI148
	.long L$set$288
	.byte	0xde
	.byte	0xdd
	.byte	0xd3
	.byte	0xd4
	.byte	0xe
	.uleb128 0
	.align	3
LEFDE137:
LSFDE139:
	.set L$set$289,LEFDE139-LASFDE139
	.long L$set$289
LASFDE139:
	.long	LASFDE139-EH_frame1
	.quad	LFB4644-.
	.set L$set$290,LFE4644-LFB4644
	.quad L$set$290
	.uleb128 0x8
	.quad	0
	.byte	0x4
	.set L$set$291,LCFI150-LFB4644
	.long L$set$291
	.byte	0xe
	.uleb128 0x10
	.byte	0x4
	.set L$set$292,LCFI151-LCFI150
	.long L$set$292
	.byte	0xe
	.uleb128 0
	.align	3
LEFDE139:
LSFDE141:
	.set L$set$293,LEFDE141-LASFDE141
	.long L$set$293
LASFDE141:
	.long	LASFDE141-EH_frame1
	.quad	LFB4645-.
	.set L$set$294,LFE4645-LFB4645
	.quad L$set$294
	.uleb128 0x8
	.quad	0
	.byte	0x4
	.set L$set$295,LCFI152-LFB4645
	.long L$set$295
	.byte	0xe
	.uleb128 0x10
	.byte	0x4
	.set L$set$296,LCFI153-LCFI152
	.long L$set$296
	.byte	0xe
	.uleb128 0
	.align	3
LEFDE141:
LSFDE143:
	.set L$set$297,LEFDE143-LASFDE143
	.long L$set$297
LASFDE143:
	.long	LASFDE143-EH_frame1
	.quad	LFB4646-.
	.set L$set$298,LFE4646-LFB4646
	.quad L$set$298
	.uleb128 0x8
	.quad	0
	.byte	0x4
	.set L$set$299,LCFI154-LFB4646
	.long L$set$299
	.byte	0xe
	.uleb128 0x20
	.byte	0x9d
	.uleb128 0x4
	.byte	0x9e
	.uleb128 0x3
	.byte	0x4
	.set L$set$300,LCFI155-LCFI154
	.long L$set$300
	.byte	0xde
	.byte	0xdd
	.byte	0xe
	.uleb128 0
	.align	3
LEFDE143:
LSFDE145:
	.set L$set$301,LEFDE145-LASFDE145
	.long L$set$301
LASFDE145:
	.long	LASFDE145-EH_frame1
	.quad	LFB4647-.
	.set L$set$302,LFE4647-LFB4647
	.quad L$set$302
	.uleb128 0x8
	.quad	0
	.byte	0x4
	.set L$set$303,LCFI156-LFB4647
	.long L$set$303
	.byte	0xe
	.uleb128 0x20
	.byte	0x9d
	.uleb128 0x4
	.byte	0x9e
	.uleb128 0x3
	.byte	0x4
	.set L$set$304,LCFI157-LCFI156
	.long L$set$304
	.byte	0xde
	.byte	0xdd
	.byte	0xe
	.uleb128 0
	.align	3
LEFDE145:
LSFDE147:
	.set L$set$305,LEFDE147-LASFDE147
	.long L$set$305
LASFDE147:
	.long	LASFDE147-EH_frame1
	.quad	LFB4648-.
	.set L$set$306,LFE4648-LFB4648
	.quad L$set$306
	.uleb128 0x8
	.quad	0
	.byte	0x4
	.set L$set$307,LCFI158-LFB4648
	.long L$set$307
	.byte	0xe
	.uleb128 0x10
	.byte	0x4
	.set L$set$308,LCFI159-LCFI158
	.long L$set$308
	.byte	0xe
	.uleb128 0
	.align	3
LEFDE147:
LSFDE149:
	.set L$set$309,LEFDE149-LASFDE149
	.long L$set$309
LASFDE149:
	.long	LASFDE149-EH_frame1
	.quad	LFB4649-.
	.set L$set$310,LFE4649-LFB4649
	.quad L$set$310
	.uleb128 0x8
	.quad	0
	.byte	0x4
	.set L$set$311,LCFI160-LFB4649
	.long L$set$311
	.byte	0xe
	.uleb128 0x20
	.byte	0x9d
	.uleb128 0x4
	.byte	0x9e
	.uleb128 0x3
	.byte	0x4
	.set L$set$312,LCFI161-LCFI160
	.long L$set$312
	.byte	0xde
	.byte	0xdd
	.byte	0xe
	.uleb128 0
	.align	3
LEFDE149:
LSFDE151:
	.set L$set$313,LEFDE151-LASFDE151
	.long L$set$313
LASFDE151:
	.long	LASFDE151-EH_frame1
	.quad	LFB4650-.
	.set L$set$314,LFE4650-LFB4650
	.quad L$set$314
	.uleb128 0x8
	.quad	0
	.byte	0x4
	.set L$set$315,LCFI162-LFB4650
	.long L$set$315
	.byte	0xe
	.uleb128 0x30
	.byte	0x9d
	.uleb128 0x6
	.byte	0x9e
	.uleb128 0x5
	.byte	0x4
	.set L$set$316,LCFI163-LCFI162
	.long L$set$316
	.byte	0xde
	.byte	0xdd
	.byte	0xe
	.uleb128 0
	.align	3
LEFDE151:
LSFDE153:
	.set L$set$317,LEFDE153-LASFDE153
	.long L$set$317
LASFDE153:
	.long	LASFDE153-EH_frame1
	.quad	LFB4651-.
	.set L$set$318,LFE4651-LFB4651
	.quad L$set$318
	.uleb128 0x8
	.quad	0
	.byte	0x4
	.set L$set$319,LCFI164-LFB4651
	.long L$set$319
	.byte	0xe
	.uleb128 0x30
	.byte	0x9d
	.uleb128 0x6
	.byte	0x9e
	.uleb128 0x5
	.byte	0x4
	.set L$set$320,LCFI165-LCFI164
	.long L$set$320
	.byte	0xde
	.byte	0xdd
	.byte	0xe
	.uleb128 0
	.align	3
LEFDE153:
LSFDE155:
	.set L$set$321,LEFDE155-LASFDE155
	.long L$set$321
LASFDE155:
	.long	LASFDE155-EH_frame1
	.quad	LFB4652-.
	.set L$set$322,LFE4652-LFB4652
	.quad L$set$322
	.uleb128 0x8
	.quad	0
	.byte	0x4
	.set L$set$323,LCFI166-LFB4652
	.long L$set$323
	.byte	0xe
	.uleb128 0x30
	.byte	0x9d
	.uleb128 0x6
	.byte	0x9e
	.uleb128 0x5
	.byte	0x4
	.set L$set$324,LCFI167-LCFI166
	.long L$set$324
	.byte	0xde
	.byte	0xdd
	.byte	0xe
	.uleb128 0
	.align	3
LEFDE155:
LSFDE157:
	.set L$set$325,LEFDE157-LASFDE157
	.long L$set$325
LASFDE157:
	.long	LASFDE157-EH_frame1
	.quad	LFB4653-.
	.set L$set$326,LFE4653-LFB4653
	.quad L$set$326
	.uleb128 0x8
	.quad	0
	.byte	0x4
	.set L$set$327,LCFI168-LFB4653
	.long L$set$327
	.byte	0xe
	.uleb128 0x10
	.byte	0x4
	.set L$set$328,LCFI169-LCFI168
	.long L$set$328
	.byte	0xe
	.uleb128 0
	.align	3
LEFDE157:
LSFDE159:
	.set L$set$329,LEFDE159-LASFDE159
	.long L$set$329
LASFDE159:
	.long	LASFDE159-EH_frame1
	.quad	LFB4656-.
	.set L$set$330,LFE4656-LFB4656
	.quad L$set$330
	.uleb128 0x8
	.quad	0
	.byte	0x4
	.set L$set$331,LCFI170-LFB4656
	.long L$set$331
	.byte	0xe
	.uleb128 0x10
	.byte	0x4
	.set L$set$332,LCFI171-LCFI170
	.long L$set$332
	.byte	0xe
	.uleb128 0
	.align	3
LEFDE159:
LSFDE161:
	.set L$set$333,LEFDE161-LASFDE161
	.long L$set$333
LASFDE161:
	.long	LASFDE161-EH_frame1
	.quad	LFB4657-.
	.set L$set$334,LFE4657-LFB4657
	.quad L$set$334
	.uleb128 0x8
	.quad	0
	.byte	0x4
	.set L$set$335,LCFI172-LFB4657
	.long L$set$335
	.byte	0xe
	.uleb128 0x30
	.byte	0x9d
	.uleb128 0x6
	.byte	0x9e
	.uleb128 0x5
	.byte	0x4
	.set L$set$336,LCFI173-LCFI172
	.long L$set$336
	.byte	0xde
	.byte	0xdd
	.byte	0xe
	.uleb128 0
	.align	3
LEFDE161:
LSFDE163:
	.set L$set$337,LEFDE163-LASFDE163
	.long L$set$337
LASFDE163:
	.long	LASFDE163-EH_frame1
	.quad	LFB4658-.
	.set L$set$338,LFE4658-LFB4658
	.quad L$set$338
	.uleb128 0x8
	.quad	0
	.byte	0x4
	.set L$set$339,LCFI174-LFB4658
	.long L$set$339
	.byte	0xe
	.uleb128 0x20
	.byte	0x9d
	.uleb128 0x4
	.byte	0x9e
	.uleb128 0x3
	.byte	0x4
	.set L$set$340,LCFI175-LCFI174
	.long L$set$340
	.byte	0xde
	.byte	0xdd
	.byte	0xe
	.uleb128 0
	.align	3
LEFDE163:
LSFDE165:
	.set L$set$341,LEFDE165-LASFDE165
	.long L$set$341
LASFDE165:
	.long	LASFDE165-EH_frame1
	.quad	LFB4659-.
	.set L$set$342,LFE4659-LFB4659
	.quad L$set$342
	.uleb128 0x8
	.quad	LLSDA4659-.
	.byte	0x4
	.set L$set$343,LCFI176-LFB4659
	.long L$set$343
	.byte	0xe
	.uleb128 0x20
	.byte	0x9d
	.uleb128 0x4
	.byte	0x9e
	.uleb128 0x3
	.byte	0x4
	.set L$set$344,LCFI177-LCFI176
	.long L$set$344
	.byte	0xde
	.byte	0xdd
	.byte	0xe
	.uleb128 0
	.align	3
LEFDE165:
LSFDE167:
	.set L$set$345,LEFDE167-LASFDE167
	.long L$set$345
LASFDE167:
	.long	LASFDE167-EH_frame1
	.quad	LFB4660-.
	.set L$set$346,LFE4660-LFB4660
	.quad L$set$346
	.uleb128 0x8
	.quad	0
	.byte	0x4
	.set L$set$347,LCFI178-LFB4660
	.long L$set$347
	.byte	0xe
	.uleb128 0x20
	.byte	0x9d
	.uleb128 0x4
	.byte	0x9e
	.uleb128 0x3
	.byte	0x4
	.set L$set$348,LCFI179-LCFI178
	.long L$set$348
	.byte	0xde
	.byte	0xdd
	.byte	0xe
	.uleb128 0
	.align	3
LEFDE167:
LSFDE169:
	.set L$set$349,LEFDE169-LASFDE169
	.long L$set$349
LASFDE169:
	.long	LASFDE169-EH_frame1
	.quad	LFB4661-.
	.set L$set$350,LFE4661-LFB4661
	.quad L$set$350
	.uleb128 0x8
	.quad	0
	.byte	0x4
	.set L$set$351,LCFI180-LFB4661
	.long L$set$351
	.byte	0xe
	.uleb128 0x40
	.byte	0x9d
	.uleb128 0x8
	.byte	0x9e
	.uleb128 0x7
	.byte	0x4
	.set L$set$352,LCFI181-LCFI180
	.long L$set$352
	.byte	0x93
	.uleb128 0x6
	.byte	0x4
	.set L$set$353,LCFI182-LCFI181
	.long L$set$353
	.byte	0xde
	.byte	0xdd
	.byte	0xd3
	.byte	0xe
	.uleb128 0
	.align	3
LEFDE169:
LSFDE171:
	.set L$set$354,LEFDE171-LASFDE171
	.long L$set$354
LASFDE171:
	.long	LASFDE171-EH_frame1
	.quad	LFB4670-.
	.set L$set$355,LFE4670-LFB4670
	.quad L$set$355
	.uleb128 0x8
	.quad	0
	.byte	0x4
	.set L$set$356,LCFI183-LFB4670
	.long L$set$356
	.byte	0xe
	.uleb128 0x30
	.byte	0x9d
	.uleb128 0x6
	.byte	0x9e
	.uleb128 0x5
	.byte	0x4
	.set L$set$357,LCFI184-LCFI183
	.long L$set$357
	.byte	0x93
	.uleb128 0x4
	.byte	0x4
	.set L$set$358,LCFI185-LCFI184
	.long L$set$358
	.byte	0xde
	.byte	0xdd
	.byte	0xd3
	.byte	0xe
	.uleb128 0
	.align	3
LEFDE171:
LSFDE173:
	.set L$set$359,LEFDE173-LASFDE173
	.long L$set$359
LASFDE173:
	.long	LASFDE173-EH_frame1
	.quad	LFB4671-.
	.set L$set$360,LFE4671-LFB4671
	.quad L$set$360
	.uleb128 0x8
	.quad	0
	.byte	0x4
	.set L$set$361,LCFI186-LFB4671
	.long L$set$361
	.byte	0xe
	.uleb128 0x30
	.byte	0x9d
	.uleb128 0x6
	.byte	0x9e
	.uleb128 0x5
	.byte	0x4
	.set L$set$362,LCFI187-LCFI186
	.long L$set$362
	.byte	0xde
	.byte	0xdd
	.byte	0xe
	.uleb128 0
	.align	3
LEFDE173:
LSFDE175:
	.set L$set$363,LEFDE175-LASFDE175
	.long L$set$363
LASFDE175:
	.long	LASFDE175-EH_frame1
	.quad	LFB4674-.
	.set L$set$364,LFE4674-LFB4674
	.quad L$set$364
	.uleb128 0x8
	.quad	LLSDA4674-.
	.byte	0x4
	.set L$set$365,LCFI188-LFB4674
	.long L$set$365
	.byte	0xe
	.uleb128 0x50
	.byte	0x9d
	.uleb128 0xa
	.byte	0x9e
	.uleb128 0x9
	.byte	0x4
	.set L$set$366,LCFI189-LCFI188
	.long L$set$366
	.byte	0x93
	.uleb128 0x8
	.byte	0x94
	.uleb128 0x7
	.byte	0x4
	.set L$set$367,LCFI190-LCFI189
	.long L$set$367
	.byte	0xde
	.byte	0xdd
	.byte	0xd3
	.byte	0xd4
	.byte	0xe
	.uleb128 0
	.align	3
LEFDE175:
LSFDE177:
	.set L$set$368,LEFDE177-LASFDE177
	.long L$set$368
LASFDE177:
	.long	LASFDE177-EH_frame1
	.quad	LFB4675-.
	.set L$set$369,LFE4675-LFB4675
	.quad L$set$369
	.uleb128 0x8
	.quad	0
	.byte	0x4
	.set L$set$370,LCFI191-LFB4675
	.long L$set$370
	.byte	0xe
	.uleb128 0x20
	.byte	0x9d
	.uleb128 0x4
	.byte	0x9e
	.uleb128 0x3
	.byte	0x4
	.set L$set$371,LCFI192-LCFI191
	.long L$set$371
	.byte	0xde
	.byte	0xdd
	.byte	0xe
	.uleb128 0
	.align	3
LEFDE177:
LSFDE179:
	.set L$set$372,LEFDE179-LASFDE179
	.long L$set$372
LASFDE179:
	.long	LASFDE179-EH_frame1
	.quad	LFB4810-.
	.set L$set$373,LFE4810-LFB4810
	.quad L$set$373
	.uleb128 0x8
	.quad	0
	.byte	0x4
	.set L$set$374,LCFI193-LFB4810
	.long L$set$374
	.byte	0xe
	.uleb128 0x10
	.byte	0x4
	.set L$set$375,LCFI194-LCFI193
	.long L$set$375
	.byte	0xe
	.uleb128 0
	.align	3
LEFDE179:
LSFDE181:
	.set L$set$376,LEFDE181-LASFDE181
	.long L$set$376
LASFDE181:
	.long	LASFDE181-EH_frame1
	.quad	LFB4813-.
	.set L$set$377,LFE4813-LFB4813
	.quad L$set$377
	.uleb128 0x8
	.quad	0
	.byte	0x4
	.set L$set$378,LCFI195-LFB4813
	.long L$set$378
	.byte	0xe
	.uleb128 0x10
	.byte	0x4
	.set L$set$379,LCFI196-LCFI195
	.long L$set$379
	.byte	0xe
	.uleb128 0
	.align	3
LEFDE181:
LSFDE183:
	.set L$set$380,LEFDE183-LASFDE183
	.long L$set$380
LASFDE183:
	.long	LASFDE183-EH_frame1
	.quad	LFB4816-.
	.set L$set$381,LFE4816-LFB4816
	.quad L$set$381
	.uleb128 0x8
	.quad	0
	.byte	0x4
	.set L$set$382,LCFI197-LFB4816
	.long L$set$382
	.byte	0xe
	.uleb128 0x10
	.byte	0x4
	.set L$set$383,LCFI198-LCFI197
	.long L$set$383
	.byte	0xe
	.uleb128 0
	.align	3
LEFDE183:
LSFDE185:
	.set L$set$384,LEFDE185-LASFDE185
	.long L$set$384
LASFDE185:
	.long	LASFDE185-EH_frame1
	.quad	LFB4818-.
	.set L$set$385,LFE4818-LFB4818
	.quad L$set$385
	.uleb128 0x8
	.quad	0
	.byte	0x4
	.set L$set$386,LCFI199-LFB4818
	.long L$set$386
	.byte	0xe
	.uleb128 0x40
	.byte	0x9d
	.uleb128 0x8
	.byte	0x9e
	.uleb128 0x7
	.byte	0x4
	.set L$set$387,LCFI200-LCFI199
	.long L$set$387
	.byte	0x93
	.uleb128 0x6
	.byte	0x4
	.set L$set$388,LCFI201-LCFI200
	.long L$set$388
	.byte	0xde
	.byte	0xdd
	.byte	0xd3
	.byte	0xe
	.uleb128 0
	.align	3
LEFDE185:
LSFDE187:
	.set L$set$389,LEFDE187-LASFDE187
	.long L$set$389
LASFDE187:
	.long	LASFDE187-EH_frame1
	.quad	LFB4822-.
	.set L$set$390,LFE4822-LFB4822
	.quad L$set$390
	.uleb128 0x8
	.quad	0
	.byte	0x4
	.set L$set$391,LCFI202-LFB4822
	.long L$set$391
	.byte	0xe
	.uleb128 0x20
	.byte	0x9d
	.uleb128 0x4
	.byte	0x9e
	.uleb128 0x3
	.byte	0x4
	.set L$set$392,LCFI203-LCFI202
	.long L$set$392
	.byte	0xde
	.byte	0xdd
	.byte	0xe
	.uleb128 0
	.align	3
LEFDE187:
LSFDE189:
	.set L$set$393,LEFDE189-LASFDE189
	.long L$set$393
LASFDE189:
	.long	LASFDE189-EH_frame1
	.quad	LFB4823-.
	.set L$set$394,LFE4823-LFB4823
	.quad L$set$394
	.uleb128 0x8
	.quad	LLSDA4823-.
	.byte	0x4
	.set L$set$395,LCFI204-LFB4823
	.long L$set$395
	.byte	0xe
	.uleb128 0x40
	.byte	0x9d
	.uleb128 0x8
	.byte	0x9e
	.uleb128 0x7
	.byte	0x4
	.set L$set$396,LCFI205-LCFI204
	.long L$set$396
	.byte	0x93
	.uleb128 0x6
	.byte	0x4
	.set L$set$397,LCFI206-LCFI205
	.long L$set$397
	.byte	0xde
	.byte	0xdd
	.byte	0xd3
	.byte	0xe
	.uleb128 0
	.align	3
LEFDE189:
LSFDE191:
	.set L$set$398,LEFDE191-LASFDE191
	.long L$set$398
LASFDE191:
	.long	LASFDE191-EH_frame1
	.quad	LFB4826-.
	.set L$set$399,LFE4826-LFB4826
	.quad L$set$399
	.uleb128 0x8
	.quad	LLSDA4826-.
	.byte	0x4
	.set L$set$400,LCFI207-LFB4826
	.long L$set$400
	.byte	0xe
	.uleb128 0x20
	.byte	0x9d
	.uleb128 0x4
	.byte	0x9e
	.uleb128 0x3
	.byte	0x4
	.set L$set$401,LCFI208-LCFI207
	.long L$set$401
	.byte	0xde
	.byte	0xdd
	.byte	0xe
	.uleb128 0
	.align	3
LEFDE191:
LSFDE193:
	.set L$set$402,LEFDE193-LASFDE193
	.long L$set$402
LASFDE193:
	.long	LASFDE193-EH_frame1
	.quad	LFB4828-.
	.set L$set$403,LFE4828-LFB4828
	.quad L$set$403
	.uleb128 0x8
	.quad	0
	.byte	0x4
	.set L$set$404,LCFI209-LFB4828
	.long L$set$404
	.byte	0xe
	.uleb128 0x40
	.byte	0x9d
	.uleb128 0x8
	.byte	0x9e
	.uleb128 0x7
	.byte	0x4
	.set L$set$405,LCFI210-LCFI209
	.long L$set$405
	.byte	0x93
	.uleb128 0x6
	.byte	0x4
	.set L$set$406,LCFI211-LCFI210
	.long L$set$406
	.byte	0xde
	.byte	0xdd
	.byte	0xd3
	.byte	0xe
	.uleb128 0
	.align	3
LEFDE193:
LSFDE195:
	.set L$set$407,LEFDE195-LASFDE195
	.long L$set$407
LASFDE195:
	.long	LASFDE195-EH_frame1
	.quad	LFB4829-.
	.set L$set$408,LFE4829-LFB4829
	.quad L$set$408
	.uleb128 0x8
	.quad	0
	.byte	0x4
	.set L$set$409,LCFI212-LFB4829
	.long L$set$409
	.byte	0xe
	.uleb128 0x10
	.byte	0x4
	.set L$set$410,LCFI213-LCFI212
	.long L$set$410
	.byte	0xe
	.uleb128 0
	.align	3
LEFDE195:
LSFDE197:
	.set L$set$411,LEFDE197-LASFDE197
	.long L$set$411
LASFDE197:
	.long	LASFDE197-EH_frame1
	.quad	LFB4830-.
	.set L$set$412,LFE4830-LFB4830
	.quad L$set$412
	.uleb128 0x8
	.quad	0
	.byte	0x4
	.set L$set$413,LCFI214-LFB4830
	.long L$set$413
	.byte	0xe
	.uleb128 0x30
	.byte	0x9d
	.uleb128 0x6
	.byte	0x9e
	.uleb128 0x5
	.byte	0x4
	.set L$set$414,LCFI215-LCFI214
	.long L$set$414
	.byte	0xde
	.byte	0xdd
	.byte	0xe
	.uleb128 0
	.align	3
LEFDE197:
LSFDE199:
	.set L$set$415,LEFDE199-LASFDE199
	.long L$set$415
LASFDE199:
	.long	LASFDE199-EH_frame1
	.quad	LFB4832-.
	.set L$set$416,LFE4832-LFB4832
	.quad L$set$416
	.uleb128 0x8
	.quad	0
	.byte	0x4
	.set L$set$417,LCFI216-LFB4832
	.long L$set$417
	.byte	0xe
	.uleb128 0x10
	.byte	0x4
	.set L$set$418,LCFI217-LCFI216
	.long L$set$418
	.byte	0xe
	.uleb128 0
	.align	3
LEFDE199:
LSFDE201:
	.set L$set$419,LEFDE201-LASFDE201
	.long L$set$419
LASFDE201:
	.long	LASFDE201-EH_frame1
	.quad	LFB4835-.
	.set L$set$420,LFE4835-LFB4835
	.quad L$set$420
	.uleb128 0x8
	.quad	0
	.byte	0x4
	.set L$set$421,LCFI218-LFB4835
	.long L$set$421
	.byte	0xe
	.uleb128 0x10
	.byte	0x4
	.set L$set$422,LCFI219-LCFI218
	.long L$set$422
	.byte	0xe
	.uleb128 0
	.align	3
LEFDE201:
LSFDE203:
	.set L$set$423,LEFDE203-LASFDE203
	.long L$set$423
LASFDE203:
	.long	LASFDE203-EH_frame1
	.quad	LFB4837-.
	.set L$set$424,LFE4837-LFB4837
	.quad L$set$424
	.uleb128 0x8
	.quad	LLSDA4837-.
	.byte	0x4
	.set L$set$425,LCFI220-LFB4837
	.long L$set$425
	.byte	0xe
	.uleb128 0x20
	.byte	0x9d
	.uleb128 0x4
	.byte	0x9e
	.uleb128 0x3
	.byte	0x4
	.set L$set$426,LCFI221-LCFI220
	.long L$set$426
	.byte	0xde
	.byte	0xdd
	.byte	0xe
	.uleb128 0
	.align	3
LEFDE203:
LSFDE205:
	.set L$set$427,LEFDE205-LASFDE205
	.long L$set$427
LASFDE205:
	.long	LASFDE205-EH_frame1
	.quad	LFB4838-.
	.set L$set$428,LFE4838-LFB4838
	.quad L$set$428
	.uleb128 0x8
	.quad	0
	.byte	0x4
	.set L$set$429,LCFI222-LFB4838
	.long L$set$429
	.byte	0xe
	.uleb128 0x20
	.byte	0x9d
	.uleb128 0x4
	.byte	0x9e
	.uleb128 0x3
	.byte	0x4
	.set L$set$430,LCFI223-LCFI222
	.long L$set$430
	.byte	0xde
	.byte	0xdd
	.byte	0xe
	.uleb128 0
	.align	3
LEFDE205:
LSFDE207:
	.set L$set$431,LEFDE207-LASFDE207
	.long L$set$431
LASFDE207:
	.long	LASFDE207-EH_frame1
	.quad	LFB4840-.
	.set L$set$432,LFE4840-LFB4840
	.quad L$set$432
	.uleb128 0x8
	.quad	0
	.byte	0x4
	.set L$set$433,LCFI224-LFB4840
	.long L$set$433
	.byte	0xe
	.uleb128 0x20
	.byte	0x9d
	.uleb128 0x4
	.byte	0x9e
	.uleb128 0x3
	.byte	0x4
	.set L$set$434,LCFI225-LCFI224
	.long L$set$434
	.byte	0xde
	.byte	0xdd
	.byte	0xe
	.uleb128 0
	.align	3
LEFDE207:
LSFDE209:
	.set L$set$435,LEFDE209-LASFDE209
	.long L$set$435
LASFDE209:
	.long	LASFDE209-EH_frame1
	.quad	LFB4843-.
	.set L$set$436,LFE4843-LFB4843
	.quad L$set$436
	.uleb128 0x8
	.quad	0
	.byte	0x4
	.set L$set$437,LCFI226-LFB4843
	.long L$set$437
	.byte	0xe
	.uleb128 0x10
	.byte	0x4
	.set L$set$438,LCFI227-LCFI226
	.long L$set$438
	.byte	0xe
	.uleb128 0
	.align	3
LEFDE209:
LSFDE211:
	.set L$set$439,LEFDE211-LASFDE211
	.long L$set$439
LASFDE211:
	.long	LASFDE211-EH_frame1
	.quad	LFB4845-.
	.set L$set$440,LFE4845-LFB4845
	.quad L$set$440
	.uleb128 0x8
	.quad	0
	.byte	0x4
	.set L$set$441,LCFI228-LFB4845
	.long L$set$441
	.byte	0xe
	.uleb128 0x40
	.byte	0x9d
	.uleb128 0x8
	.byte	0x9e
	.uleb128 0x7
	.byte	0x4
	.set L$set$442,LCFI229-LCFI228
	.long L$set$442
	.byte	0xde
	.byte	0xdd
	.byte	0xe
	.uleb128 0
	.align	3
LEFDE211:
LSFDE213:
	.set L$set$443,LEFDE213-LASFDE213
	.long L$set$443
LASFDE213:
	.long	LASFDE213-EH_frame1
	.quad	LFB4847-.
	.set L$set$444,LFE4847-LFB4847
	.quad L$set$444
	.uleb128 0x8
	.quad	0
	.byte	0x4
	.set L$set$445,LCFI230-LFB4847
	.long L$set$445
	.byte	0xe
	.uleb128 0x10
	.byte	0x4
	.set L$set$446,LCFI231-LCFI230
	.long L$set$446
	.byte	0xe
	.uleb128 0
	.align	3
LEFDE213:
LSFDE215:
	.set L$set$447,LEFDE215-LASFDE215
	.long L$set$447
LASFDE215:
	.long	LASFDE215-EH_frame1
	.quad	LFB4850-.
	.set L$set$448,LFE4850-LFB4850
	.quad L$set$448
	.uleb128 0x8
	.quad	0
	.byte	0x4
	.set L$set$449,LCFI232-LFB4850
	.long L$set$449
	.byte	0xe
	.uleb128 0x10
	.byte	0x4
	.set L$set$450,LCFI233-LCFI232
	.long L$set$450
	.byte	0xe
	.uleb128 0
	.align	3
LEFDE215:
LSFDE217:
	.set L$set$451,LEFDE217-LASFDE217
	.long L$set$451
LASFDE217:
	.long	LASFDE217-EH_frame1
	.quad	LFB4852-.
	.set L$set$452,LFE4852-LFB4852
	.quad L$set$452
	.uleb128 0x8
	.quad	0
	.byte	0x4
	.set L$set$453,LCFI234-LFB4852
	.long L$set$453
	.byte	0xe
	.uleb128 0x40
	.byte	0x9d
	.uleb128 0x8
	.byte	0x9e
	.uleb128 0x7
	.byte	0x4
	.set L$set$454,LCFI235-LCFI234
	.long L$set$454
	.byte	0x93
	.uleb128 0x6
	.byte	0x4
	.set L$set$455,LCFI236-LCFI235
	.long L$set$455
	.byte	0xde
	.byte	0xdd
	.byte	0xd3
	.byte	0xe
	.uleb128 0
	.align	3
LEFDE217:
LSFDE219:
	.set L$set$456,LEFDE219-LASFDE219
	.long L$set$456
LASFDE219:
	.long	LASFDE219-EH_frame1
	.quad	LFB4856-.
	.set L$set$457,LFE4856-LFB4856
	.quad L$set$457
	.uleb128 0x8
	.quad	0
	.byte	0x4
	.set L$set$458,LCFI237-LFB4856
	.long L$set$458
	.byte	0xe
	.uleb128 0x20
	.byte	0x9d
	.uleb128 0x4
	.byte	0x9e
	.uleb128 0x3
	.byte	0x4
	.set L$set$459,LCFI238-LCFI237
	.long L$set$459
	.byte	0xde
	.byte	0xdd
	.byte	0xe
	.uleb128 0
	.align	3
LEFDE219:
LSFDE221:
	.set L$set$460,LEFDE221-LASFDE221
	.long L$set$460
LASFDE221:
	.long	LASFDE221-EH_frame1
	.quad	LFB4857-.
	.set L$set$461,LFE4857-LFB4857
	.quad L$set$461
	.uleb128 0x8
	.quad	LLSDA4857-.
	.byte	0x4
	.set L$set$462,LCFI239-LFB4857
	.long L$set$462
	.byte	0xe
	.uleb128 0x40
	.byte	0x9d
	.uleb128 0x8
	.byte	0x9e
	.uleb128 0x7
	.byte	0x4
	.set L$set$463,LCFI240-LCFI239
	.long L$set$463
	.byte	0x93
	.uleb128 0x6
	.byte	0x4
	.set L$set$464,LCFI241-LCFI240
	.long L$set$464
	.byte	0xde
	.byte	0xdd
	.byte	0xd3
	.byte	0xe
	.uleb128 0
	.align	3
LEFDE221:
LSFDE223:
	.set L$set$465,LEFDE223-LASFDE223
	.long L$set$465
LASFDE223:
	.long	LASFDE223-EH_frame1
	.quad	LFB4860-.
	.set L$set$466,LFE4860-LFB4860
	.quad L$set$466
	.uleb128 0x8
	.quad	LLSDA4860-.
	.byte	0x4
	.set L$set$467,LCFI242-LFB4860
	.long L$set$467
	.byte	0xe
	.uleb128 0x20
	.byte	0x9d
	.uleb128 0x4
	.byte	0x9e
	.uleb128 0x3
	.byte	0x4
	.set L$set$468,LCFI243-LCFI242
	.long L$set$468
	.byte	0xde
	.byte	0xdd
	.byte	0xe
	.uleb128 0
	.align	3
LEFDE223:
LSFDE225:
	.set L$set$469,LEFDE225-LASFDE225
	.long L$set$469
LASFDE225:
	.long	LASFDE225-EH_frame1
	.quad	LFB4862-.
	.set L$set$470,LFE4862-LFB4862
	.quad L$set$470
	.uleb128 0x8
	.quad	0
	.byte	0x4
	.set L$set$471,LCFI244-LFB4862
	.long L$set$471
	.byte	0xe
	.uleb128 0x40
	.byte	0x9d
	.uleb128 0x8
	.byte	0x9e
	.uleb128 0x7
	.byte	0x4
	.set L$set$472,LCFI245-LCFI244
	.long L$set$472
	.byte	0x93
	.uleb128 0x6
	.byte	0x4
	.set L$set$473,LCFI246-LCFI245
	.long L$set$473
	.byte	0xde
	.byte	0xdd
	.byte	0xd3
	.byte	0xe
	.uleb128 0
	.align	3
LEFDE225:
LSFDE227:
	.set L$set$474,LEFDE227-LASFDE227
	.long L$set$474
LASFDE227:
	.long	LASFDE227-EH_frame1
	.quad	LFB4863-.
	.set L$set$475,LFE4863-LFB4863
	.quad L$set$475
	.uleb128 0x8
	.quad	0
	.byte	0x4
	.set L$set$476,LCFI247-LFB4863
	.long L$set$476
	.byte	0xe
	.uleb128 0x10
	.byte	0x4
	.set L$set$477,LCFI248-LCFI247
	.long L$set$477
	.byte	0xe
	.uleb128 0
	.align	3
LEFDE227:
LSFDE229:
	.set L$set$478,LEFDE229-LASFDE229
	.long L$set$478
LASFDE229:
	.long	LASFDE229-EH_frame1
	.quad	LFB4864-.
	.set L$set$479,LFE4864-LFB4864
	.quad L$set$479
	.uleb128 0x8
	.quad	0
	.byte	0x4
	.set L$set$480,LCFI249-LFB4864
	.long L$set$480
	.byte	0xe
	.uleb128 0x30
	.byte	0x9d
	.uleb128 0x6
	.byte	0x9e
	.uleb128 0x5
	.byte	0x4
	.set L$set$481,LCFI250-LCFI249
	.long L$set$481
	.byte	0xde
	.byte	0xdd
	.byte	0xe
	.uleb128 0
	.align	3
LEFDE229:
LSFDE231:
	.set L$set$482,LEFDE231-LASFDE231
	.long L$set$482
LASFDE231:
	.long	LASFDE231-EH_frame1
	.quad	LFB4893-.
	.set L$set$483,LFE4893-LFB4893
	.quad L$set$483
	.uleb128 0x8
	.quad	0
	.byte	0x4
	.set L$set$484,LCFI251-LFB4893
	.long L$set$484
	.byte	0xe
	.uleb128 0x40
	.byte	0x9d
	.uleb128 0x8
	.byte	0x9e
	.uleb128 0x7
	.byte	0x4
	.set L$set$485,LCFI252-LCFI251
	.long L$set$485
	.byte	0xde
	.byte	0xdd
	.byte	0xe
	.uleb128 0
	.align	3
LEFDE231:
LSFDE233:
	.set L$set$486,LEFDE233-LASFDE233
	.long L$set$486
LASFDE233:
	.long	LASFDE233-EH_frame1
	.quad	LFB4894-.
	.set L$set$487,LFE4894-LFB4894
	.quad L$set$487
	.uleb128 0x8
	.quad	0
	.byte	0x4
	.set L$set$488,LCFI253-LFB4894
	.long L$set$488
	.byte	0xe
	.uleb128 0x30
	.byte	0x9d
	.uleb128 0x6
	.byte	0x9e
	.uleb128 0x5
	.byte	0x4
	.set L$set$489,LCFI254-LCFI253
	.long L$set$489
	.byte	0xde
	.byte	0xdd
	.byte	0xe
	.uleb128 0
	.align	3
LEFDE233:
LSFDE235:
	.set L$set$490,LEFDE235-LASFDE235
	.long L$set$490
LASFDE235:
	.long	LASFDE235-EH_frame1
	.quad	LFB4895-.
	.set L$set$491,LFE4895-LFB4895
	.quad L$set$491
	.uleb128 0x8
	.quad	0
	.byte	0x4
	.set L$set$492,LCFI255-LFB4895
	.long L$set$492
	.byte	0xe
	.uleb128 0x20
	.byte	0x9d
	.uleb128 0x4
	.byte	0x9e
	.uleb128 0x3
	.byte	0x4
	.set L$set$493,LCFI256-LCFI255
	.long L$set$493
	.byte	0xde
	.byte	0xdd
	.byte	0xe
	.uleb128 0
	.align	3
LEFDE235:
LSFDE237:
	.set L$set$494,LEFDE237-LASFDE237
	.long L$set$494
LASFDE237:
	.long	LASFDE237-EH_frame1
	.quad	LFB4898-.
	.set L$set$495,LFE4898-LFB4898
	.quad L$set$495
	.uleb128 0x8
	.quad	0
	.byte	0x4
	.set L$set$496,LCFI257-LFB4898
	.long L$set$496
	.byte	0xe
	.uleb128 0x10
	.byte	0x4
	.set L$set$497,LCFI258-LCFI257
	.long L$set$497
	.byte	0xe
	.uleb128 0
	.align	3
LEFDE237:
LSFDE239:
	.set L$set$498,LEFDE239-LASFDE239
	.long L$set$498
LASFDE239:
	.long	LASFDE239-EH_frame1
	.quad	LFB4899-.
	.set L$set$499,LFE4899-LFB4899
	.quad L$set$499
	.uleb128 0x8
	.quad	0
	.byte	0x4
	.set L$set$500,LCFI259-LFB4899
	.long L$set$500
	.byte	0xe
	.uleb128 0x30
	.byte	0x9d
	.uleb128 0x6
	.byte	0x9e
	.uleb128 0x5
	.byte	0x4
	.set L$set$501,LCFI260-LCFI259
	.long L$set$501
	.byte	0xde
	.byte	0xdd
	.byte	0xe
	.uleb128 0
	.align	3
LEFDE239:
LSFDE241:
	.set L$set$502,LEFDE241-LASFDE241
	.long L$set$502
LASFDE241:
	.long	LASFDE241-EH_frame1
	.quad	LFB4900-.
	.set L$set$503,LFE4900-LFB4900
	.quad L$set$503
	.uleb128 0x8
	.quad	0
	.byte	0x4
	.set L$set$504,LCFI261-LFB4900
	.long L$set$504
	.byte	0xe
	.uleb128 0x50
	.byte	0x9d
	.uleb128 0xa
	.byte	0x9e
	.uleb128 0x9
	.byte	0x4
	.set L$set$505,LCFI262-LCFI261
	.long L$set$505
	.byte	0x93
	.uleb128 0x8
	.byte	0x4
	.set L$set$506,LCFI263-LCFI262
	.long L$set$506
	.byte	0xde
	.byte	0xdd
	.byte	0xd3
	.byte	0xe
	.uleb128 0
	.align	3
LEFDE241:
LSFDE243:
	.set L$set$507,LEFDE243-LASFDE243
	.long L$set$507
LASFDE243:
	.long	LASFDE243-EH_frame1
	.quad	LFB4901-.
	.set L$set$508,LFE4901-LFB4901
	.quad L$set$508
	.uleb128 0x8
	.quad	0
	.byte	0x4
	.set L$set$509,LCFI264-LFB4901
	.long L$set$509
	.byte	0xe
	.uleb128 0x40
	.byte	0x9d
	.uleb128 0x8
	.byte	0x9e
	.uleb128 0x7
	.byte	0x4
	.set L$set$510,LCFI265-LCFI264
	.long L$set$510
	.byte	0x93
	.uleb128 0x6
	.byte	0x4
	.set L$set$511,LCFI266-LCFI265
	.long L$set$511
	.byte	0xde
	.byte	0xdd
	.byte	0xd3
	.byte	0xe
	.uleb128 0
	.align	3
LEFDE243:
LSFDE245:
	.set L$set$512,LEFDE245-LASFDE245
	.long L$set$512
LASFDE245:
	.long	LASFDE245-EH_frame1
	.quad	LFB4902-.
	.set L$set$513,LFE4902-LFB4902
	.quad L$set$513
	.uleb128 0x8
	.quad	0
	.byte	0x4
	.set L$set$514,LCFI267-LFB4902
	.long L$set$514
	.byte	0xe
	.uleb128 0x30
	.byte	0x9d
	.uleb128 0x6
	.byte	0x9e
	.uleb128 0x5
	.byte	0x4
	.set L$set$515,LCFI268-LCFI267
	.long L$set$515
	.byte	0xde
	.byte	0xdd
	.byte	0xe
	.uleb128 0
	.align	3
LEFDE245:
LSFDE247:
	.set L$set$516,LEFDE247-LASFDE247
	.long L$set$516
LASFDE247:
	.long	LASFDE247-EH_frame1
	.quad	LFB4903-.
	.set L$set$517,LFE4903-LFB4903
	.quad L$set$517
	.uleb128 0x8
	.quad	0
	.byte	0x4
	.set L$set$518,LCFI269-LFB4903
	.long L$set$518
	.byte	0xe
	.uleb128 0x30
	.byte	0x9d
	.uleb128 0x6
	.byte	0x9e
	.uleb128 0x5
	.byte	0x4
	.set L$set$519,LCFI270-LCFI269
	.long L$set$519
	.byte	0xde
	.byte	0xdd
	.byte	0xe
	.uleb128 0
	.align	3
LEFDE247:
LSFDE249:
	.set L$set$520,LEFDE249-LASFDE249
	.long L$set$520
LASFDE249:
	.long	LASFDE249-EH_frame1
	.quad	LFB4904-.
	.set L$set$521,LFE4904-LFB4904
	.quad L$set$521
	.uleb128 0x8
	.quad	0
	.byte	0x4
	.set L$set$522,LCFI271-LFB4904
	.long L$set$522
	.byte	0xe
	.uleb128 0x20
	.byte	0x9d
	.uleb128 0x4
	.byte	0x9e
	.uleb128 0x3
	.byte	0x4
	.set L$set$523,LCFI272-LCFI271
	.long L$set$523
	.byte	0xde
	.byte	0xdd
	.byte	0xe
	.uleb128 0
	.align	3
LEFDE249:
LSFDE251:
	.set L$set$524,LEFDE251-LASFDE251
	.long L$set$524
LASFDE251:
	.long	LASFDE251-EH_frame1
	.quad	LFB4905-.
	.set L$set$525,LFE4905-LFB4905
	.quad L$set$525
	.uleb128 0x8
	.quad	0
	.byte	0x4
	.set L$set$526,LCFI273-LFB4905
	.long L$set$526
	.byte	0xe
	.uleb128 0x40
	.byte	0x9d
	.uleb128 0x8
	.byte	0x9e
	.uleb128 0x7
	.byte	0x4
	.set L$set$527,LCFI274-LCFI273
	.long L$set$527
	.byte	0xde
	.byte	0xdd
	.byte	0xe
	.uleb128 0
	.align	3
LEFDE251:
LSFDE253:
	.set L$set$528,LEFDE253-LASFDE253
	.long L$set$528
LASFDE253:
	.long	LASFDE253-EH_frame1
	.quad	LFB4906-.
	.set L$set$529,LFE4906-LFB4906
	.quad L$set$529
	.uleb128 0x8
	.quad	0
	.byte	0x4
	.set L$set$530,LCFI275-LFB4906
	.long L$set$530
	.byte	0xe
	.uleb128 0x10
	.byte	0x4
	.set L$set$531,LCFI276-LCFI275
	.long L$set$531
	.byte	0xe
	.uleb128 0
	.align	3
LEFDE253:
LSFDE255:
	.set L$set$532,LEFDE255-LASFDE255
	.long L$set$532
LASFDE255:
	.long	LASFDE255-EH_frame1
	.quad	LFB4909-.
	.set L$set$533,LFE4909-LFB4909
	.quad L$set$533
	.uleb128 0x8
	.quad	0
	.byte	0x4
	.set L$set$534,LCFI277-LFB4909
	.long L$set$534
	.byte	0xe
	.uleb128 0x30
	.byte	0x9d
	.uleb128 0x6
	.byte	0x9e
	.uleb128 0x5
	.byte	0x4
	.set L$set$535,LCFI278-LCFI277
	.long L$set$535
	.byte	0xde
	.byte	0xdd
	.byte	0xe
	.uleb128 0
	.align	3
LEFDE255:
LSFDE257:
	.set L$set$536,LEFDE257-LASFDE257
	.long L$set$536
LASFDE257:
	.long	LASFDE257-EH_frame1
	.quad	LFB4910-.
	.set L$set$537,LFE4910-LFB4910
	.quad L$set$537
	.uleb128 0x8
	.quad	0
	.byte	0x4
	.set L$set$538,LCFI279-LFB4910
	.long L$set$538
	.byte	0xe
	.uleb128 0x10
	.byte	0x4
	.set L$set$539,LCFI280-LCFI279
	.long L$set$539
	.byte	0xe
	.uleb128 0
	.align	3
LEFDE257:
LSFDE259:
	.set L$set$540,LEFDE259-LASFDE259
	.long L$set$540
LASFDE259:
	.long	LASFDE259-EH_frame1
	.quad	LFB4911-.
	.set L$set$541,LFE4911-LFB4911
	.quad L$set$541
	.uleb128 0x8
	.quad	0
	.byte	0x4
	.set L$set$542,LCFI281-LFB4911
	.long L$set$542
	.byte	0xe
	.uleb128 0x30
	.byte	0x9d
	.uleb128 0x6
	.byte	0x9e
	.uleb128 0x5
	.byte	0x4
	.set L$set$543,LCFI282-LCFI281
	.long L$set$543
	.byte	0x93
	.uleb128 0x4
	.byte	0x4
	.set L$set$544,LCFI283-LCFI282
	.long L$set$544
	.byte	0xde
	.byte	0xdd
	.byte	0xd3
	.byte	0xe
	.uleb128 0
	.align	3
LEFDE259:
LSFDE261:
	.set L$set$545,LEFDE261-LASFDE261
	.long L$set$545
LASFDE261:
	.long	LASFDE261-EH_frame1
	.quad	LFB4912-.
	.set L$set$546,LFE4912-LFB4912
	.quad L$set$546
	.uleb128 0x8
	.quad	0
	.byte	0x4
	.set L$set$547,LCFI284-LFB4912
	.long L$set$547
	.byte	0xe
	.uleb128 0x20
	.byte	0x9d
	.uleb128 0x4
	.byte	0x9e
	.uleb128 0x3
	.byte	0x4
	.set L$set$548,LCFI285-LCFI284
	.long L$set$548
	.byte	0xde
	.byte	0xdd
	.byte	0xe
	.uleb128 0
	.align	3
LEFDE261:
LSFDE263:
	.set L$set$549,LEFDE263-LASFDE263
	.long L$set$549
LASFDE263:
	.long	LASFDE263-EH_frame1
	.quad	LFB4914-.
	.set L$set$550,LFE4914-LFB4914
	.quad L$set$550
	.uleb128 0x8
	.quad	0
	.byte	0x4
	.set L$set$551,LCFI286-LFB4914
	.long L$set$551
	.byte	0xe
	.uleb128 0x30
	.byte	0x9d
	.uleb128 0x6
	.byte	0x9e
	.uleb128 0x5
	.byte	0x4
	.set L$set$552,LCFI287-LCFI286
	.long L$set$552
	.byte	0x93
	.uleb128 0x4
	.byte	0x94
	.uleb128 0x3
	.byte	0x4
	.set L$set$553,LCFI288-LCFI287
	.long L$set$553
	.byte	0xde
	.byte	0xdd
	.byte	0xd3
	.byte	0xd4
	.byte	0xe
	.uleb128 0
	.align	3
LEFDE263:
LSFDE265:
	.set L$set$554,LEFDE265-LASFDE265
	.long L$set$554
LASFDE265:
	.long	LASFDE265-EH_frame1
	.quad	LFB4913-.
	.set L$set$555,LFE4913-LFB4913
	.quad L$set$555
	.uleb128 0x8
	.quad	LLSDA4913-.
	.byte	0x4
	.set L$set$556,LCFI289-LFB4913
	.long L$set$556
	.byte	0xe
	.uleb128 0x50
	.byte	0x9d
	.uleb128 0xa
	.byte	0x9e
	.uleb128 0x9
	.byte	0x4
	.set L$set$557,LCFI290-LCFI289
	.long L$set$557
	.byte	0x93
	.uleb128 0x8
	.byte	0x4
	.set L$set$558,LCFI291-LCFI290
	.long L$set$558
	.byte	0xde
	.byte	0xdd
	.byte	0xd3
	.byte	0xe
	.uleb128 0
	.align	3
LEFDE265:
LSFDE267:
	.set L$set$559,LEFDE267-LASFDE267
	.long L$set$559
LASFDE267:
	.long	LASFDE267-EH_frame1
	.quad	LFB4979-.
	.set L$set$560,LFE4979-LFB4979
	.quad L$set$560
	.uleb128 0x8
	.quad	0
	.byte	0x4
	.set L$set$561,LCFI292-LFB4979
	.long L$set$561
	.byte	0xe
	.uleb128 0x30
	.byte	0x9d
	.uleb128 0x6
	.byte	0x9e
	.uleb128 0x5
	.byte	0x4
	.set L$set$562,LCFI293-LCFI292
	.long L$set$562
	.byte	0xde
	.byte	0xdd
	.byte	0xe
	.uleb128 0
	.align	3
LEFDE267:
LSFDE269:
	.set L$set$563,LEFDE269-LASFDE269
	.long L$set$563
LASFDE269:
	.long	LASFDE269-EH_frame1
	.quad	LFB4981-.
	.set L$set$564,LFE4981-LFB4981
	.quad L$set$564
	.uleb128 0x8
	.quad	0
	.byte	0x4
	.set L$set$565,LCFI294-LFB4981
	.long L$set$565
	.byte	0xe
	.uleb128 0x20
	.byte	0x9d
	.uleb128 0x4
	.byte	0x9e
	.uleb128 0x3
	.byte	0x4
	.set L$set$566,LCFI295-LCFI294
	.long L$set$566
	.byte	0xde
	.byte	0xdd
	.byte	0xe
	.uleb128 0
	.align	3
LEFDE269:
LSFDE271:
	.set L$set$567,LEFDE271-LASFDE271
	.long L$set$567
LASFDE271:
	.long	LASFDE271-EH_frame1
	.quad	LFB4982-.
	.set L$set$568,LFE4982-LFB4982
	.quad L$set$568
	.uleb128 0x8
	.quad	0
	.byte	0x4
	.set L$set$569,LCFI296-LFB4982
	.long L$set$569
	.byte	0xe
	.uleb128 0x20
	.byte	0x9d
	.uleb128 0x4
	.byte	0x9e
	.uleb128 0x3
	.byte	0x4
	.set L$set$570,LCFI297-LCFI296
	.long L$set$570
	.byte	0xde
	.byte	0xdd
	.byte	0xe
	.uleb128 0
	.align	3
LEFDE271:
LSFDE273:
	.set L$set$571,LEFDE273-LASFDE273
	.long L$set$571
LASFDE273:
	.long	LASFDE273-EH_frame1
	.quad	LFB4985-.
	.set L$set$572,LFE4985-LFB4985
	.quad L$set$572
	.uleb128 0x8
	.quad	0
	.byte	0x4
	.set L$set$573,LCFI298-LFB4985
	.long L$set$573
	.byte	0xe
	.uleb128 0x20
	.byte	0x9d
	.uleb128 0x4
	.byte	0x9e
	.uleb128 0x3
	.byte	0x4
	.set L$set$574,LCFI299-LCFI298
	.long L$set$574
	.byte	0xde
	.byte	0xdd
	.byte	0xe
	.uleb128 0
	.align	3
LEFDE273:
LSFDE275:
	.set L$set$575,LEFDE275-LASFDE275
	.long L$set$575
LASFDE275:
	.long	LASFDE275-EH_frame1
	.quad	LFB4986-.
	.set L$set$576,LFE4986-LFB4986
	.quad L$set$576
	.uleb128 0x8
	.quad	0
	.byte	0x4
	.set L$set$577,LCFI300-LFB4986
	.long L$set$577
	.byte	0xe
	.uleb128 0x20
	.byte	0x9d
	.uleb128 0x4
	.byte	0x9e
	.uleb128 0x3
	.byte	0x4
	.set L$set$578,LCFI301-LCFI300
	.long L$set$578
	.byte	0xde
	.byte	0xdd
	.byte	0xe
	.uleb128 0
	.align	3
LEFDE275:
LSFDE277:
	.set L$set$579,LEFDE277-LASFDE277
	.long L$set$579
LASFDE277:
	.long	LASFDE277-EH_frame1
	.quad	LFB4987-.
	.set L$set$580,LFE4987-LFB4987
	.quad L$set$580
	.uleb128 0x8
	.quad	0
	.byte	0x4
	.set L$set$581,LCFI302-LFB4987
	.long L$set$581
	.byte	0xe
	.uleb128 0x30
	.byte	0x9d
	.uleb128 0x6
	.byte	0x9e
	.uleb128 0x5
	.byte	0x4
	.set L$set$582,LCFI303-LCFI302
	.long L$set$582
	.byte	0xde
	.byte	0xdd
	.byte	0xe
	.uleb128 0
	.align	3
LEFDE277:
LSFDE279:
	.set L$set$583,LEFDE279-LASFDE279
	.long L$set$583
LASFDE279:
	.long	LASFDE279-EH_frame1
	.quad	LFB4988-.
	.set L$set$584,LFE4988-LFB4988
	.quad L$set$584
	.uleb128 0x8
	.quad	0
	.byte	0x4
	.set L$set$585,LCFI304-LFB4988
	.long L$set$585
	.byte	0xe
	.uleb128 0x30
	.byte	0x9d
	.uleb128 0x6
	.byte	0x9e
	.uleb128 0x5
	.byte	0x4
	.set L$set$586,LCFI305-LCFI304
	.long L$set$586
	.byte	0xde
	.byte	0xdd
	.byte	0xe
	.uleb128 0
	.align	3
LEFDE279:
LSFDE281:
	.set L$set$587,LEFDE281-LASFDE281
	.long L$set$587
LASFDE281:
	.long	LASFDE281-EH_frame1
	.quad	LFB4989-.
	.set L$set$588,LFE4989-LFB4989
	.quad L$set$588
	.uleb128 0x8
	.quad	0
	.byte	0x4
	.set L$set$589,LCFI306-LFB4989
	.long L$set$589
	.byte	0xe
	.uleb128 0x20
	.byte	0x9d
	.uleb128 0x4
	.byte	0x9e
	.uleb128 0x3
	.byte	0x4
	.set L$set$590,LCFI307-LCFI306
	.long L$set$590
	.byte	0xde
	.byte	0xdd
	.byte	0xe
	.uleb128 0
	.align	3
LEFDE281:
LSFDE283:
	.set L$set$591,LEFDE283-LASFDE283
	.long L$set$591
LASFDE283:
	.long	LASFDE283-EH_frame1
	.quad	LFB4991-.
	.set L$set$592,LFE4991-LFB4991
	.quad L$set$592
	.uleb128 0x8
	.quad	0
	.byte	0x4
	.set L$set$593,LCFI308-LFB4991
	.long L$set$593
	.byte	0xe
	.uleb128 0x10
	.byte	0x4
	.set L$set$594,LCFI309-LCFI308
	.long L$set$594
	.byte	0xe
	.uleb128 0
	.align	3
LEFDE283:
LSFDE285:
	.set L$set$595,LEFDE285-LASFDE285
	.long L$set$595
LASFDE285:
	.long	LASFDE285-EH_frame1
	.quad	LFB4992-.
	.set L$set$596,LFE4992-LFB4992
	.quad L$set$596
	.uleb128 0x8
	.quad	0
	.byte	0x4
	.set L$set$597,LCFI310-LFB4992
	.long L$set$597
	.byte	0xe
	.uleb128 0x30
	.byte	0x9d
	.uleb128 0x6
	.byte	0x9e
	.uleb128 0x5
	.byte	0x4
	.set L$set$598,LCFI311-LCFI310
	.long L$set$598
	.byte	0xde
	.byte	0xdd
	.byte	0xe
	.uleb128 0
	.align	3
LEFDE285:
LSFDE287:
	.set L$set$599,LEFDE287-LASFDE287
	.long L$set$599
LASFDE287:
	.long	LASFDE287-EH_frame1
	.quad	LFB4993-.
	.set L$set$600,LFE4993-LFB4993
	.quad L$set$600
	.uleb128 0x8
	.quad	0
	.byte	0x4
	.set L$set$601,LCFI312-LFB4993
	.long L$set$601
	.byte	0xe
	.uleb128 0x30
	.byte	0x9d
	.uleb128 0x6
	.byte	0x9e
	.uleb128 0x5
	.byte	0x4
	.set L$set$602,LCFI313-LCFI312
	.long L$set$602
	.byte	0xde
	.byte	0xdd
	.byte	0xe
	.uleb128 0
	.align	3
LEFDE287:
LSFDE289:
	.set L$set$603,LEFDE289-LASFDE289
	.long L$set$603
LASFDE289:
	.long	LASFDE289-EH_frame1
	.quad	LFB4995-.
	.set L$set$604,LFE4995-LFB4995
	.quad L$set$604
	.uleb128 0x8
	.quad	0
	.byte	0x4
	.set L$set$605,LCFI314-LFB4995
	.long L$set$605
	.byte	0xe
	.uleb128 0x10
	.byte	0x4
	.set L$set$606,LCFI315-LCFI314
	.long L$set$606
	.byte	0xe
	.uleb128 0
	.align	3
LEFDE289:
LSFDE291:
	.set L$set$607,LEFDE291-LASFDE291
	.long L$set$607
LASFDE291:
	.long	LASFDE291-EH_frame1
	.quad	LFB4997-.
	.set L$set$608,LFE4997-LFB4997
	.quad L$set$608
	.uleb128 0x8
	.quad	0
	.byte	0x4
	.set L$set$609,LCFI316-LFB4997
	.long L$set$609
	.byte	0xe
	.uleb128 0x20
	.byte	0x9d
	.uleb128 0x4
	.byte	0x9e
	.uleb128 0x3
	.byte	0x4
	.set L$set$610,LCFI317-LCFI316
	.long L$set$610
	.byte	0xde
	.byte	0xdd
	.byte	0xe
	.uleb128 0
	.align	3
LEFDE291:
LSFDE293:
	.set L$set$611,LEFDE293-LASFDE293
	.long L$set$611
LASFDE293:
	.long	LASFDE293-EH_frame1
	.quad	LFB4998-.
	.set L$set$612,LFE4998-LFB4998
	.quad L$set$612
	.uleb128 0x8
	.quad	0
	.byte	0x4
	.set L$set$613,LCFI318-LFB4998
	.long L$set$613
	.byte	0xe
	.uleb128 0x10
	.byte	0x4
	.set L$set$614,LCFI319-LCFI318
	.long L$set$614
	.byte	0xe
	.uleb128 0
	.align	3
LEFDE293:
LSFDE295:
	.set L$set$615,LEFDE295-LASFDE295
	.long L$set$615
LASFDE295:
	.long	LASFDE295-EH_frame1
	.quad	LFB4999-.
	.set L$set$616,LFE4999-LFB4999
	.quad L$set$616
	.uleb128 0x8
	.quad	0
	.byte	0x4
	.set L$set$617,LCFI320-LFB4999
	.long L$set$617
	.byte	0xe
	.uleb128 0x20
	.byte	0x9d
	.uleb128 0x4
	.byte	0x9e
	.uleb128 0x3
	.byte	0x4
	.set L$set$618,LCFI321-LCFI320
	.long L$set$618
	.byte	0xde
	.byte	0xdd
	.byte	0xe
	.uleb128 0
	.align	3
LEFDE295:
LSFDE297:
	.set L$set$619,LEFDE297-LASFDE297
	.long L$set$619
LASFDE297:
	.long	LASFDE297-EH_frame1
	.quad	LFB5000-.
	.set L$set$620,LFE5000-LFB5000
	.quad L$set$620
	.uleb128 0x8
	.quad	LLSDA5000-.
	.byte	0x4
	.set L$set$621,LCFI322-LFB5000
	.long L$set$621
	.byte	0xe
	.uleb128 0x20
	.byte	0x9d
	.uleb128 0x4
	.byte	0x9e
	.uleb128 0x3
	.byte	0x4
	.set L$set$622,LCFI323-LCFI322
	.long L$set$622
	.byte	0xde
	.byte	0xdd
	.byte	0xe
	.uleb128 0
	.align	3
LEFDE297:
LSFDE299:
	.set L$set$623,LEFDE299-LASFDE299
	.long L$set$623
LASFDE299:
	.long	LASFDE299-EH_frame1
	.quad	LFB5001-.
	.set L$set$624,LFE5001-LFB5001
	.quad L$set$624
	.uleb128 0x8
	.quad	0
	.byte	0x4
	.set L$set$625,LCFI324-LFB5001
	.long L$set$625
	.byte	0xe
	.uleb128 0x30
	.byte	0x9d
	.uleb128 0x6
	.byte	0x9e
	.uleb128 0x5
	.byte	0x4
	.set L$set$626,LCFI325-LCFI324
	.long L$set$626
	.byte	0xde
	.byte	0xdd
	.byte	0xe
	.uleb128 0
	.align	3
LEFDE299:
LSFDE301:
	.set L$set$627,LEFDE301-LASFDE301
	.long L$set$627
LASFDE301:
	.long	LASFDE301-EH_frame1
	.quad	LFB5003-.
	.set L$set$628,LFE5003-LFB5003
	.quad L$set$628
	.uleb128 0x8
	.quad	0
	.byte	0x4
	.set L$set$629,LCFI326-LFB5003
	.long L$set$629
	.byte	0xe
	.uleb128 0x20
	.byte	0x9d
	.uleb128 0x4
	.byte	0x9e
	.uleb128 0x3
	.byte	0x4
	.set L$set$630,LCFI327-LCFI326
	.long L$set$630
	.byte	0xde
	.byte	0xdd
	.byte	0xe
	.uleb128 0
	.align	3
LEFDE301:
LSFDE303:
	.set L$set$631,LEFDE303-LASFDE303
	.long L$set$631
LASFDE303:
	.long	LASFDE303-EH_frame1
	.quad	LFB5004-.
	.set L$set$632,LFE5004-LFB5004
	.quad L$set$632
	.uleb128 0x8
	.quad	0
	.byte	0x4
	.set L$set$633,LCFI328-LFB5004
	.long L$set$633
	.byte	0xe
	.uleb128 0x20
	.byte	0x9d
	.uleb128 0x4
	.byte	0x9e
	.uleb128 0x3
	.byte	0x4
	.set L$set$634,LCFI329-LCFI328
	.long L$set$634
	.byte	0xde
	.byte	0xdd
	.byte	0xe
	.uleb128 0
	.align	3
LEFDE303:
LSFDE305:
	.set L$set$635,LEFDE305-LASFDE305
	.long L$set$635
LASFDE305:
	.long	LASFDE305-EH_frame1
	.quad	LFB5007-.
	.set L$set$636,LFE5007-LFB5007
	.quad L$set$636
	.uleb128 0x8
	.quad	0
	.byte	0x4
	.set L$set$637,LCFI330-LFB5007
	.long L$set$637
	.byte	0xe
	.uleb128 0x20
	.byte	0x9d
	.uleb128 0x4
	.byte	0x9e
	.uleb128 0x3
	.byte	0x4
	.set L$set$638,LCFI331-LCFI330
	.long L$set$638
	.byte	0xde
	.byte	0xdd
	.byte	0xe
	.uleb128 0
	.align	3
LEFDE305:
LSFDE307:
	.set L$set$639,LEFDE307-LASFDE307
	.long L$set$639
LASFDE307:
	.long	LASFDE307-EH_frame1
	.quad	LFB5008-.
	.set L$set$640,LFE5008-LFB5008
	.quad L$set$640
	.uleb128 0x8
	.quad	0
	.byte	0x4
	.set L$set$641,LCFI332-LFB5008
	.long L$set$641
	.byte	0xe
	.uleb128 0x20
	.byte	0x9d
	.uleb128 0x4
	.byte	0x9e
	.uleb128 0x3
	.byte	0x4
	.set L$set$642,LCFI333-LCFI332
	.long L$set$642
	.byte	0xde
	.byte	0xdd
	.byte	0xe
	.uleb128 0
	.align	3
LEFDE307:
LSFDE309:
	.set L$set$643,LEFDE309-LASFDE309
	.long L$set$643
LASFDE309:
	.long	LASFDE309-EH_frame1
	.quad	LFB5009-.
	.set L$set$644,LFE5009-LFB5009
	.quad L$set$644
	.uleb128 0x8
	.quad	0
	.byte	0x4
	.set L$set$645,LCFI334-LFB5009
	.long L$set$645
	.byte	0xe
	.uleb128 0x30
	.byte	0x9d
	.uleb128 0x6
	.byte	0x9e
	.uleb128 0x5
	.byte	0x4
	.set L$set$646,LCFI335-LCFI334
	.long L$set$646
	.byte	0xde
	.byte	0xdd
	.byte	0xe
	.uleb128 0
	.align	3
LEFDE309:
LSFDE311:
	.set L$set$647,LEFDE311-LASFDE311
	.long L$set$647
LASFDE311:
	.long	LASFDE311-EH_frame1
	.quad	LFB5010-.
	.set L$set$648,LFE5010-LFB5010
	.quad L$set$648
	.uleb128 0x8
	.quad	0
	.byte	0x4
	.set L$set$649,LCFI336-LFB5010
	.long L$set$649
	.byte	0xe
	.uleb128 0x30
	.byte	0x9d
	.uleb128 0x6
	.byte	0x9e
	.uleb128 0x5
	.byte	0x4
	.set L$set$650,LCFI337-LCFI336
	.long L$set$650
	.byte	0xde
	.byte	0xdd
	.byte	0xe
	.uleb128 0
	.align	3
LEFDE311:
LSFDE313:
	.set L$set$651,LEFDE313-LASFDE313
	.long L$set$651
LASFDE313:
	.long	LASFDE313-EH_frame1
	.quad	LFB5011-.
	.set L$set$652,LFE5011-LFB5011
	.quad L$set$652
	.uleb128 0x8
	.quad	0
	.byte	0x4
	.set L$set$653,LCFI338-LFB5011
	.long L$set$653
	.byte	0xe
	.uleb128 0x20
	.byte	0x9d
	.uleb128 0x4
	.byte	0x9e
	.uleb128 0x3
	.byte	0x4
	.set L$set$654,LCFI339-LCFI338
	.long L$set$654
	.byte	0xde
	.byte	0xdd
	.byte	0xe
	.uleb128 0
	.align	3
LEFDE313:
LSFDE315:
	.set L$set$655,LEFDE315-LASFDE315
	.long L$set$655
LASFDE315:
	.long	LASFDE315-EH_frame1
	.quad	LFB5021-.
	.set L$set$656,LFE5021-LFB5021
	.quad L$set$656
	.uleb128 0x8
	.quad	0
	.byte	0x4
	.set L$set$657,LCFI340-LFB5021
	.long L$set$657
	.byte	0xe
	.uleb128 0x20
	.byte	0x9d
	.uleb128 0x4
	.byte	0x9e
	.uleb128 0x3
	.byte	0x4
	.set L$set$658,LCFI341-LCFI340
	.long L$set$658
	.byte	0xde
	.byte	0xdd
	.byte	0xe
	.uleb128 0
	.align	3
LEFDE315:
LSFDE317:
	.set L$set$659,LEFDE317-LASFDE317
	.long L$set$659
LASFDE317:
	.long	LASFDE317-EH_frame1
	.quad	LFB5022-.
	.set L$set$660,LFE5022-LFB5022
	.quad L$set$660
	.uleb128 0x8
	.quad	0
	.byte	0x4
	.set L$set$661,LCFI342-LFB5022
	.long L$set$661
	.byte	0xe
	.uleb128 0x20
	.byte	0x9d
	.uleb128 0x4
	.byte	0x9e
	.uleb128 0x3
	.byte	0x4
	.set L$set$662,LCFI343-LCFI342
	.long L$set$662
	.byte	0xde
	.byte	0xdd
	.byte	0xe
	.uleb128 0
	.align	3
LEFDE317:
LSFDE319:
	.set L$set$663,LEFDE319-LASFDE319
	.long L$set$663
LASFDE319:
	.long	LASFDE319-EH_frame1
	.quad	LFB5023-.
	.set L$set$664,LFE5023-LFB5023
	.quad L$set$664
	.uleb128 0x8
	.quad	0
	.byte	0x4
	.set L$set$665,LCFI344-LFB5023
	.long L$set$665
	.byte	0xe
	.uleb128 0x40
	.byte	0x9d
	.uleb128 0x8
	.byte	0x9e
	.uleb128 0x7
	.byte	0x4
	.set L$set$666,LCFI345-LCFI344
	.long L$set$666
	.byte	0xde
	.byte	0xdd
	.byte	0xe
	.uleb128 0
	.align	3
LEFDE319:
LSFDE321:
	.set L$set$667,LEFDE321-LASFDE321
	.long L$set$667
LASFDE321:
	.long	LASFDE321-EH_frame1
	.quad	LFB5026-.
	.set L$set$668,LFE5026-LFB5026
	.quad L$set$668
	.uleb128 0x8
	.quad	0
	.byte	0x4
	.set L$set$669,LCFI346-LFB5026
	.long L$set$669
	.byte	0xe
	.uleb128 0x20
	.byte	0x9d
	.uleb128 0x4
	.byte	0x9e
	.uleb128 0x3
	.byte	0x4
	.set L$set$670,LCFI347-LCFI346
	.long L$set$670
	.byte	0xde
	.byte	0xdd
	.byte	0xe
	.uleb128 0
	.align	3
LEFDE321:
LSFDE323:
	.set L$set$671,LEFDE323-LASFDE323
	.long L$set$671
LASFDE323:
	.long	LASFDE323-EH_frame1
	.quad	LFB5027-.
	.set L$set$672,LFE5027-LFB5027
	.quad L$set$672
	.uleb128 0x8
	.quad	0
	.byte	0x4
	.set L$set$673,LCFI348-LFB5027
	.long L$set$673
	.byte	0xe
	.uleb128 0x20
	.byte	0x9d
	.uleb128 0x4
	.byte	0x9e
	.uleb128 0x3
	.byte	0x4
	.set L$set$674,LCFI349-LCFI348
	.long L$set$674
	.byte	0xde
	.byte	0xdd
	.byte	0xe
	.uleb128 0
	.align	3
LEFDE323:
LSFDE325:
	.set L$set$675,LEFDE325-LASFDE325
	.long L$set$675
LASFDE325:
	.long	LASFDE325-EH_frame1
	.quad	LFB5030-.
	.set L$set$676,LFE5030-LFB5030
	.quad L$set$676
	.uleb128 0x8
	.quad	0
	.byte	0x4
	.set L$set$677,LCFI350-LFB5030
	.long L$set$677
	.byte	0xe
	.uleb128 0x10
	.byte	0x4
	.set L$set$678,LCFI351-LCFI350
	.long L$set$678
	.byte	0xe
	.uleb128 0
	.align	3
LEFDE325:
LSFDE327:
	.set L$set$679,LEFDE327-LASFDE327
	.long L$set$679
LASFDE327:
	.long	LASFDE327-EH_frame1
	.quad	LFB5031-.
	.set L$set$680,LFE5031-LFB5031
	.quad L$set$680
	.uleb128 0x8
	.quad	0
	.byte	0x4
	.set L$set$681,LCFI352-LFB5031
	.long L$set$681
	.byte	0xe
	.uleb128 0x10
	.byte	0x4
	.set L$set$682,LCFI353-LCFI352
	.long L$set$682
	.byte	0xe
	.uleb128 0
	.align	3
LEFDE327:
LSFDE329:
	.set L$set$683,LEFDE329-LASFDE329
	.long L$set$683
LASFDE329:
	.long	LASFDE329-EH_frame1
	.quad	LFB5032-.
	.set L$set$684,LFE5032-LFB5032
	.quad L$set$684
	.uleb128 0x8
	.quad	0
	.byte	0x4
	.set L$set$685,LCFI354-LFB5032
	.long L$set$685
	.byte	0xe
	.uleb128 0x30
	.byte	0x9d
	.uleb128 0x6
	.byte	0x9e
	.uleb128 0x5
	.byte	0x4
	.set L$set$686,LCFI355-LCFI354
	.long L$set$686
	.byte	0xde
	.byte	0xdd
	.byte	0xe
	.uleb128 0
	.align	3
LEFDE329:
LSFDE331:
	.set L$set$687,LEFDE331-LASFDE331
	.long L$set$687
LASFDE331:
	.long	LASFDE331-EH_frame1
	.quad	LFB5033-.
	.set L$set$688,LFE5033-LFB5033
	.quad L$set$688
	.uleb128 0x8
	.quad	0
	.byte	0x4
	.set L$set$689,LCFI356-LFB5033
	.long L$set$689
	.byte	0xe
	.uleb128 0x10
	.byte	0x4
	.set L$set$690,LCFI357-LCFI356
	.long L$set$690
	.byte	0xe
	.uleb128 0
	.align	3
LEFDE331:
LSFDE333:
	.set L$set$691,LEFDE333-LASFDE333
	.long L$set$691
LASFDE333:
	.long	LASFDE333-EH_frame1
	.quad	LFB5036-.
	.set L$set$692,LFE5036-LFB5036
	.quad L$set$692
	.uleb128 0x8
	.quad	0
	.byte	0x4
	.set L$set$693,LCFI358-LFB5036
	.long L$set$693
	.byte	0xe
	.uleb128 0x20
	.byte	0x9d
	.uleb128 0x4
	.byte	0x9e
	.uleb128 0x3
	.byte	0x4
	.set L$set$694,LCFI359-LCFI358
	.long L$set$694
	.byte	0xde
	.byte	0xdd
	.byte	0xe
	.uleb128 0
	.align	3
LEFDE333:
LSFDE335:
	.set L$set$695,LEFDE335-LASFDE335
	.long L$set$695
LASFDE335:
	.long	LASFDE335-EH_frame1
	.quad	LFB5037-.
	.set L$set$696,LFE5037-LFB5037
	.quad L$set$696
	.uleb128 0x8
	.quad	0
	.byte	0x4
	.set L$set$697,LCFI360-LFB5037
	.long L$set$697
	.byte	0xe
	.uleb128 0x40
	.byte	0x9d
	.uleb128 0x8
	.byte	0x9e
	.uleb128 0x7
	.byte	0x4
	.set L$set$698,LCFI361-LCFI360
	.long L$set$698
	.byte	0xde
	.byte	0xdd
	.byte	0xe
	.uleb128 0
	.align	3
LEFDE335:
LSFDE337:
	.set L$set$699,LEFDE337-LASFDE337
	.long L$set$699
LASFDE337:
	.long	LASFDE337-EH_frame1
	.quad	LFB5038-.
	.set L$set$700,LFE5038-LFB5038
	.quad L$set$700
	.uleb128 0x8
	.quad	0
	.byte	0x4
	.set L$set$701,LCFI362-LFB5038
	.long L$set$701
	.byte	0xe
	.uleb128 0x10
	.byte	0x4
	.set L$set$702,LCFI363-LCFI362
	.long L$set$702
	.byte	0xe
	.uleb128 0
	.align	3
LEFDE337:
LSFDE339:
	.set L$set$703,LEFDE339-LASFDE339
	.long L$set$703
LASFDE339:
	.long	LASFDE339-EH_frame1
	.quad	LFB5039-.
	.set L$set$704,LFE5039-LFB5039
	.quad L$set$704
	.uleb128 0x8
	.quad	0
	.byte	0x4
	.set L$set$705,LCFI364-LFB5039
	.long L$set$705
	.byte	0xe
	.uleb128 0x10
	.byte	0x4
	.set L$set$706,LCFI365-LCFI364
	.long L$set$706
	.byte	0xe
	.uleb128 0
	.align	3
LEFDE339:
LSFDE341:
	.set L$set$707,LEFDE341-LASFDE341
	.long L$set$707
LASFDE341:
	.long	LASFDE341-EH_frame1
	.quad	LFB5040-.
	.set L$set$708,LFE5040-LFB5040
	.quad L$set$708
	.uleb128 0x8
	.quad	0
	.byte	0x4
	.set L$set$709,LCFI366-LFB5040
	.long L$set$709
	.byte	0xe
	.uleb128 0x50
	.byte	0x9d
	.uleb128 0xa
	.byte	0x9e
	.uleb128 0x9
	.byte	0x4
	.set L$set$710,LCFI367-LCFI366
	.long L$set$710
	.byte	0x93
	.uleb128 0x8
	.byte	0x4
	.set L$set$711,LCFI368-LCFI367
	.long L$set$711
	.byte	0xde
	.byte	0xdd
	.byte	0xd3
	.byte	0xe
	.uleb128 0
	.align	3
LEFDE341:
LSFDE343:
	.set L$set$712,LEFDE343-LASFDE343
	.long L$set$712
LASFDE343:
	.long	LASFDE343-EH_frame1
	.quad	LFB5041-.
	.set L$set$713,LFE5041-LFB5041
	.quad L$set$713
	.uleb128 0x8
	.quad	0
	.byte	0x4
	.set L$set$714,LCFI369-LFB5041
	.long L$set$714
	.byte	0xe
	.uleb128 0x10
	.byte	0x4
	.set L$set$715,LCFI370-LCFI369
	.long L$set$715
	.byte	0xe
	.uleb128 0
	.align	3
LEFDE343:
LSFDE345:
	.set L$set$716,LEFDE345-LASFDE345
	.long L$set$716
LASFDE345:
	.long	LASFDE345-EH_frame1
	.quad	LFB5042-.
	.set L$set$717,LFE5042-LFB5042
	.quad L$set$717
	.uleb128 0x8
	.quad	LLSDA5042-.
	.byte	0x4
	.set L$set$718,LCFI371-LFB5042
	.long L$set$718
	.byte	0xe
	.uleb128 0xc0
	.byte	0x9d
	.uleb128 0x18
	.byte	0x9e
	.uleb128 0x17
	.byte	0x4
	.set L$set$719,LCFI372-LCFI371
	.long L$set$719
	.byte	0x93
	.uleb128 0x16
	.byte	0x94
	.uleb128 0x15
	.byte	0x95
	.uleb128 0x14
	.byte	0x4
	.set L$set$720,LCFI373-LCFI372
	.long L$set$720
	.byte	0xde
	.byte	0xdd
	.byte	0xd5
	.byte	0xd3
	.byte	0xd4
	.byte	0xe
	.uleb128 0
	.align	3
LEFDE345:
LSFDE347:
	.set L$set$721,LEFDE347-LASFDE347
	.long L$set$721
LASFDE347:
	.long	LASFDE347-EH_frame1
	.quad	LFB5051-.
	.set L$set$722,LFE5051-LFB5051
	.quad L$set$722
	.uleb128 0x8
	.quad	0
	.byte	0x4
	.set L$set$723,LCFI374-LFB5051
	.long L$set$723
	.byte	0xe
	.uleb128 0x10
	.byte	0x4
	.set L$set$724,LCFI375-LCFI374
	.long L$set$724
	.byte	0xe
	.uleb128 0
	.align	3
LEFDE347:
LSFDE349:
	.set L$set$725,LEFDE349-LASFDE349
	.long L$set$725
LASFDE349:
	.long	LASFDE349-EH_frame1
	.quad	LFB5052-.
	.set L$set$726,LFE5052-LFB5052
	.quad L$set$726
	.uleb128 0x8
	.quad	0
	.byte	0x4
	.set L$set$727,LCFI376-LFB5052
	.long L$set$727
	.byte	0xe
	.uleb128 0x10
	.byte	0x4
	.set L$set$728,LCFI377-LCFI376
	.long L$set$728
	.byte	0xe
	.uleb128 0
	.align	3
LEFDE349:
LSFDE351:
	.set L$set$729,LEFDE351-LASFDE351
	.long L$set$729
LASFDE351:
	.long	LASFDE351-EH_frame1
	.quad	LFB5053-.
	.set L$set$730,LFE5053-LFB5053
	.quad L$set$730
	.uleb128 0x8
	.quad	0
	.byte	0x4
	.set L$set$731,LCFI378-LFB5053
	.long L$set$731
	.byte	0xe
	.uleb128 0x20
	.byte	0x4
	.set L$set$732,LCFI379-LCFI378
	.long L$set$732
	.byte	0xe
	.uleb128 0
	.align	3
LEFDE351:
LSFDE353:
	.set L$set$733,LEFDE353-LASFDE353
	.long L$set$733
LASFDE353:
	.long	LASFDE353-EH_frame1
	.quad	LFB5106-.
	.set L$set$734,LFE5106-LFB5106
	.quad L$set$734
	.uleb128 0x8
	.quad	0
	.byte	0x4
	.set L$set$735,LCFI380-LFB5106
	.long L$set$735
	.byte	0xe
	.uleb128 0x20
	.byte	0x9d
	.uleb128 0x4
	.byte	0x9e
	.uleb128 0x3
	.byte	0x4
	.set L$set$736,LCFI381-LCFI380
	.long L$set$736
	.byte	0xde
	.byte	0xdd
	.byte	0xe
	.uleb128 0
	.align	3
LEFDE353:
LSFDE355:
	.set L$set$737,LEFDE355-LASFDE355
	.long L$set$737
LASFDE355:
	.long	LASFDE355-EH_frame1
	.quad	LFB5108-.
	.set L$set$738,LFE5108-LFB5108
	.quad L$set$738
	.uleb128 0x8
	.quad	0
	.byte	0x4
	.set L$set$739,LCFI382-LFB5108
	.long L$set$739
	.byte	0xe
	.uleb128 0x10
	.byte	0x4
	.set L$set$740,LCFI383-LCFI382
	.long L$set$740
	.byte	0xe
	.uleb128 0
	.align	3
LEFDE355:
LSFDE357:
	.set L$set$741,LEFDE357-LASFDE357
	.long L$set$741
LASFDE357:
	.long	LASFDE357-EH_frame1
	.quad	LFB5111-.
	.set L$set$742,LFE5111-LFB5111
	.quad L$set$742
	.uleb128 0x8
	.quad	0
	.byte	0x4
	.set L$set$743,LCFI384-LFB5111
	.long L$set$743
	.byte	0xe
	.uleb128 0x10
	.byte	0x4
	.set L$set$744,LCFI385-LCFI384
	.long L$set$744
	.byte	0xe
	.uleb128 0
	.align	3
LEFDE357:
LSFDE359:
	.set L$set$745,LEFDE359-LASFDE359
	.long L$set$745
LASFDE359:
	.long	LASFDE359-EH_frame1
	.quad	LFB5113-.
	.set L$set$746,LFE5113-LFB5113
	.quad L$set$746
	.uleb128 0x8
	.quad	0
	.byte	0x4
	.set L$set$747,LCFI386-LFB5113
	.long L$set$747
	.byte	0xe
	.uleb128 0x20
	.byte	0x9d
	.uleb128 0x4
	.byte	0x9e
	.uleb128 0x3
	.byte	0x4
	.set L$set$748,LCFI387-LCFI386
	.long L$set$748
	.byte	0xde
	.byte	0xdd
	.byte	0xe
	.uleb128 0
	.align	3
LEFDE359:
LSFDE361:
	.set L$set$749,LEFDE361-LASFDE361
	.long L$set$749
LASFDE361:
	.long	LASFDE361-EH_frame1
	.quad	LFB5114-.
	.set L$set$750,LFE5114-LFB5114
	.quad L$set$750
	.uleb128 0x8
	.quad	0
	.byte	0x4
	.set L$set$751,LCFI388-LFB5114
	.long L$set$751
	.byte	0xe
	.uleb128 0x30
	.byte	0x9d
	.uleb128 0x6
	.byte	0x9e
	.uleb128 0x5
	.byte	0x4
	.set L$set$752,LCFI389-LCFI388
	.long L$set$752
	.byte	0xde
	.byte	0xdd
	.byte	0xe
	.uleb128 0
	.align	3
LEFDE361:
LSFDE363:
	.set L$set$753,LEFDE363-LASFDE363
	.long L$set$753
LASFDE363:
	.long	LASFDE363-EH_frame1
	.quad	LFB5115-.
	.set L$set$754,LFE5115-LFB5115
	.quad L$set$754
	.uleb128 0x8
	.quad	0
	.byte	0x4
	.set L$set$755,LCFI390-LFB5115
	.long L$set$755
	.byte	0xe
	.uleb128 0x40
	.byte	0x9d
	.uleb128 0x8
	.byte	0x9e
	.uleb128 0x7
	.byte	0x4
	.set L$set$756,LCFI391-LCFI390
	.long L$set$756
	.byte	0xde
	.byte	0xdd
	.byte	0xe
	.uleb128 0
	.align	3
LEFDE363:
LSFDE365:
	.set L$set$757,LEFDE365-LASFDE365
	.long L$set$757
LASFDE365:
	.long	LASFDE365-EH_frame1
	.quad	LFB5116-.
	.set L$set$758,LFE5116-LFB5116
	.quad L$set$758
	.uleb128 0x8
	.quad	0
	.byte	0x4
	.set L$set$759,LCFI392-LFB5116
	.long L$set$759
	.byte	0xe
	.uleb128 0x20
	.byte	0x9d
	.uleb128 0x4
	.byte	0x9e
	.uleb128 0x3
	.byte	0x4
	.set L$set$760,LCFI393-LCFI392
	.long L$set$760
	.byte	0xde
	.byte	0xdd
	.byte	0xe
	.uleb128 0
	.align	3
LEFDE365:
LSFDE367:
	.set L$set$761,LEFDE367-LASFDE367
	.long L$set$761
LASFDE367:
	.long	LASFDE367-EH_frame1
	.quad	LFB5117-.
	.set L$set$762,LFE5117-LFB5117
	.quad L$set$762
	.uleb128 0x8
	.quad	0
	.byte	0x4
	.set L$set$763,LCFI394-LFB5117
	.long L$set$763
	.byte	0xe
	.uleb128 0x10
	.byte	0x4
	.set L$set$764,LCFI395-LCFI394
	.long L$set$764
	.byte	0xe
	.uleb128 0
	.align	3
LEFDE367:
LSFDE369:
	.set L$set$765,LEFDE369-LASFDE369
	.long L$set$765
LASFDE369:
	.long	LASFDE369-EH_frame1
	.quad	LFB5118-.
	.set L$set$766,LFE5118-LFB5118
	.quad L$set$766
	.uleb128 0x8
	.quad	0
	.byte	0x4
	.set L$set$767,LCFI396-LFB5118
	.long L$set$767
	.byte	0xe
	.uleb128 0x30
	.byte	0x9d
	.uleb128 0x6
	.byte	0x9e
	.uleb128 0x5
	.byte	0x4
	.set L$set$768,LCFI397-LCFI396
	.long L$set$768
	.byte	0x93
	.uleb128 0x4
	.byte	0x4
	.set L$set$769,LCFI398-LCFI397
	.long L$set$769
	.byte	0xde
	.byte	0xdd
	.byte	0xd3
	.byte	0xe
	.uleb128 0
	.align	3
LEFDE369:
LSFDE371:
	.set L$set$770,LEFDE371-LASFDE371
	.long L$set$770
LASFDE371:
	.long	LASFDE371-EH_frame1
	.quad	LFB5119-.
	.set L$set$771,LFE5119-LFB5119
	.quad L$set$771
	.uleb128 0x8
	.quad	0
	.byte	0x4
	.set L$set$772,LCFI399-LFB5119
	.long L$set$772
	.byte	0xe
	.uleb128 0x10
	.byte	0x4
	.set L$set$773,LCFI400-LCFI399
	.long L$set$773
	.byte	0xe
	.uleb128 0
	.align	3
LEFDE371:
LSFDE373:
	.set L$set$774,LEFDE373-LASFDE373
	.long L$set$774
LASFDE373:
	.long	LASFDE373-EH_frame1
	.quad	LFB5120-.
	.set L$set$775,LFE5120-LFB5120
	.quad L$set$775
	.uleb128 0x8
	.quad	LLSDA5120-.
	.byte	0x4
	.set L$set$776,LCFI401-LFB5120
	.long L$set$776
	.byte	0xe
	.uleb128 0x50
	.byte	0x9d
	.uleb128 0xa
	.byte	0x9e
	.uleb128 0x9
	.byte	0x4
	.set L$set$777,LCFI402-LCFI401
	.long L$set$777
	.byte	0x93
	.uleb128 0x8
	.byte	0x4
	.set L$set$778,LCFI403-LCFI402
	.long L$set$778
	.byte	0xde
	.byte	0xdd
	.byte	0xd3
	.byte	0xe
	.uleb128 0
	.align	3
LEFDE373:
LSFDE375:
	.set L$set$779,LEFDE375-LASFDE375
	.long L$set$779
LASFDE375:
	.long	LASFDE375-EH_frame1
	.quad	LFB5121-.
	.set L$set$780,LFE5121-LFB5121
	.quad L$set$780
	.uleb128 0x8
	.quad	0
	.byte	0x4
	.set L$set$781,LCFI404-LFB5121
	.long L$set$781
	.byte	0xe
	.uleb128 0x20
	.byte	0x9d
	.uleb128 0x4
	.byte	0x9e
	.uleb128 0x3
	.byte	0x4
	.set L$set$782,LCFI405-LCFI404
	.long L$set$782
	.byte	0xde
	.byte	0xdd
	.byte	0xe
	.uleb128 0
	.align	3
LEFDE375:
LSFDE377:
	.set L$set$783,LEFDE377-LASFDE377
	.long L$set$783
LASFDE377:
	.long	LASFDE377-EH_frame1
	.quad	LFB5122-.
	.set L$set$784,LFE5122-LFB5122
	.quad L$set$784
	.uleb128 0x8
	.quad	0
	.byte	0x4
	.set L$set$785,LCFI406-LFB5122
	.long L$set$785
	.byte	0xe
	.uleb128 0x10
	.byte	0x4
	.set L$set$786,LCFI407-LCFI406
	.long L$set$786
	.byte	0xe
	.uleb128 0
	.align	3
LEFDE377:
LSFDE379:
	.set L$set$787,LEFDE379-LASFDE379
	.long L$set$787
LASFDE379:
	.long	LASFDE379-EH_frame1
	.quad	LFB5123-.
	.set L$set$788,LFE5123-LFB5123
	.quad L$set$788
	.uleb128 0x8
	.quad	0
	.byte	0x4
	.set L$set$789,LCFI408-LFB5123
	.long L$set$789
	.byte	0xe
	.uleb128 0x30
	.byte	0x9d
	.uleb128 0x6
	.byte	0x9e
	.uleb128 0x5
	.byte	0x4
	.set L$set$790,LCFI409-LCFI408
	.long L$set$790
	.byte	0xde
	.byte	0xdd
	.byte	0xe
	.uleb128 0
	.align	3
LEFDE379:
LSFDE381:
	.set L$set$791,LEFDE381-LASFDE381
	.long L$set$791
LASFDE381:
	.long	LASFDE381-EH_frame1
	.quad	LFB5124-.
	.set L$set$792,LFE5124-LFB5124
	.quad L$set$792
	.uleb128 0x8
	.quad	0
	.byte	0x4
	.set L$set$793,LCFI410-LFB5124
	.long L$set$793
	.byte	0xe
	.uleb128 0x20
	.byte	0x9d
	.uleb128 0x4
	.byte	0x9e
	.uleb128 0x3
	.byte	0x4
	.set L$set$794,LCFI411-LCFI410
	.long L$set$794
	.byte	0xde
	.byte	0xdd
	.byte	0xe
	.uleb128 0
	.align	3
LEFDE381:
LSFDE383:
	.set L$set$795,LEFDE383-LASFDE383
	.long L$set$795
LASFDE383:
	.long	LASFDE383-EH_frame1
	.quad	LFB5126-.
	.set L$set$796,LFE5126-LFB5126
	.quad L$set$796
	.uleb128 0x8
	.quad	0
	.byte	0x4
	.set L$set$797,LCFI412-LFB5126
	.long L$set$797
	.byte	0xe
	.uleb128 0x10
	.byte	0x4
	.set L$set$798,LCFI413-LCFI412
	.long L$set$798
	.byte	0xe
	.uleb128 0
	.align	3
LEFDE383:
LSFDE385:
	.set L$set$799,LEFDE385-LASFDE385
	.long L$set$799
LASFDE385:
	.long	LASFDE385-EH_frame1
	.quad	LFB5129-.
	.set L$set$800,LFE5129-LFB5129
	.quad L$set$800
	.uleb128 0x8
	.quad	0
	.byte	0x4
	.set L$set$801,LCFI414-LFB5129
	.long L$set$801
	.byte	0xe
	.uleb128 0x10
	.byte	0x4
	.set L$set$802,LCFI415-LCFI414
	.long L$set$802
	.byte	0xe
	.uleb128 0
	.align	3
LEFDE385:
LSFDE387:
	.set L$set$803,LEFDE387-LASFDE387
	.long L$set$803
LASFDE387:
	.long	LASFDE387-EH_frame1
	.quad	LFB5131-.
	.set L$set$804,LFE5131-LFB5131
	.quad L$set$804
	.uleb128 0x8
	.quad	0
	.byte	0x4
	.set L$set$805,LCFI416-LFB5131
	.long L$set$805
	.byte	0xe
	.uleb128 0x20
	.byte	0x9d
	.uleb128 0x4
	.byte	0x9e
	.uleb128 0x3
	.byte	0x4
	.set L$set$806,LCFI417-LCFI416
	.long L$set$806
	.byte	0xde
	.byte	0xdd
	.byte	0xe
	.uleb128 0
	.align	3
LEFDE387:
LSFDE389:
	.set L$set$807,LEFDE389-LASFDE389
	.long L$set$807
LASFDE389:
	.long	LASFDE389-EH_frame1
	.quad	LFB5132-.
	.set L$set$808,LFE5132-LFB5132
	.quad L$set$808
	.uleb128 0x8
	.quad	0
	.byte	0x4
	.set L$set$809,LCFI418-LFB5132
	.long L$set$809
	.byte	0xe
	.uleb128 0x30
	.byte	0x9d
	.uleb128 0x6
	.byte	0x9e
	.uleb128 0x5
	.byte	0x4
	.set L$set$810,LCFI419-LCFI418
	.long L$set$810
	.byte	0xde
	.byte	0xdd
	.byte	0xe
	.uleb128 0
	.align	3
LEFDE389:
LSFDE391:
	.set L$set$811,LEFDE391-LASFDE391
	.long L$set$811
LASFDE391:
	.long	LASFDE391-EH_frame1
	.quad	LFB5133-.
	.set L$set$812,LFE5133-LFB5133
	.quad L$set$812
	.uleb128 0x8
	.quad	0
	.byte	0x4
	.set L$set$813,LCFI420-LFB5133
	.long L$set$813
	.byte	0xe
	.uleb128 0x40
	.byte	0x9d
	.uleb128 0x8
	.byte	0x9e
	.uleb128 0x7
	.byte	0x4
	.set L$set$814,LCFI421-LCFI420
	.long L$set$814
	.byte	0xde
	.byte	0xdd
	.byte	0xe
	.uleb128 0
	.align	3
LEFDE391:
LSFDE393:
	.set L$set$815,LEFDE393-LASFDE393
	.long L$set$815
LASFDE393:
	.long	LASFDE393-EH_frame1
	.quad	LFB5134-.
	.set L$set$816,LFE5134-LFB5134
	.quad L$set$816
	.uleb128 0x8
	.quad	0
	.byte	0x4
	.set L$set$817,LCFI422-LFB5134
	.long L$set$817
	.byte	0xe
	.uleb128 0x20
	.byte	0x9d
	.uleb128 0x4
	.byte	0x9e
	.uleb128 0x3
	.byte	0x4
	.set L$set$818,LCFI423-LCFI422
	.long L$set$818
	.byte	0xde
	.byte	0xdd
	.byte	0xe
	.uleb128 0
	.align	3
LEFDE393:
LSFDE395:
	.set L$set$819,LEFDE395-LASFDE395
	.long L$set$819
LASFDE395:
	.long	LASFDE395-EH_frame1
	.quad	LFB5136-.
	.set L$set$820,LFE5136-LFB5136
	.quad L$set$820
	.uleb128 0x8
	.quad	0
	.byte	0x4
	.set L$set$821,LCFI424-LFB5136
	.long L$set$821
	.byte	0xe
	.uleb128 0x20
	.byte	0x9d
	.uleb128 0x4
	.byte	0x9e
	.uleb128 0x3
	.byte	0x4
	.set L$set$822,LCFI425-LCFI424
	.long L$set$822
	.byte	0xde
	.byte	0xdd
	.byte	0xe
	.uleb128 0
	.align	3
LEFDE395:
LSFDE397:
	.set L$set$823,LEFDE397-LASFDE397
	.long L$set$823
LASFDE397:
	.long	LASFDE397-EH_frame1
	.quad	LFB5137-.
	.set L$set$824,LFE5137-LFB5137
	.quad L$set$824
	.uleb128 0x8
	.quad	0
	.byte	0x4
	.set L$set$825,LCFI426-LFB5137
	.long L$set$825
	.byte	0xe
	.uleb128 0x40
	.byte	0x9d
	.uleb128 0x8
	.byte	0x9e
	.uleb128 0x7
	.byte	0x4
	.set L$set$826,LCFI427-LCFI426
	.long L$set$826
	.byte	0xde
	.byte	0xdd
	.byte	0xe
	.uleb128 0
	.align	3
LEFDE397:
LSFDE399:
	.set L$set$827,LEFDE399-LASFDE399
	.long L$set$827
LASFDE399:
	.long	LASFDE399-EH_frame1
	.quad	LFB5138-.
	.set L$set$828,LFE5138-LFB5138
	.quad L$set$828
	.uleb128 0x8
	.quad	0
	.byte	0x4
	.set L$set$829,LCFI428-LFB5138
	.long L$set$829
	.byte	0xe
	.uleb128 0x40
	.byte	0x9d
	.uleb128 0x8
	.byte	0x9e
	.uleb128 0x7
	.byte	0x4
	.set L$set$830,LCFI429-LCFI428
	.long L$set$830
	.byte	0xde
	.byte	0xdd
	.byte	0xe
	.uleb128 0
	.align	3
LEFDE399:
LSFDE401:
	.set L$set$831,LEFDE401-LASFDE401
	.long L$set$831
LASFDE401:
	.long	LASFDE401-EH_frame1
	.quad	LFB5140-.
	.set L$set$832,LFE5140-LFB5140
	.quad L$set$832
	.uleb128 0x8
	.quad	0
	.byte	0x4
	.set L$set$833,LCFI430-LFB5140
	.long L$set$833
	.byte	0xe
	.uleb128 0x10
	.byte	0x4
	.set L$set$834,LCFI431-LCFI430
	.long L$set$834
	.byte	0xe
	.uleb128 0
	.align	3
LEFDE401:
LSFDE403:
	.set L$set$835,LEFDE403-LASFDE403
	.long L$set$835
LASFDE403:
	.long	LASFDE403-EH_frame1
	.quad	LFB5142-.
	.set L$set$836,LFE5142-LFB5142
	.quad L$set$836
	.uleb128 0x8
	.quad	0
	.byte	0x4
	.set L$set$837,LCFI432-LFB5142
	.long L$set$837
	.byte	0xe
	.uleb128 0x10
	.byte	0x4
	.set L$set$838,LCFI433-LCFI432
	.long L$set$838
	.byte	0xe
	.uleb128 0
	.align	3
LEFDE403:
LSFDE405:
	.set L$set$839,LEFDE405-LASFDE405
	.long L$set$839
LASFDE405:
	.long	LASFDE405-EH_frame1
	.quad	LFB5143-.
	.set L$set$840,LFE5143-LFB5143
	.quad L$set$840
	.uleb128 0x8
	.quad	0
	.byte	0x4
	.set L$set$841,LCFI434-LFB5143
	.long L$set$841
	.byte	0xe
	.uleb128 0x20
	.byte	0x9d
	.uleb128 0x4
	.byte	0x9e
	.uleb128 0x3
	.byte	0x4
	.set L$set$842,LCFI435-LCFI434
	.long L$set$842
	.byte	0xde
	.byte	0xdd
	.byte	0xe
	.uleb128 0
	.align	3
LEFDE405:
LSFDE407:
	.set L$set$843,LEFDE407-LASFDE407
	.long L$set$843
LASFDE407:
	.long	LASFDE407-EH_frame1
	.quad	LFB5144-.
	.set L$set$844,LFE5144-LFB5144
	.quad L$set$844
	.uleb128 0x8
	.quad	0
	.byte	0x4
	.set L$set$845,LCFI436-LFB5144
	.long L$set$845
	.byte	0xe
	.uleb128 0x10
	.byte	0x4
	.set L$set$846,LCFI437-LCFI436
	.long L$set$846
	.byte	0xe
	.uleb128 0
	.align	3
LEFDE407:
LSFDE409:
	.set L$set$847,LEFDE409-LASFDE409
	.long L$set$847
LASFDE409:
	.long	LASFDE409-EH_frame1
	.quad	LFB5145-.
	.set L$set$848,LFE5145-LFB5145
	.quad L$set$848
	.uleb128 0x8
	.quad	0
	.byte	0x4
	.set L$set$849,LCFI438-LFB5145
	.long L$set$849
	.byte	0xe
	.uleb128 0x20
	.byte	0x9d
	.uleb128 0x4
	.byte	0x9e
	.uleb128 0x3
	.byte	0x4
	.set L$set$850,LCFI439-LCFI438
	.long L$set$850
	.byte	0xde
	.byte	0xdd
	.byte	0xe
	.uleb128 0
	.align	3
LEFDE409:
LSFDE411:
	.set L$set$851,LEFDE411-LASFDE411
	.long L$set$851
LASFDE411:
	.long	LASFDE411-EH_frame1
	.quad	LFB5146-.
	.set L$set$852,LFE5146-LFB5146
	.quad L$set$852
	.uleb128 0x8
	.quad	0
	.byte	0x4
	.set L$set$853,LCFI440-LFB5146
	.long L$set$853
	.byte	0xe
	.uleb128 0x30
	.byte	0x4
	.set L$set$854,LCFI441-LCFI440
	.long L$set$854
	.byte	0xe
	.uleb128 0
	.align	3
LEFDE411:
LSFDE413:
	.set L$set$855,LEFDE413-LASFDE413
	.long L$set$855
LASFDE413:
	.long	LASFDE413-EH_frame1
	.quad	LFB5147-.
	.set L$set$856,LFE5147-LFB5147
	.quad L$set$856
	.uleb128 0x8
	.quad	0
	.byte	0x4
	.set L$set$857,LCFI442-LFB5147
	.long L$set$857
	.byte	0xe
	.uleb128 0x50
	.byte	0x9d
	.uleb128 0xa
	.byte	0x9e
	.uleb128 0x9
	.byte	0x4
	.set L$set$858,LCFI443-LCFI442
	.long L$set$858
	.byte	0x93
	.uleb128 0x8
	.byte	0x4
	.set L$set$859,LCFI444-LCFI443
	.long L$set$859
	.byte	0xde
	.byte	0xdd
	.byte	0xd3
	.byte	0xe
	.uleb128 0
	.align	3
LEFDE413:
LSFDE415:
	.set L$set$860,LEFDE415-LASFDE415
	.long L$set$860
LASFDE415:
	.long	LASFDE415-EH_frame1
	.quad	LFB5148-.
	.set L$set$861,LFE5148-LFB5148
	.quad L$set$861
	.uleb128 0x8
	.quad	0
	.byte	0x4
	.set L$set$862,LCFI445-LFB5148
	.long L$set$862
	.byte	0xe
	.uleb128 0x20
	.byte	0x9d
	.uleb128 0x4
	.byte	0x9e
	.uleb128 0x3
	.byte	0x4
	.set L$set$863,LCFI446-LCFI445
	.long L$set$863
	.byte	0xde
	.byte	0xdd
	.byte	0xe
	.uleb128 0
	.align	3
LEFDE415:
LSFDE417:
	.set L$set$864,LEFDE417-LASFDE417
	.long L$set$864
LASFDE417:
	.long	LASFDE417-EH_frame1
	.quad	LFB5151-.
	.set L$set$865,LFE5151-LFB5151
	.quad L$set$865
	.uleb128 0x8
	.quad	0
	.byte	0x4
	.set L$set$866,LCFI447-LFB5151
	.long L$set$866
	.byte	0xe
	.uleb128 0x30
	.byte	0x9d
	.uleb128 0x6
	.byte	0x9e
	.uleb128 0x5
	.byte	0x4
	.set L$set$867,LCFI448-LCFI447
	.long L$set$867
	.byte	0xde
	.byte	0xdd
	.byte	0xe
	.uleb128 0
	.align	3
LEFDE417:
LSFDE419:
	.set L$set$868,LEFDE419-LASFDE419
	.long L$set$868
LASFDE419:
	.long	LASFDE419-EH_frame1
	.quad	LFB5154-.
	.set L$set$869,LFE5154-LFB5154
	.quad L$set$869
	.uleb128 0x8
	.quad	0
	.byte	0x4
	.set L$set$870,LCFI449-LFB5154
	.long L$set$870
	.byte	0xe
	.uleb128 0x20
	.byte	0x9d
	.uleb128 0x4
	.byte	0x9e
	.uleb128 0x3
	.byte	0x4
	.set L$set$871,LCFI450-LCFI449
	.long L$set$871
	.byte	0xde
	.byte	0xdd
	.byte	0xe
	.uleb128 0
	.align	3
LEFDE419:
LSFDE421:
	.set L$set$872,LEFDE421-LASFDE421
	.long L$set$872
LASFDE421:
	.long	LASFDE421-EH_frame1
	.quad	LFB5155-.
	.set L$set$873,LFE5155-LFB5155
	.quad L$set$873
	.uleb128 0x8
	.quad	0
	.byte	0x4
	.set L$set$874,LCFI451-LFB5155
	.long L$set$874
	.byte	0xe
	.uleb128 0x30
	.byte	0x9d
	.uleb128 0x6
	.byte	0x9e
	.uleb128 0x5
	.byte	0x4
	.set L$set$875,LCFI452-LCFI451
	.long L$set$875
	.byte	0xde
	.byte	0xdd
	.byte	0xe
	.uleb128 0
	.align	3
LEFDE421:
LSFDE423:
	.set L$set$876,LEFDE423-LASFDE423
	.long L$set$876
LASFDE423:
	.long	LASFDE423-EH_frame1
	.quad	LFB5156-.
	.set L$set$877,LFE5156-LFB5156
	.quad L$set$877
	.uleb128 0x8
	.quad	0
	.byte	0x4
	.set L$set$878,LCFI453-LFB5156
	.long L$set$878
	.byte	0xe
	.uleb128 0x10
	.byte	0x4
	.set L$set$879,LCFI454-LCFI453
	.long L$set$879
	.byte	0xe
	.uleb128 0
	.align	3
LEFDE423:
LSFDE425:
	.set L$set$880,LEFDE425-LASFDE425
	.long L$set$880
LASFDE425:
	.long	LASFDE425-EH_frame1
	.quad	LFB5159-.
	.set L$set$881,LFE5159-LFB5159
	.quad L$set$881
	.uleb128 0x8
	.quad	0
	.byte	0x4
	.set L$set$882,LCFI455-LFB5159
	.long L$set$882
	.byte	0xe
	.uleb128 0x30
	.byte	0x9d
	.uleb128 0x6
	.byte	0x9e
	.uleb128 0x5
	.byte	0x4
	.set L$set$883,LCFI456-LCFI455
	.long L$set$883
	.byte	0xde
	.byte	0xdd
	.byte	0xe
	.uleb128 0
	.align	3
LEFDE425:
LSFDE427:
	.set L$set$884,LEFDE427-LASFDE427
	.long L$set$884
LASFDE427:
	.long	LASFDE427-EH_frame1
	.quad	LFB5162-.
	.set L$set$885,LFE5162-LFB5162
	.quad L$set$885
	.uleb128 0x8
	.quad	LLSDA5162-.
	.byte	0x4
	.set L$set$886,LCFI457-LFB5162
	.long L$set$886
	.byte	0xe
	.uleb128 0x20
	.byte	0x9d
	.uleb128 0x4
	.byte	0x9e
	.uleb128 0x3
	.byte	0x4
	.set L$set$887,LCFI458-LCFI457
	.long L$set$887
	.byte	0xde
	.byte	0xdd
	.byte	0xe
	.uleb128 0
	.align	3
LEFDE427:
LSFDE429:
	.set L$set$888,LEFDE429-LASFDE429
	.long L$set$888
LASFDE429:
	.long	LASFDE429-EH_frame1
	.quad	LFB5163-.
	.set L$set$889,LFE5163-LFB5163
	.quad L$set$889
	.uleb128 0x8
	.quad	0
	.byte	0x4
	.set L$set$890,LCFI459-LFB5163
	.long L$set$890
	.byte	0xe
	.uleb128 0x20
	.byte	0x9d
	.uleb128 0x4
	.byte	0x9e
	.uleb128 0x3
	.byte	0x4
	.set L$set$891,LCFI460-LCFI459
	.long L$set$891
	.byte	0xde
	.byte	0xdd
	.byte	0xe
	.uleb128 0
	.align	3
LEFDE429:
LSFDE431:
	.set L$set$892,LEFDE431-LASFDE431
	.long L$set$892
LASFDE431:
	.long	LASFDE431-EH_frame1
	.quad	LFB5164-.
	.set L$set$893,LFE5164-LFB5164
	.quad L$set$893
	.uleb128 0x8
	.quad	0
	.byte	0x4
	.set L$set$894,LCFI461-LFB5164
	.long L$set$894
	.byte	0xe
	.uleb128 0x20
	.byte	0x9d
	.uleb128 0x4
	.byte	0x9e
	.uleb128 0x3
	.byte	0x4
	.set L$set$895,LCFI462-LCFI461
	.long L$set$895
	.byte	0xde
	.byte	0xdd
	.byte	0xe
	.uleb128 0
	.align	3
LEFDE431:
LSFDE433:
	.set L$set$896,LEFDE433-LASFDE433
	.long L$set$896
LASFDE433:
	.long	LASFDE433-EH_frame1
	.quad	LFB5165-.
	.set L$set$897,LFE5165-LFB5165
	.quad L$set$897
	.uleb128 0x8
	.quad	0
	.byte	0x4
	.set L$set$898,LCFI463-LFB5165
	.long L$set$898
	.byte	0xe
	.uleb128 0x40
	.byte	0x9d
	.uleb128 0x8
	.byte	0x9e
	.uleb128 0x7
	.byte	0x4
	.set L$set$899,LCFI464-LCFI463
	.long L$set$899
	.byte	0x93
	.uleb128 0x6
	.byte	0x4
	.set L$set$900,LCFI465-LCFI464
	.long L$set$900
	.byte	0xde
	.byte	0xdd
	.byte	0xd3
	.byte	0xe
	.uleb128 0
	.align	3
LEFDE433:
LSFDE435:
	.set L$set$901,LEFDE435-LASFDE435
	.long L$set$901
LASFDE435:
	.long	LASFDE435-EH_frame1
	.quad	LFB5170-.
	.set L$set$902,LFE5170-LFB5170
	.quad L$set$902
	.uleb128 0x8
	.quad	0
	.byte	0x4
	.set L$set$903,LCFI466-LFB5170
	.long L$set$903
	.byte	0xe
	.uleb128 0x70
	.byte	0x9d
	.uleb128 0xe
	.byte	0x9e
	.uleb128 0xd
	.byte	0x4
	.set L$set$904,LCFI467-LCFI466
	.long L$set$904
	.byte	0xde
	.byte	0xdd
	.byte	0xe
	.uleb128 0
	.align	3
LEFDE435:
LSFDE437:
	.set L$set$905,LEFDE437-LASFDE437
	.long L$set$905
LASFDE437:
	.long	LASFDE437-EH_frame1
	.quad	LFB5173-.
	.set L$set$906,LFE5173-LFB5173
	.quad L$set$906
	.uleb128 0x8
	.quad	0
	.byte	0x4
	.set L$set$907,LCFI468-LFB5173
	.long L$set$907
	.byte	0xe
	.uleb128 0x30
	.byte	0x9d
	.uleb128 0x6
	.byte	0x9e
	.uleb128 0x5
	.byte	0x4
	.set L$set$908,LCFI469-LCFI468
	.long L$set$908
	.byte	0xde
	.byte	0xdd
	.byte	0xe
	.uleb128 0
	.align	3
LEFDE437:
LSFDE439:
	.set L$set$909,LEFDE439-LASFDE439
	.long L$set$909
LASFDE439:
	.long	LASFDE439-EH_frame1
	.quad	LFB5219-.
	.set L$set$910,LFE5219-LFB5219
	.quad L$set$910
	.uleb128 0x8
	.quad	0
	.byte	0x4
	.set L$set$911,LCFI470-LFB5219
	.long L$set$911
	.byte	0xe
	.uleb128 0x20
	.byte	0x9d
	.uleb128 0x4
	.byte	0x9e
	.uleb128 0x3
	.byte	0x4
	.set L$set$912,LCFI471-LCFI470
	.long L$set$912
	.byte	0xde
	.byte	0xdd
	.byte	0xe
	.uleb128 0
	.align	3
LEFDE439:
LSFDE441:
	.set L$set$913,LEFDE441-LASFDE441
	.long L$set$913
LASFDE441:
	.long	LASFDE441-EH_frame1
	.quad	LFB5220-.
	.set L$set$914,LFE5220-LFB5220
	.quad L$set$914
	.uleb128 0x8
	.quad	0
	.byte	0x4
	.set L$set$915,LCFI472-LFB5220
	.long L$set$915
	.byte	0xe
	.uleb128 0x20
	.byte	0x9d
	.uleb128 0x4
	.byte	0x9e
	.uleb128 0x3
	.byte	0x4
	.set L$set$916,LCFI473-LCFI472
	.long L$set$916
	.byte	0xde
	.byte	0xdd
	.byte	0xe
	.uleb128 0
	.align	3
LEFDE441:
LSFDE443:
	.set L$set$917,LEFDE443-LASFDE443
	.long L$set$917
LASFDE443:
	.long	LASFDE443-EH_frame1
	.quad	LFB5221-.
	.set L$set$918,LFE5221-LFB5221
	.quad L$set$918
	.uleb128 0x8
	.quad	0
	.byte	0x4
	.set L$set$919,LCFI474-LFB5221
	.long L$set$919
	.byte	0xe
	.uleb128 0x30
	.byte	0x9d
	.uleb128 0x6
	.byte	0x9e
	.uleb128 0x5
	.byte	0x4
	.set L$set$920,LCFI475-LCFI474
	.long L$set$920
	.byte	0xde
	.byte	0xdd
	.byte	0xe
	.uleb128 0
	.align	3
LEFDE443:
LSFDE445:
	.set L$set$921,LEFDE445-LASFDE445
	.long L$set$921
LASFDE445:
	.long	LASFDE445-EH_frame1
	.quad	LFB5222-.
	.set L$set$922,LFE5222-LFB5222
	.quad L$set$922
	.uleb128 0x8
	.quad	0
	.byte	0x4
	.set L$set$923,LCFI476-LFB5222
	.long L$set$923
	.byte	0xe
	.uleb128 0x40
	.byte	0x9d
	.uleb128 0x8
	.byte	0x9e
	.uleb128 0x7
	.byte	0x4
	.set L$set$924,LCFI477-LCFI476
	.long L$set$924
	.byte	0xde
	.byte	0xdd
	.byte	0xe
	.uleb128 0
	.align	3
LEFDE445:
LSFDE447:
	.set L$set$925,LEFDE447-LASFDE447
	.long L$set$925
LASFDE447:
	.long	LASFDE447-EH_frame1
	.quad	LFB5223-.
	.set L$set$926,LFE5223-LFB5223
	.quad L$set$926
	.uleb128 0x8
	.quad	0
	.byte	0x4
	.set L$set$927,LCFI478-LFB5223
	.long L$set$927
	.byte	0xe
	.uleb128 0x10
	.byte	0x4
	.set L$set$928,LCFI479-LCFI478
	.long L$set$928
	.byte	0xe
	.uleb128 0
	.align	3
LEFDE447:
LSFDE449:
	.set L$set$929,LEFDE449-LASFDE449
	.long L$set$929
LASFDE449:
	.long	LASFDE449-EH_frame1
	.quad	LFB5224-.
	.set L$set$930,LFE5224-LFB5224
	.quad L$set$930
	.uleb128 0x8
	.quad	0
	.byte	0x4
	.set L$set$931,LCFI480-LFB5224
	.long L$set$931
	.byte	0xe
	.uleb128 0x20
	.byte	0x9d
	.uleb128 0x4
	.byte	0x9e
	.uleb128 0x3
	.byte	0x4
	.set L$set$932,LCFI481-LCFI480
	.long L$set$932
	.byte	0xde
	.byte	0xdd
	.byte	0xe
	.uleb128 0
	.align	3
LEFDE449:
LSFDE451:
	.set L$set$933,LEFDE451-LASFDE451
	.long L$set$933
LASFDE451:
	.long	LASFDE451-EH_frame1
	.quad	LFB5225-.
	.set L$set$934,LFE5225-LFB5225
	.quad L$set$934
	.uleb128 0x8
	.quad	0
	.byte	0x4
	.set L$set$935,LCFI482-LFB5225
	.long L$set$935
	.byte	0xe
	.uleb128 0x20
	.byte	0x9d
	.uleb128 0x4
	.byte	0x9e
	.uleb128 0x3
	.byte	0x4
	.set L$set$936,LCFI483-LCFI482
	.long L$set$936
	.byte	0xde
	.byte	0xdd
	.byte	0xe
	.uleb128 0
	.align	3
LEFDE451:
LSFDE453:
	.set L$set$937,LEFDE453-LASFDE453
	.long L$set$937
LASFDE453:
	.long	LASFDE453-EH_frame1
	.quad	LFB5226-.
	.set L$set$938,LFE5226-LFB5226
	.quad L$set$938
	.uleb128 0x8
	.quad	0
	.byte	0x4
	.set L$set$939,LCFI484-LFB5226
	.long L$set$939
	.byte	0xe
	.uleb128 0x20
	.byte	0x9d
	.uleb128 0x4
	.byte	0x9e
	.uleb128 0x3
	.byte	0x4
	.set L$set$940,LCFI485-LCFI484
	.long L$set$940
	.byte	0xde
	.byte	0xdd
	.byte	0xe
	.uleb128 0
	.align	3
LEFDE453:
LSFDE455:
	.set L$set$941,LEFDE455-LASFDE455
	.long L$set$941
LASFDE455:
	.long	LASFDE455-EH_frame1
	.quad	LFB5227-.
	.set L$set$942,LFE5227-LFB5227
	.quad L$set$942
	.uleb128 0x8
	.quad	0
	.byte	0x4
	.set L$set$943,LCFI486-LFB5227
	.long L$set$943
	.byte	0xe
	.uleb128 0x30
	.byte	0x9d
	.uleb128 0x6
	.byte	0x9e
	.uleb128 0x5
	.byte	0x4
	.set L$set$944,LCFI487-LCFI486
	.long L$set$944
	.byte	0xde
	.byte	0xdd
	.byte	0xe
	.uleb128 0
	.align	3
LEFDE455:
LSFDE457:
	.set L$set$945,LEFDE457-LASFDE457
	.long L$set$945
LASFDE457:
	.long	LASFDE457-EH_frame1
	.quad	LFB5228-.
	.set L$set$946,LFE5228-LFB5228
	.quad L$set$946
	.uleb128 0x8
	.quad	0
	.byte	0x4
	.set L$set$947,LCFI488-LFB5228
	.long L$set$947
	.byte	0xe
	.uleb128 0x20
	.byte	0x9d
	.uleb128 0x4
	.byte	0x9e
	.uleb128 0x3
	.byte	0x4
	.set L$set$948,LCFI489-LCFI488
	.long L$set$948
	.byte	0xde
	.byte	0xdd
	.byte	0xe
	.uleb128 0
	.align	3
LEFDE457:
LSFDE459:
	.set L$set$949,LEFDE459-LASFDE459
	.long L$set$949
LASFDE459:
	.long	LASFDE459-EH_frame1
	.quad	LFB5231-.
	.set L$set$950,LFE5231-LFB5231
	.quad L$set$950
	.uleb128 0x8
	.quad	0
	.byte	0x4
	.set L$set$951,LCFI490-LFB5231
	.long L$set$951
	.byte	0xe
	.uleb128 0x20
	.byte	0x9d
	.uleb128 0x4
	.byte	0x9e
	.uleb128 0x3
	.byte	0x4
	.set L$set$952,LCFI491-LCFI490
	.long L$set$952
	.byte	0xde
	.byte	0xdd
	.byte	0xe
	.uleb128 0
	.align	3
LEFDE459:
LSFDE461:
	.set L$set$953,LEFDE461-LASFDE461
	.long L$set$953
LASFDE461:
	.long	LASFDE461-EH_frame1
	.quad	LFB5234-.
	.set L$set$954,LFE5234-LFB5234
	.quad L$set$954
	.uleb128 0x8
	.quad	0
	.byte	0x4
	.set L$set$955,LCFI492-LFB5234
	.long L$set$955
	.byte	0xe
	.uleb128 0x20
	.byte	0x9d
	.uleb128 0x4
	.byte	0x9e
	.uleb128 0x3
	.byte	0x4
	.set L$set$956,LCFI493-LCFI492
	.long L$set$956
	.byte	0xde
	.byte	0xdd
	.byte	0xe
	.uleb128 0
	.align	3
LEFDE461:
LSFDE463:
	.set L$set$957,LEFDE463-LASFDE463
	.long L$set$957
LASFDE463:
	.long	LASFDE463-EH_frame1
	.quad	LFB5235-.
	.set L$set$958,LFE5235-LFB5235
	.quad L$set$958
	.uleb128 0x8
	.quad	0
	.byte	0x4
	.set L$set$959,LCFI494-LFB5235
	.long L$set$959
	.byte	0xe
	.uleb128 0x30
	.byte	0x9d
	.uleb128 0x6
	.byte	0x9e
	.uleb128 0x5
	.byte	0x4
	.set L$set$960,LCFI495-LCFI494
	.long L$set$960
	.byte	0xde
	.byte	0xdd
	.byte	0xe
	.uleb128 0
	.align	3
LEFDE463:
LSFDE465:
	.set L$set$961,LEFDE465-LASFDE465
	.long L$set$961
LASFDE465:
	.long	LASFDE465-EH_frame1
	.quad	LFB5236-.
	.set L$set$962,LFE5236-LFB5236
	.quad L$set$962
	.uleb128 0x8
	.quad	0
	.byte	0x4
	.set L$set$963,LCFI496-LFB5236
	.long L$set$963
	.byte	0xe
	.uleb128 0x10
	.byte	0x4
	.set L$set$964,LCFI497-LCFI496
	.long L$set$964
	.byte	0xe
	.uleb128 0
	.align	3
LEFDE465:
LSFDE467:
	.set L$set$965,LEFDE467-LASFDE467
	.long L$set$965
LASFDE467:
	.long	LASFDE467-EH_frame1
	.quad	LFB5237-.
	.set L$set$966,LFE5237-LFB5237
	.quad L$set$966
	.uleb128 0x8
	.quad	0
	.byte	0x4
	.set L$set$967,LCFI498-LFB5237
	.long L$set$967
	.byte	0xe
	.uleb128 0x30
	.byte	0x9d
	.uleb128 0x6
	.byte	0x9e
	.uleb128 0x5
	.byte	0x4
	.set L$set$968,LCFI499-LCFI498
	.long L$set$968
	.byte	0xde
	.byte	0xdd
	.byte	0xe
	.uleb128 0
	.align	3
LEFDE467:
LSFDE469:
	.set L$set$969,LEFDE469-LASFDE469
	.long L$set$969
LASFDE469:
	.long	LASFDE469-EH_frame1
	.quad	LFB5238-.
	.set L$set$970,LFE5238-LFB5238
	.quad L$set$970
	.uleb128 0x8
	.quad	0
	.byte	0x4
	.set L$set$971,LCFI500-LFB5238
	.long L$set$971
	.byte	0xe
	.uleb128 0x20
	.byte	0x9d
	.uleb128 0x4
	.byte	0x9e
	.uleb128 0x3
	.byte	0x4
	.set L$set$972,LCFI501-LCFI500
	.long L$set$972
	.byte	0xde
	.byte	0xdd
	.byte	0xe
	.uleb128 0
	.align	3
LEFDE469:
LSFDE471:
	.set L$set$973,LEFDE471-LASFDE471
	.long L$set$973
LASFDE471:
	.long	LASFDE471-EH_frame1
	.quad	LFB5239-.
	.set L$set$974,LFE5239-LFB5239
	.quad L$set$974
	.uleb128 0x8
	.quad	0
	.byte	0x4
	.set L$set$975,LCFI502-LFB5239
	.long L$set$975
	.byte	0xe
	.uleb128 0x20
	.byte	0x9d
	.uleb128 0x4
	.byte	0x9e
	.uleb128 0x3
	.byte	0x4
	.set L$set$976,LCFI503-LCFI502
	.long L$set$976
	.byte	0xde
	.byte	0xdd
	.byte	0xe
	.uleb128 0
	.align	3
LEFDE471:
LSFDE473:
	.set L$set$977,LEFDE473-LASFDE473
	.long L$set$977
LASFDE473:
	.long	LASFDE473-EH_frame1
	.quad	LFB5240-.
	.set L$set$978,LFE5240-LFB5240
	.quad L$set$978
	.uleb128 0x8
	.quad	0
	.byte	0x4
	.set L$set$979,LCFI504-LFB5240
	.long L$set$979
	.byte	0xe
	.uleb128 0x30
	.byte	0x9d
	.uleb128 0x6
	.byte	0x9e
	.uleb128 0x5
	.byte	0x4
	.set L$set$980,LCFI505-LCFI504
	.long L$set$980
	.byte	0xde
	.byte	0xdd
	.byte	0xe
	.uleb128 0
	.align	3
LEFDE473:
LSFDE475:
	.set L$set$981,LEFDE475-LASFDE475
	.long L$set$981
LASFDE475:
	.long	LASFDE475-EH_frame1
	.quad	LFB5241-.
	.set L$set$982,LFE5241-LFB5241
	.quad L$set$982
	.uleb128 0x8
	.quad	LLSDA5241-.
	.byte	0x4
	.set L$set$983,LCFI506-LFB5241
	.long L$set$983
	.byte	0xe
	.uleb128 0x50
	.byte	0x9d
	.uleb128 0xa
	.byte	0x9e
	.uleb128 0x9
	.byte	0x4
	.set L$set$984,LCFI507-LCFI506
	.long L$set$984
	.byte	0x93
	.uleb128 0x8
	.byte	0x4
	.set L$set$985,LCFI508-LCFI507
	.long L$set$985
	.byte	0xde
	.byte	0xdd
	.byte	0xd3
	.byte	0xe
	.uleb128 0
	.align	3
LEFDE475:
LSFDE477:
	.set L$set$986,LEFDE477-LASFDE477
	.long L$set$986
LASFDE477:
	.long	LASFDE477-EH_frame1
	.quad	LFB5242-.
	.set L$set$987,LFE5242-LFB5242
	.quad L$set$987
	.uleb128 0x8
	.quad	0
	.byte	0x4
	.set L$set$988,LCFI509-LFB5242
	.long L$set$988
	.byte	0xe
	.uleb128 0x10
	.byte	0x4
	.set L$set$989,LCFI510-LCFI509
	.long L$set$989
	.byte	0xe
	.uleb128 0
	.align	3
LEFDE477:
LSFDE479:
	.set L$set$990,LEFDE479-LASFDE479
	.long L$set$990
LASFDE479:
	.long	LASFDE479-EH_frame1
	.quad	LFB5243-.
	.set L$set$991,LFE5243-LFB5243
	.quad L$set$991
	.uleb128 0x8
	.quad	0
	.byte	0x4
	.set L$set$992,LCFI511-LFB5243
	.long L$set$992
	.byte	0xe
	.uleb128 0x20
	.byte	0x9d
	.uleb128 0x4
	.byte	0x9e
	.uleb128 0x3
	.byte	0x4
	.set L$set$993,LCFI512-LCFI511
	.long L$set$993
	.byte	0xde
	.byte	0xdd
	.byte	0xe
	.uleb128 0
	.align	3
LEFDE479:
LSFDE481:
	.set L$set$994,LEFDE481-LASFDE481
	.long L$set$994
LASFDE481:
	.long	LASFDE481-EH_frame1
	.quad	LFB5244-.
	.set L$set$995,LFE5244-LFB5244
	.quad L$set$995
	.uleb128 0x8
	.quad	0
	.byte	0x4
	.set L$set$996,LCFI513-LFB5244
	.long L$set$996
	.byte	0xe
	.uleb128 0x10
	.byte	0x4
	.set L$set$997,LCFI514-LCFI513
	.long L$set$997
	.byte	0xe
	.uleb128 0
	.align	3
LEFDE481:
LSFDE483:
	.set L$set$998,LEFDE483-LASFDE483
	.long L$set$998
LASFDE483:
	.long	LASFDE483-EH_frame1
	.quad	LFB5245-.
	.set L$set$999,LFE5245-LFB5245
	.quad L$set$999
	.uleb128 0x8
	.quad	0
	.byte	0x4
	.set L$set$1000,LCFI515-LFB5245
	.long L$set$1000
	.byte	0xe
	.uleb128 0x50
	.byte	0x9d
	.uleb128 0xa
	.byte	0x9e
	.uleb128 0x9
	.byte	0x4
	.set L$set$1001,LCFI516-LCFI515
	.long L$set$1001
	.byte	0x93
	.uleb128 0x8
	.byte	0x4
	.set L$set$1002,LCFI517-LCFI516
	.long L$set$1002
	.byte	0xde
	.byte	0xdd
	.byte	0xd3
	.byte	0xe
	.uleb128 0
	.align	3
LEFDE483:
LSFDE485:
	.set L$set$1003,LEFDE485-LASFDE485
	.long L$set$1003
LASFDE485:
	.long	LASFDE485-EH_frame1
	.quad	LFB5246-.
	.set L$set$1004,LFE5246-LFB5246
	.quad L$set$1004
	.uleb128 0x8
	.quad	LLSDA5246-.
	.byte	0x4
	.set L$set$1005,LCFI518-LFB5246
	.long L$set$1005
	.byte	0xe
	.uleb128 0x40
	.byte	0x9d
	.uleb128 0x8
	.byte	0x9e
	.uleb128 0x7
	.byte	0x4
	.set L$set$1006,LCFI519-LCFI518
	.long L$set$1006
	.byte	0xde
	.byte	0xdd
	.byte	0xe
	.uleb128 0
	.align	3
LEFDE485:
LSFDE487:
	.set L$set$1007,LEFDE487-LASFDE487
	.long L$set$1007
LASFDE487:
	.long	LASFDE487-EH_frame1
	.quad	LFB5247-.
	.set L$set$1008,LFE5247-LFB5247
	.quad L$set$1008
	.uleb128 0x8
	.quad	0
	.byte	0x4
	.set L$set$1009,LCFI520-LFB5247
	.long L$set$1009
	.byte	0xe
	.uleb128 0x20
	.byte	0x4
	.set L$set$1010,LCFI521-LCFI520
	.long L$set$1010
	.byte	0xe
	.uleb128 0
	.align	3
LEFDE487:
LSFDE489:
	.set L$set$1011,LEFDE489-LASFDE489
	.long L$set$1011
LASFDE489:
	.long	LASFDE489-EH_frame1
	.quad	LFB5248-.
	.set L$set$1012,LFE5248-LFB5248
	.quad L$set$1012
	.uleb128 0x8
	.quad	0
	.byte	0x4
	.set L$set$1013,LCFI522-LFB5248
	.long L$set$1013
	.byte	0xe
	.uleb128 0x20
	.byte	0x9d
	.uleb128 0x4
	.byte	0x9e
	.uleb128 0x3
	.byte	0x4
	.set L$set$1014,LCFI523-LCFI522
	.long L$set$1014
	.byte	0xde
	.byte	0xdd
	.byte	0xe
	.uleb128 0
	.align	3
LEFDE489:
LSFDE491:
	.set L$set$1015,LEFDE491-LASFDE491
	.long L$set$1015
LASFDE491:
	.long	LASFDE491-EH_frame1
	.quad	LFB5249-.
	.set L$set$1016,LFE5249-LFB5249
	.quad L$set$1016
	.uleb128 0x8
	.quad	0
	.byte	0x4
	.set L$set$1017,LCFI524-LFB5249
	.long L$set$1017
	.byte	0xe
	.uleb128 0x10
	.byte	0x4
	.set L$set$1018,LCFI525-LCFI524
	.long L$set$1018
	.byte	0xe
	.uleb128 0
	.align	3
LEFDE491:
LSFDE493:
	.set L$set$1019,LEFDE493-LASFDE493
	.long L$set$1019
LASFDE493:
	.long	LASFDE493-EH_frame1
	.quad	LFB5250-.
	.set L$set$1020,LFE5250-LFB5250
	.quad L$set$1020
	.uleb128 0x8
	.quad	0
	.byte	0x4
	.set L$set$1021,LCFI526-LFB5250
	.long L$set$1021
	.byte	0xe
	.uleb128 0x40
	.byte	0x9d
	.uleb128 0x8
	.byte	0x9e
	.uleb128 0x7
	.byte	0x4
	.set L$set$1022,LCFI527-LCFI526
	.long L$set$1022
	.byte	0x93
	.uleb128 0x6
	.byte	0x4
	.set L$set$1023,LCFI528-LCFI527
	.long L$set$1023
	.byte	0xde
	.byte	0xdd
	.byte	0xd3
	.byte	0xe
	.uleb128 0
	.align	3
LEFDE493:
LSFDE495:
	.set L$set$1024,LEFDE495-LASFDE495
	.long L$set$1024
LASFDE495:
	.long	LASFDE495-EH_frame1
	.quad	LFB5254-.
	.set L$set$1025,LFE5254-LFB5254
	.quad L$set$1025
	.uleb128 0x8
	.quad	0
	.byte	0x4
	.set L$set$1026,LCFI529-LFB5254
	.long L$set$1026
	.byte	0xe
	.uleb128 0x20
	.byte	0x9d
	.uleb128 0x4
	.byte	0x9e
	.uleb128 0x3
	.byte	0x4
	.set L$set$1027,LCFI530-LCFI529
	.long L$set$1027
	.byte	0xde
	.byte	0xdd
	.byte	0xe
	.uleb128 0
	.align	3
LEFDE495:
LSFDE497:
	.set L$set$1028,LEFDE497-LASFDE497
	.long L$set$1028
LASFDE497:
	.long	LASFDE497-EH_frame1
	.quad	LFB5251-.
	.set L$set$1029,LFE5251-LFB5251
	.quad L$set$1029
	.uleb128 0x8
	.quad	LLSDA5251-.
	.byte	0x4
	.set L$set$1030,LCFI531-LFB5251
	.long L$set$1030
	.byte	0xe
	.uleb128 0x40
	.byte	0x9d
	.uleb128 0x8
	.byte	0x9e
	.uleb128 0x7
	.byte	0x4
	.set L$set$1031,LCFI532-LCFI531
	.long L$set$1031
	.byte	0x93
	.uleb128 0x6
	.byte	0x94
	.uleb128 0x5
	.byte	0x4
	.set L$set$1032,LCFI533-LCFI532
	.long L$set$1032
	.byte	0xde
	.byte	0xdd
	.byte	0xd3
	.byte	0xd4
	.byte	0xe
	.uleb128 0
	.align	3
LEFDE497:
LSFDE499:
	.set L$set$1033,LEFDE499-LASFDE499
	.long L$set$1033
LASFDE499:
	.long	LASFDE499-EH_frame1
	.quad	LFB5255-.
	.set L$set$1034,LFE5255-LFB5255
	.quad L$set$1034
	.uleb128 0x8
	.quad	0
	.byte	0x4
	.set L$set$1035,LCFI534-LFB5255
	.long L$set$1035
	.byte	0xe
	.uleb128 0x10
	.byte	0x4
	.set L$set$1036,LCFI535-LCFI534
	.long L$set$1036
	.byte	0xe
	.uleb128 0
	.align	3
LEFDE499:
LSFDE501:
	.set L$set$1037,LEFDE501-LASFDE501
	.long L$set$1037
LASFDE501:
	.long	LASFDE501-EH_frame1
	.quad	LFB5256-.
	.set L$set$1038,LFE5256-LFB5256
	.quad L$set$1038
	.uleb128 0x8
	.quad	0
	.byte	0x4
	.set L$set$1039,LCFI536-LFB5256
	.long L$set$1039
	.byte	0xe
	.uleb128 0x20
	.byte	0x9d
	.uleb128 0x4
	.byte	0x9e
	.uleb128 0x3
	.byte	0x4
	.set L$set$1040,LCFI537-LCFI536
	.long L$set$1040
	.byte	0xde
	.byte	0xdd
	.byte	0xe
	.uleb128 0
	.align	3
LEFDE501:
LSFDE503:
	.set L$set$1041,LEFDE503-LASFDE503
	.long L$set$1041
LASFDE503:
	.long	LASFDE503-EH_frame1
	.quad	LFB5257-.
	.set L$set$1042,LFE5257-LFB5257
	.quad L$set$1042
	.uleb128 0x8
	.quad	0
	.byte	0x4
	.set L$set$1043,LCFI538-LFB5257
	.long L$set$1043
	.byte	0xe
	.uleb128 0x10
	.byte	0x4
	.set L$set$1044,LCFI539-LCFI538
	.long L$set$1044
	.byte	0xe
	.uleb128 0
	.align	3
LEFDE503:
LSFDE505:
	.set L$set$1045,LEFDE505-LASFDE505
	.long L$set$1045
LASFDE505:
	.long	LASFDE505-EH_frame1
	.quad	LFB5260-.
	.set L$set$1046,LFE5260-LFB5260
	.quad L$set$1046
	.uleb128 0x8
	.quad	0
	.byte	0x4
	.set L$set$1047,LCFI540-LFB5260
	.long L$set$1047
	.byte	0xe
	.uleb128 0x30
	.byte	0x9d
	.uleb128 0x6
	.byte	0x9e
	.uleb128 0x5
	.byte	0x4
	.set L$set$1048,LCFI541-LCFI540
	.long L$set$1048
	.byte	0xde
	.byte	0xdd
	.byte	0xe
	.uleb128 0
	.align	3
LEFDE505:
LSFDE507:
	.set L$set$1049,LEFDE507-LASFDE507
	.long L$set$1049
LASFDE507:
	.long	LASFDE507-EH_frame1
	.quad	LFB5261-.
	.set L$set$1050,LFE5261-LFB5261
	.quad L$set$1050
	.uleb128 0x8
	.quad	LLSDA5261-.
	.byte	0x4
	.set L$set$1051,LCFI542-LFB5261
	.long L$set$1051
	.byte	0xe
	.uleb128 0x40
	.byte	0x9d
	.uleb128 0x8
	.byte	0x9e
	.uleb128 0x7
	.byte	0x4
	.set L$set$1052,LCFI543-LCFI542
	.long L$set$1052
	.byte	0x93
	.uleb128 0x6
	.byte	0x4
	.set L$set$1053,LCFI544-LCFI543
	.long L$set$1053
	.byte	0xde
	.byte	0xdd
	.byte	0xd3
	.byte	0xe
	.uleb128 0
	.align	3
LEFDE507:
LSFDE509:
	.set L$set$1054,LEFDE509-LASFDE509
	.long L$set$1054
LASFDE509:
	.long	LASFDE509-EH_frame1
	.quad	LFB5262-.
	.set L$set$1055,LFE5262-LFB5262
	.quad L$set$1055
	.uleb128 0x8
	.quad	0
	.byte	0x4
	.set L$set$1056,LCFI545-LFB5262
	.long L$set$1056
	.byte	0xe
	.uleb128 0x20
	.byte	0x4
	.set L$set$1057,LCFI546-LCFI545
	.long L$set$1057
	.byte	0xe
	.uleb128 0
	.align	3
LEFDE509:
LSFDE511:
	.set L$set$1058,LEFDE511-LASFDE511
	.long L$set$1058
LASFDE511:
	.long	LASFDE511-EH_frame1
	.quad	LFB5263-.
	.set L$set$1059,LFE5263-LFB5263
	.quad L$set$1059
	.uleb128 0x8
	.quad	0
	.byte	0x4
	.set L$set$1060,LCFI547-LFB5263
	.long L$set$1060
	.byte	0xe
	.uleb128 0x40
	.byte	0x9d
	.uleb128 0x8
	.byte	0x9e
	.uleb128 0x7
	.byte	0x4
	.set L$set$1061,LCFI548-LCFI547
	.long L$set$1061
	.byte	0x93
	.uleb128 0x6
	.byte	0x94
	.uleb128 0x5
	.byte	0x4
	.set L$set$1062,LCFI549-LCFI548
	.long L$set$1062
	.byte	0xde
	.byte	0xdd
	.byte	0xd3
	.byte	0xd4
	.byte	0xe
	.uleb128 0
	.align	3
LEFDE511:
LSFDE513:
	.set L$set$1063,LEFDE513-LASFDE513
	.long L$set$1063
LASFDE513:
	.long	LASFDE513-EH_frame1
	.quad	LFB5264-.
	.set L$set$1064,LFE5264-LFB5264
	.quad L$set$1064
	.uleb128 0x8
	.quad	0
	.byte	0x4
	.set L$set$1065,LCFI550-LFB5264
	.long L$set$1065
	.byte	0xe
	.uleb128 0x10
	.byte	0x4
	.set L$set$1066,LCFI551-LCFI550
	.long L$set$1066
	.byte	0xe
	.uleb128 0
	.align	3
LEFDE513:
LSFDE515:
	.set L$set$1067,LEFDE515-LASFDE515
	.long L$set$1067
LASFDE515:
	.long	LASFDE515-EH_frame1
	.quad	LFB5290-.
	.set L$set$1068,LFE5290-LFB5290
	.quad L$set$1068
	.uleb128 0x8
	.quad	0
	.byte	0x4
	.set L$set$1069,LCFI552-LFB5290
	.long L$set$1069
	.byte	0xe
	.uleb128 0x10
	.byte	0x4
	.set L$set$1070,LCFI553-LCFI552
	.long L$set$1070
	.byte	0xe
	.uleb128 0
	.align	3
LEFDE515:
LSFDE517:
	.set L$set$1071,LEFDE517-LASFDE517
	.long L$set$1071
LASFDE517:
	.long	LASFDE517-EH_frame1
	.quad	LFB5291-.
	.set L$set$1072,LFE5291-LFB5291
	.quad L$set$1072
	.uleb128 0x8
	.quad	0
	.byte	0x4
	.set L$set$1073,LCFI554-LFB5291
	.long L$set$1073
	.byte	0xe
	.uleb128 0x30
	.byte	0x9d
	.uleb128 0x6
	.byte	0x9e
	.uleb128 0x5
	.byte	0x4
	.set L$set$1074,LCFI555-LCFI554
	.long L$set$1074
	.byte	0xde
	.byte	0xdd
	.byte	0xe
	.uleb128 0
	.align	3
LEFDE517:
LSFDE519:
	.set L$set$1075,LEFDE519-LASFDE519
	.long L$set$1075
LASFDE519:
	.long	LASFDE519-EH_frame1
	.quad	LFB5292-.
	.set L$set$1076,LFE5292-LFB5292
	.quad L$set$1076
	.uleb128 0x8
	.quad	0
	.byte	0x4
	.set L$set$1077,LCFI556-LFB5292
	.long L$set$1077
	.byte	0xe
	.uleb128 0x30
	.byte	0x9d
	.uleb128 0x6
	.byte	0x9e
	.uleb128 0x5
	.byte	0x4
	.set L$set$1078,LCFI557-LCFI556
	.long L$set$1078
	.byte	0x93
	.uleb128 0x4
	.byte	0x4
	.set L$set$1079,LCFI558-LCFI557
	.long L$set$1079
	.byte	0xde
	.byte	0xdd
	.byte	0xd3
	.byte	0xe
	.uleb128 0
	.align	3
LEFDE519:
LSFDE521:
	.set L$set$1080,LEFDE521-LASFDE521
	.long L$set$1080
LASFDE521:
	.long	LASFDE521-EH_frame1
	.quad	LFB5293-.
	.set L$set$1081,LFE5293-LFB5293
	.quad L$set$1081
	.uleb128 0x8
	.quad	0
	.byte	0x4
	.set L$set$1082,LCFI559-LFB5293
	.long L$set$1082
	.byte	0xe
	.uleb128 0x10
	.byte	0x4
	.set L$set$1083,LCFI560-LCFI559
	.long L$set$1083
	.byte	0xe
	.uleb128 0
	.align	3
LEFDE521:
LSFDE523:
	.set L$set$1084,LEFDE523-LASFDE523
	.long L$set$1084
LASFDE523:
	.long	LASFDE523-EH_frame1
	.quad	LFB5294-.
	.set L$set$1085,LFE5294-LFB5294
	.quad L$set$1085
	.uleb128 0x8
	.quad	0
	.byte	0x4
	.set L$set$1086,LCFI561-LFB5294
	.long L$set$1086
	.byte	0xe
	.uleb128 0x10
	.byte	0x4
	.set L$set$1087,LCFI562-LCFI561
	.long L$set$1087
	.byte	0xe
	.uleb128 0
	.align	3
LEFDE523:
LSFDE525:
	.set L$set$1088,LEFDE525-LASFDE525
	.long L$set$1088
LASFDE525:
	.long	LASFDE525-EH_frame1
	.quad	LFB5295-.
	.set L$set$1089,LFE5295-LFB5295
	.quad L$set$1089
	.uleb128 0x8
	.quad	0
	.byte	0x4
	.set L$set$1090,LCFI563-LFB5295
	.long L$set$1090
	.byte	0xe
	.uleb128 0x20
	.byte	0x9d
	.uleb128 0x4
	.byte	0x9e
	.uleb128 0x3
	.byte	0x4
	.set L$set$1091,LCFI564-LCFI563
	.long L$set$1091
	.byte	0xde
	.byte	0xdd
	.byte	0xe
	.uleb128 0
	.align	3
LEFDE525:
LSFDE527:
	.set L$set$1092,LEFDE527-LASFDE527
	.long L$set$1092
LASFDE527:
	.long	LASFDE527-EH_frame1
	.quad	LFB5296-.
	.set L$set$1093,LFE5296-LFB5296
	.quad L$set$1093
	.uleb128 0x8
	.quad	0
	.byte	0x4
	.set L$set$1094,LCFI565-LFB5296
	.long L$set$1094
	.byte	0xe
	.uleb128 0x30
	.byte	0x9d
	.uleb128 0x6
	.byte	0x9e
	.uleb128 0x5
	.byte	0x4
	.set L$set$1095,LCFI566-LCFI565
	.long L$set$1095
	.byte	0xde
	.byte	0xdd
	.byte	0xe
	.uleb128 0
	.align	3
LEFDE527:
LSFDE529:
	.set L$set$1096,LEFDE529-LASFDE529
	.long L$set$1096
LASFDE529:
	.long	LASFDE529-EH_frame1
	.quad	LFB5297-.
	.set L$set$1097,LFE5297-LFB5297
	.quad L$set$1097
	.uleb128 0x8
	.quad	0
	.byte	0x4
	.set L$set$1098,LCFI567-LFB5297
	.long L$set$1098
	.byte	0xe
	.uleb128 0x20
	.byte	0x9d
	.uleb128 0x4
	.byte	0x9e
	.uleb128 0x3
	.byte	0x4
	.set L$set$1099,LCFI568-LCFI567
	.long L$set$1099
	.byte	0xde
	.byte	0xdd
	.byte	0xe
	.uleb128 0
	.align	3
LEFDE529:
LSFDE531:
	.set L$set$1100,LEFDE531-LASFDE531
	.long L$set$1100
LASFDE531:
	.long	LASFDE531-EH_frame1
	.quad	LFB5299-.
	.set L$set$1101,LFE5299-LFB5299
	.quad L$set$1101
	.uleb128 0x8
	.quad	0
	.byte	0x4
	.set L$set$1102,LCFI569-LFB5299
	.long L$set$1102
	.byte	0xe
	.uleb128 0x10
	.byte	0x4
	.set L$set$1103,LCFI570-LCFI569
	.long L$set$1103
	.byte	0xe
	.uleb128 0
	.align	3
LEFDE531:
LSFDE533:
	.set L$set$1104,LEFDE533-LASFDE533
	.long L$set$1104
LASFDE533:
	.long	LASFDE533-EH_frame1
	.quad	LFB5302-.
	.set L$set$1105,LFE5302-LFB5302
	.quad L$set$1105
	.uleb128 0x8
	.quad	0
	.byte	0x4
	.set L$set$1106,LCFI571-LFB5302
	.long L$set$1106
	.byte	0xe
	.uleb128 0x10
	.byte	0x4
	.set L$set$1107,LCFI572-LCFI571
	.long L$set$1107
	.byte	0xe
	.uleb128 0
	.align	3
LEFDE533:
LSFDE535:
	.set L$set$1108,LEFDE535-LASFDE535
	.long L$set$1108
LASFDE535:
	.long	LASFDE535-EH_frame1
	.quad	LFB5304-.
	.set L$set$1109,LFE5304-LFB5304
	.quad L$set$1109
	.uleb128 0x8
	.quad	0
	.byte	0x4
	.set L$set$1110,LCFI573-LFB5304
	.long L$set$1110
	.byte	0xe
	.uleb128 0x30
	.byte	0x9d
	.uleb128 0x6
	.byte	0x9e
	.uleb128 0x5
	.byte	0x4
	.set L$set$1111,LCFI574-LCFI573
	.long L$set$1111
	.byte	0xde
	.byte	0xdd
	.byte	0xe
	.uleb128 0
	.align	3
LEFDE535:
LSFDE537:
	.set L$set$1112,LEFDE537-LASFDE537
	.long L$set$1112
LASFDE537:
	.long	LASFDE537-EH_frame1
	.quad	LFB5305-.
	.set L$set$1113,LFE5305-LFB5305
	.quad L$set$1113
	.uleb128 0x8
	.quad	0
	.byte	0x4
	.set L$set$1114,LCFI575-LFB5305
	.long L$set$1114
	.byte	0xe
	.uleb128 0x10
	.byte	0x4
	.set L$set$1115,LCFI576-LCFI575
	.long L$set$1115
	.byte	0xe
	.uleb128 0
	.align	3
LEFDE537:
LSFDE539:
	.set L$set$1116,LEFDE539-LASFDE539
	.long L$set$1116
LASFDE539:
	.long	LASFDE539-EH_frame1
	.quad	LFB5306-.
	.set L$set$1117,LFE5306-LFB5306
	.quad L$set$1117
	.uleb128 0x8
	.quad	0
	.byte	0x4
	.set L$set$1118,LCFI577-LFB5306
	.long L$set$1118
	.byte	0xe
	.uleb128 0x30
	.byte	0x9d
	.uleb128 0x6
	.byte	0x9e
	.uleb128 0x5
	.byte	0x4
	.set L$set$1119,LCFI578-LCFI577
	.long L$set$1119
	.byte	0xde
	.byte	0xdd
	.byte	0xe
	.uleb128 0
	.align	3
LEFDE539:
LSFDE541:
	.set L$set$1120,LEFDE541-LASFDE541
	.long L$set$1120
LASFDE541:
	.long	LASFDE541-EH_frame1
	.quad	LFB5311-.
	.set L$set$1121,LFE5311-LFB5311
	.quad L$set$1121
	.uleb128 0x8
	.quad	0
	.byte	0x4
	.set L$set$1122,LCFI579-LFB5311
	.long L$set$1122
	.byte	0xe
	.uleb128 0x20
	.byte	0x9d
	.uleb128 0x4
	.byte	0x9e
	.uleb128 0x3
	.byte	0x4
	.set L$set$1123,LCFI580-LCFI579
	.long L$set$1123
	.byte	0xde
	.byte	0xdd
	.byte	0xe
	.uleb128 0
	.align	3
LEFDE541:
LSFDE543:
	.set L$set$1124,LEFDE543-LASFDE543
	.long L$set$1124
LASFDE543:
	.long	LASFDE543-EH_frame1
	.quad	LFB5313-.
	.set L$set$1125,LFE5313-LFB5313
	.quad L$set$1125
	.uleb128 0x8
	.quad	LLSDA5313-.
	.byte	0x4
	.set L$set$1126,LCFI581-LFB5313
	.long L$set$1126
	.byte	0xe
	.uleb128 0x30
	.byte	0x9d
	.uleb128 0x6
	.byte	0x9e
	.uleb128 0x5
	.byte	0x4
	.set L$set$1127,LCFI582-LCFI581
	.long L$set$1127
	.byte	0x93
	.uleb128 0x4
	.byte	0x4
	.set L$set$1128,LCFI583-LCFI582
	.long L$set$1128
	.byte	0xde
	.byte	0xdd
	.byte	0xd3
	.byte	0xe
	.uleb128 0
	.align	3
LEFDE543:
LSFDE545:
	.set L$set$1129,LEFDE545-LASFDE545
	.long L$set$1129
LASFDE545:
	.long	LASFDE545-EH_frame1
	.quad	LFB5307-.
	.set L$set$1130,LFE5307-LFB5307
	.quad L$set$1130
	.uleb128 0x8
	.quad	LLSDA5307-.
	.byte	0x4
	.set L$set$1131,LCFI584-LFB5307
	.long L$set$1131
	.byte	0xe
	.uleb128 0x40
	.byte	0x9d
	.uleb128 0x8
	.byte	0x9e
	.uleb128 0x7
	.byte	0x4
	.set L$set$1132,LCFI585-LCFI584
	.long L$set$1132
	.byte	0x93
	.uleb128 0x6
	.byte	0x94
	.uleb128 0x5
	.byte	0x95
	.uleb128 0x4
	.byte	0x4
	.set L$set$1133,LCFI586-LCFI585
	.long L$set$1133
	.byte	0xde
	.byte	0xdd
	.byte	0xd5
	.byte	0xd3
	.byte	0xd4
	.byte	0xe
	.uleb128 0
	.align	3
LEFDE545:
LSFDE547:
	.set L$set$1134,LEFDE547-LASFDE547
	.long L$set$1134
LASFDE547:
	.long	LASFDE547-EH_frame1
	.quad	LFB5314-.
	.set L$set$1135,LFE5314-LFB5314
	.quad L$set$1135
	.uleb128 0x8
	.quad	0
	.byte	0x4
	.set L$set$1136,LCFI587-LFB5314
	.long L$set$1136
	.byte	0xe
	.uleb128 0x10
	.byte	0x4
	.set L$set$1137,LCFI588-LCFI587
	.long L$set$1137
	.byte	0xe
	.uleb128 0
	.align	3
LEFDE547:
LSFDE549:
	.set L$set$1138,LEFDE549-LASFDE549
	.long L$set$1138
LASFDE549:
	.long	LASFDE549-EH_frame1
	.quad	LFB5315-.
	.set L$set$1139,LFE5315-LFB5315
	.quad L$set$1139
	.uleb128 0x8
	.quad	0
	.byte	0x4
	.set L$set$1140,LCFI589-LFB5315
	.long L$set$1140
	.byte	0xe
	.uleb128 0x20
	.byte	0x9d
	.uleb128 0x4
	.byte	0x9e
	.uleb128 0x3
	.byte	0x4
	.set L$set$1141,LCFI590-LCFI589
	.long L$set$1141
	.byte	0xde
	.byte	0xdd
	.byte	0xe
	.uleb128 0
	.align	3
LEFDE549:
LSFDE551:
	.set L$set$1142,LEFDE551-LASFDE551
	.long L$set$1142
LASFDE551:
	.long	LASFDE551-EH_frame1
	.quad	LFB5316-.
	.set L$set$1143,LFE5316-LFB5316
	.quad L$set$1143
	.uleb128 0x8
	.quad	0
	.byte	0x4
	.set L$set$1144,LCFI591-LFB5316
	.long L$set$1144
	.byte	0xe
	.uleb128 0x20
	.byte	0x9d
	.uleb128 0x4
	.byte	0x9e
	.uleb128 0x3
	.byte	0x4
	.set L$set$1145,LCFI592-LCFI591
	.long L$set$1145
	.byte	0xde
	.byte	0xdd
	.byte	0xe
	.uleb128 0
	.align	3
LEFDE551:
LSFDE553:
	.set L$set$1146,LEFDE553-LASFDE553
	.long L$set$1146
LASFDE553:
	.long	LASFDE553-EH_frame1
	.quad	LFB5317-.
	.set L$set$1147,LFE5317-LFB5317
	.quad L$set$1147
	.uleb128 0x8
	.quad	0
	.byte	0x4
	.set L$set$1148,LCFI593-LFB5317
	.long L$set$1148
	.byte	0xe
	.uleb128 0x20
	.byte	0x9d
	.uleb128 0x4
	.byte	0x9e
	.uleb128 0x3
	.byte	0x4
	.set L$set$1149,LCFI594-LCFI593
	.long L$set$1149
	.byte	0xde
	.byte	0xdd
	.byte	0xe
	.uleb128 0
	.align	3
LEFDE553:
LSFDE555:
	.set L$set$1150,LEFDE555-LASFDE555
	.long L$set$1150
LASFDE555:
	.long	LASFDE555-EH_frame1
	.quad	LFB5318-.
	.set L$set$1151,LFE5318-LFB5318
	.quad L$set$1151
	.uleb128 0x8
	.quad	0
	.byte	0x4
	.set L$set$1152,LCFI595-LFB5318
	.long L$set$1152
	.byte	0xe
	.uleb128 0x20
	.byte	0x4
	.set L$set$1153,LCFI596-LCFI595
	.long L$set$1153
	.byte	0xe
	.uleb128 0
	.align	3
LEFDE555:
LSFDE557:
	.set L$set$1154,LEFDE557-LASFDE557
	.long L$set$1154
LASFDE557:
	.long	LASFDE557-EH_frame1
	.quad	LFB5320-.
	.set L$set$1155,LFE5320-LFB5320
	.quad L$set$1155
	.uleb128 0x8
	.quad	0
	.byte	0x4
	.set L$set$1156,LCFI597-LFB5320
	.long L$set$1156
	.byte	0xe
	.uleb128 0x10
	.byte	0x4
	.set L$set$1157,LCFI598-LCFI597
	.long L$set$1157
	.byte	0xe
	.uleb128 0
	.align	3
LEFDE557:
LSFDE559:
	.set L$set$1158,LEFDE559-LASFDE559
	.long L$set$1158
LASFDE559:
	.long	LASFDE559-EH_frame1
	.quad	LFB5319-.
	.set L$set$1159,LFE5319-LFB5319
	.quad L$set$1159
	.uleb128 0x8
	.quad	0
	.byte	0x4
	.set L$set$1160,LCFI599-LFB5319
	.long L$set$1160
	.byte	0xe
	.uleb128 0x30
	.byte	0x9d
	.uleb128 0x6
	.byte	0x9e
	.uleb128 0x5
	.byte	0x4
	.set L$set$1161,LCFI600-LCFI599
	.long L$set$1161
	.byte	0xde
	.byte	0xdd
	.byte	0xe
	.uleb128 0
	.align	3
LEFDE559:
LSFDE561:
	.set L$set$1162,LEFDE561-LASFDE561
	.long L$set$1162
LASFDE561:
	.long	LASFDE561-EH_frame1
	.quad	LFB5321-.
	.set L$set$1163,LFE5321-LFB5321
	.quad L$set$1163
	.uleb128 0x8
	.quad	0
	.byte	0x4
	.set L$set$1164,LCFI601-LFB5321
	.long L$set$1164
	.byte	0xe
	.uleb128 0x20
	.byte	0x9d
	.uleb128 0x4
	.byte	0x9e
	.uleb128 0x3
	.byte	0x4
	.set L$set$1165,LCFI602-LCFI601
	.long L$set$1165
	.byte	0xde
	.byte	0xdd
	.byte	0xe
	.uleb128 0
	.align	3
LEFDE561:
LSFDE563:
	.set L$set$1166,LEFDE563-LASFDE563
	.long L$set$1166
LASFDE563:
	.long	LASFDE563-EH_frame1
	.quad	LFB5322-.
	.set L$set$1167,LFE5322-LFB5322
	.quad L$set$1167
	.uleb128 0x8
	.quad	0
	.byte	0x4
	.set L$set$1168,LCFI603-LFB5322
	.long L$set$1168
	.byte	0xe
	.uleb128 0x10
	.byte	0x4
	.set L$set$1169,LCFI604-LCFI603
	.long L$set$1169
	.byte	0xe
	.uleb128 0
	.align	3
LEFDE563:
LSFDE565:
	.set L$set$1170,LEFDE565-LASFDE565
	.long L$set$1170
LASFDE565:
	.long	LASFDE565-EH_frame1
	.quad	LFB5323-.
	.set L$set$1171,LFE5323-LFB5323
	.quad L$set$1171
	.uleb128 0x8
	.quad	0
	.byte	0x4
	.set L$set$1172,LCFI605-LFB5323
	.long L$set$1172
	.byte	0xe
	.uleb128 0x30
	.byte	0x9d
	.uleb128 0x6
	.byte	0x9e
	.uleb128 0x5
	.byte	0x4
	.set L$set$1173,LCFI606-LCFI605
	.long L$set$1173
	.byte	0xde
	.byte	0xdd
	.byte	0xe
	.uleb128 0
	.align	3
LEFDE565:
LSFDE567:
	.set L$set$1174,LEFDE567-LASFDE567
	.long L$set$1174
LASFDE567:
	.long	LASFDE567-EH_frame1
	.quad	LFB5324-.
	.set L$set$1175,LFE5324-LFB5324
	.quad L$set$1175
	.uleb128 0x8
	.quad	0
	.byte	0x4
	.set L$set$1176,LCFI607-LFB5324
	.long L$set$1176
	.byte	0xe
	.uleb128 0x10
	.byte	0x4
	.set L$set$1177,LCFI608-LCFI607
	.long L$set$1177
	.byte	0xe
	.uleb128 0
	.align	3
LEFDE567:
LSFDE569:
	.set L$set$1178,LEFDE569-LASFDE569
	.long L$set$1178
LASFDE569:
	.long	LASFDE569-EH_frame1
	.quad	LFB5325-.
	.set L$set$1179,LFE5325-LFB5325
	.quad L$set$1179
	.uleb128 0x8
	.quad	0
	.byte	0x4
	.set L$set$1180,LCFI609-LFB5325
	.long L$set$1180
	.byte	0xe
	.uleb128 0x60
	.byte	0x9d
	.uleb128 0xc
	.byte	0x9e
	.uleb128 0xb
	.byte	0x4
	.set L$set$1181,LCFI610-LCFI609
	.long L$set$1181
	.byte	0xde
	.byte	0xdd
	.byte	0xe
	.uleb128 0
	.align	3
LEFDE569:
LSFDE571:
	.set L$set$1182,LEFDE571-LASFDE571
	.long L$set$1182
LASFDE571:
	.long	LASFDE571-EH_frame1
	.quad	LFB5338-.
	.set L$set$1183,LFE5338-LFB5338
	.quad L$set$1183
	.uleb128 0x8
	.quad	0
	.byte	0x4
	.set L$set$1184,LCFI611-LFB5338
	.long L$set$1184
	.byte	0xe
	.uleb128 0x10
	.byte	0x4
	.set L$set$1185,LCFI612-LCFI611
	.long L$set$1185
	.byte	0xe
	.uleb128 0
	.align	3
LEFDE571:
LSFDE573:
	.set L$set$1186,LEFDE573-LASFDE573
	.long L$set$1186
LASFDE573:
	.long	LASFDE573-EH_frame1
	.quad	LFB5339-.
	.set L$set$1187,LFE5339-LFB5339
	.quad L$set$1187
	.uleb128 0x8
	.quad	0
	.byte	0x4
	.set L$set$1188,LCFI613-LFB5339
	.long L$set$1188
	.byte	0xe
	.uleb128 0x20
	.byte	0x9d
	.uleb128 0x4
	.byte	0x9e
	.uleb128 0x3
	.byte	0x4
	.set L$set$1189,LCFI614-LCFI613
	.long L$set$1189
	.byte	0xde
	.byte	0xdd
	.byte	0xe
	.uleb128 0
	.align	3
LEFDE573:
LSFDE575:
	.set L$set$1190,LEFDE575-LASFDE575
	.long L$set$1190
LASFDE575:
	.long	LASFDE575-EH_frame1
	.quad	LFB5340-.
	.set L$set$1191,LFE5340-LFB5340
	.quad L$set$1191
	.uleb128 0x8
	.quad	0
	.byte	0x4
	.set L$set$1192,LCFI615-LFB5340
	.long L$set$1192
	.byte	0xe
	.uleb128 0x30
	.byte	0x9d
	.uleb128 0x6
	.byte	0x9e
	.uleb128 0x5
	.byte	0x4
	.set L$set$1193,LCFI616-LCFI615
	.long L$set$1193
	.byte	0xde
	.byte	0xdd
	.byte	0xe
	.uleb128 0
	.align	3
LEFDE575:
LSFDE577:
	.set L$set$1194,LEFDE577-LASFDE577
	.long L$set$1194
LASFDE577:
	.long	LASFDE577-EH_frame1
	.quad	LFB5341-.
	.set L$set$1195,LFE5341-LFB5341
	.quad L$set$1195
	.uleb128 0x8
	.quad	0
	.byte	0x4
	.set L$set$1196,LCFI617-LFB5341
	.long L$set$1196
	.byte	0xe
	.uleb128 0x10
	.byte	0x4
	.set L$set$1197,LCFI618-LCFI617
	.long L$set$1197
	.byte	0xe
	.uleb128 0
	.align	3
LEFDE577:
LSFDE579:
	.set L$set$1198,LEFDE579-LASFDE579
	.long L$set$1198
LASFDE579:
	.long	LASFDE579-EH_frame1
	.quad	LFB5342-.
	.set L$set$1199,LFE5342-LFB5342
	.quad L$set$1199
	.uleb128 0x8
	.quad	0
	.byte	0x4
	.set L$set$1200,LCFI619-LFB5342
	.long L$set$1200
	.byte	0xe
	.uleb128 0x10
	.byte	0x4
	.set L$set$1201,LCFI620-LCFI619
	.long L$set$1201
	.byte	0xe
	.uleb128 0
	.align	3
LEFDE579:
LSFDE581:
	.set L$set$1202,LEFDE581-LASFDE581
	.long L$set$1202
LASFDE581:
	.long	LASFDE581-EH_frame1
	.quad	LFB5345-.
	.set L$set$1203,LFE5345-LFB5345
	.quad L$set$1203
	.uleb128 0x8
	.quad	LLSDA5345-.
	.byte	0x4
	.set L$set$1204,LCFI621-LFB5345
	.long L$set$1204
	.byte	0xe
	.uleb128 0x50
	.byte	0x9d
	.uleb128 0xa
	.byte	0x9e
	.uleb128 0x9
	.byte	0x4
	.set L$set$1205,LCFI622-LCFI621
	.long L$set$1205
	.byte	0x93
	.uleb128 0x8
	.byte	0x94
	.uleb128 0x7
	.byte	0x95
	.uleb128 0x6
	.byte	0x4
	.set L$set$1206,LCFI623-LCFI622
	.long L$set$1206
	.byte	0xde
	.byte	0xdd
	.byte	0xd5
	.byte	0xd3
	.byte	0xd4
	.byte	0xe
	.uleb128 0
	.align	3
LEFDE581:
LSFDE583:
	.set L$set$1207,LEFDE583-LASFDE583
	.long L$set$1207
LASFDE583:
	.long	LASFDE583-EH_frame1
	.quad	LFB5348-.
	.set L$set$1208,LFE5348-LFB5348
	.quad L$set$1208
	.uleb128 0x8
	.quad	LLSDA5348-.
	.byte	0x4
	.set L$set$1209,LCFI624-LFB5348
	.long L$set$1209
	.byte	0xe
	.uleb128 0x40
	.byte	0x9d
	.uleb128 0x8
	.byte	0x9e
	.uleb128 0x7
	.byte	0x4
	.set L$set$1210,LCFI625-LCFI624
	.long L$set$1210
	.byte	0x93
	.uleb128 0x6
	.byte	0x4
	.set L$set$1211,LCFI626-LCFI625
	.long L$set$1211
	.byte	0xde
	.byte	0xdd
	.byte	0xd3
	.byte	0xe
	.uleb128 0
	.align	3
LEFDE583:
LSFDE585:
	.set L$set$1212,LEFDE585-LASFDE585
	.long L$set$1212
LASFDE585:
	.long	LASFDE585-EH_frame1
	.quad	LFB5351-.
	.set L$set$1213,LFE5351-LFB5351
	.quad L$set$1213
	.uleb128 0x8
	.quad	LLSDA5351-.
	.byte	0x4
	.set L$set$1214,LCFI627-LFB5351
	.long L$set$1214
	.byte	0xe
	.uleb128 0x40
	.byte	0x9d
	.uleb128 0x8
	.byte	0x9e
	.uleb128 0x7
	.byte	0x4
	.set L$set$1215,LCFI628-LCFI627
	.long L$set$1215
	.byte	0x93
	.uleb128 0x6
	.byte	0x94
	.uleb128 0x5
	.byte	0x4
	.set L$set$1216,LCFI629-LCFI628
	.long L$set$1216
	.byte	0xde
	.byte	0xdd
	.byte	0xd3
	.byte	0xd4
	.byte	0xe
	.uleb128 0
	.align	3
LEFDE585:
LSFDE587:
	.set L$set$1217,LEFDE587-LASFDE587
	.long L$set$1217
LASFDE587:
	.long	LASFDE587-EH_frame1
	.quad	LFB5352-.
	.set L$set$1218,LFE5352-LFB5352
	.quad L$set$1218
	.uleb128 0x8
	.quad	0
	.byte	0x4
	.set L$set$1219,LCFI630-LFB5352
	.long L$set$1219
	.byte	0xe
	.uleb128 0x10
	.byte	0x4
	.set L$set$1220,LCFI631-LCFI630
	.long L$set$1220
	.byte	0xe
	.uleb128 0
	.align	3
LEFDE587:
LSFDE589:
	.set L$set$1221,LEFDE589-LASFDE589
	.long L$set$1221
LASFDE589:
	.long	LASFDE589-EH_frame1
	.quad	LFB5353-.
	.set L$set$1222,LFE5353-LFB5353
	.quad L$set$1222
	.uleb128 0x8
	.quad	0
	.byte	0x4
	.set L$set$1223,LCFI632-LFB5353
	.long L$set$1223
	.byte	0xe
	.uleb128 0x20
	.byte	0x9d
	.uleb128 0x4
	.byte	0x9e
	.uleb128 0x3
	.byte	0x4
	.set L$set$1224,LCFI633-LCFI632
	.long L$set$1224
	.byte	0xde
	.byte	0xdd
	.byte	0xe
	.uleb128 0
	.align	3
LEFDE589:
LSFDE591:
	.set L$set$1225,LEFDE591-LASFDE591
	.long L$set$1225
LASFDE591:
	.long	LASFDE591-EH_frame1
	.quad	LFB5354-.
	.set L$set$1226,LFE5354-LFB5354
	.quad L$set$1226
	.uleb128 0x8
	.quad	0
	.byte	0x4
	.set L$set$1227,LCFI634-LFB5354
	.long L$set$1227
	.byte	0xe
	.uleb128 0x10
	.byte	0x4
	.set L$set$1228,LCFI635-LCFI634
	.long L$set$1228
	.byte	0xe
	.uleb128 0
	.align	3
LEFDE591:
LSFDE593:
	.set L$set$1229,LEFDE593-LASFDE593
	.long L$set$1229
LASFDE593:
	.long	LASFDE593-EH_frame1
	.quad	LFB5355-.
	.set L$set$1230,LFE5355-LFB5355
	.quad L$set$1230
	.uleb128 0x8
	.quad	0
	.byte	0x4
	.set L$set$1231,LCFI636-LFB5355
	.long L$set$1231
	.byte	0xe
	.uleb128 0x20
	.byte	0x9d
	.uleb128 0x4
	.byte	0x9e
	.uleb128 0x3
	.byte	0x4
	.set L$set$1232,LCFI637-LCFI636
	.long L$set$1232
	.byte	0xde
	.byte	0xdd
	.byte	0xe
	.uleb128 0
	.align	3
LEFDE593:
LSFDE595:
	.set L$set$1233,LEFDE595-LASFDE595
	.long L$set$1233
LASFDE595:
	.long	LASFDE595-EH_frame1
	.quad	LFB5357-.
	.set L$set$1234,LFE5357-LFB5357
	.quad L$set$1234
	.uleb128 0x8
	.quad	0
	.byte	0x4
	.set L$set$1235,LCFI638-LFB5357
	.long L$set$1235
	.byte	0xe
	.uleb128 0x10
	.byte	0x4
	.set L$set$1236,LCFI639-LCFI638
	.long L$set$1236
	.byte	0xe
	.uleb128 0
	.align	3
LEFDE595:
LSFDE597:
	.set L$set$1237,LEFDE597-LASFDE597
	.long L$set$1237
LASFDE597:
	.long	LASFDE597-EH_frame1
	.quad	LFB5356-.
	.set L$set$1238,LFE5356-LFB5356
	.quad L$set$1238
	.uleb128 0x8
	.quad	0
	.byte	0x4
	.set L$set$1239,LCFI640-LFB5356
	.long L$set$1239
	.byte	0xe
	.uleb128 0x30
	.byte	0x9d
	.uleb128 0x6
	.byte	0x9e
	.uleb128 0x5
	.byte	0x4
	.set L$set$1240,LCFI641-LCFI640
	.long L$set$1240
	.byte	0xde
	.byte	0xdd
	.byte	0xe
	.uleb128 0
	.align	3
LEFDE597:
LSFDE599:
	.set L$set$1241,LEFDE599-LASFDE599
	.long L$set$1241
LASFDE599:
	.long	LASFDE599-EH_frame1
	.quad	LFB5358-.
	.set L$set$1242,LFE5358-LFB5358
	.quad L$set$1242
	.uleb128 0x8
	.quad	0
	.byte	0x4
	.set L$set$1243,LCFI642-LFB5358
	.long L$set$1243
	.byte	0xe
	.uleb128 0x40
	.byte	0x9d
	.uleb128 0x8
	.byte	0x9e
	.uleb128 0x7
	.byte	0x4
	.set L$set$1244,LCFI643-LCFI642
	.long L$set$1244
	.byte	0x93
	.uleb128 0x6
	.byte	0x4
	.set L$set$1245,LCFI644-LCFI643
	.long L$set$1245
	.byte	0xde
	.byte	0xdd
	.byte	0xd3
	.byte	0xe
	.uleb128 0
	.align	3
LEFDE599:
LSFDE601:
	.set L$set$1246,LEFDE601-LASFDE601
	.long L$set$1246
LASFDE601:
	.long	LASFDE601-EH_frame1
	.quad	LFB5359-.
	.set L$set$1247,LFE5359-LFB5359
	.quad L$set$1247
	.uleb128 0x8
	.quad	0
	.byte	0x4
	.set L$set$1248,LCFI645-LFB5359
	.long L$set$1248
	.byte	0xe
	.uleb128 0x20
	.byte	0x9d
	.uleb128 0x4
	.byte	0x9e
	.uleb128 0x3
	.byte	0x4
	.set L$set$1249,LCFI646-LCFI645
	.long L$set$1249
	.byte	0xde
	.byte	0xdd
	.byte	0xe
	.uleb128 0
	.align	3
LEFDE601:
LSFDE603:
	.set L$set$1250,LEFDE603-LASFDE603
	.long L$set$1250
LASFDE603:
	.long	LASFDE603-EH_frame1
	.quad	LFB5362-.
	.set L$set$1251,LFE5362-LFB5362
	.quad L$set$1251
	.uleb128 0x8
	.quad	0
	.byte	0x4
	.set L$set$1252,LCFI647-LFB5362
	.long L$set$1252
	.byte	0xe
	.uleb128 0x10
	.byte	0x4
	.set L$set$1253,LCFI648-LCFI647
	.long L$set$1253
	.byte	0xe
	.uleb128 0
	.align	3
LEFDE603:
LSFDE605:
	.set L$set$1254,LEFDE605-LASFDE605
	.long L$set$1254
LASFDE605:
	.long	LASFDE605-EH_frame1
	.quad	LFB5363-.
	.set L$set$1255,LFE5363-LFB5363
	.quad L$set$1255
	.uleb128 0x8
	.quad	0
	.byte	0x4
	.set L$set$1256,LCFI649-LFB5363
	.long L$set$1256
	.byte	0xe
	.uleb128 0x10
	.byte	0x4
	.set L$set$1257,LCFI650-LCFI649
	.long L$set$1257
	.byte	0xe
	.uleb128 0
	.align	3
LEFDE605:
LSFDE607:
	.set L$set$1258,LEFDE607-LASFDE607
	.long L$set$1258
LASFDE607:
	.long	LASFDE607-EH_frame1
	.quad	LFB5364-.
	.set L$set$1259,LFE5364-LFB5364
	.quad L$set$1259
	.uleb128 0x8
	.quad	0
	.byte	0x4
	.set L$set$1260,LCFI651-LFB5364
	.long L$set$1260
	.byte	0xe
	.uleb128 0x30
	.byte	0x9d
	.uleb128 0x6
	.byte	0x9e
	.uleb128 0x5
	.byte	0x4
	.set L$set$1261,LCFI652-LCFI651
	.long L$set$1261
	.byte	0x93
	.uleb128 0x4
	.byte	0x4
	.set L$set$1262,LCFI653-LCFI652
	.long L$set$1262
	.byte	0xde
	.byte	0xdd
	.byte	0xd3
	.byte	0xe
	.uleb128 0
	.align	3
LEFDE607:
LSFDE609:
	.set L$set$1263,LEFDE609-LASFDE609
	.long L$set$1263
LASFDE609:
	.long	LASFDE609-EH_frame1
	.quad	LFB5365-.
	.set L$set$1264,LFE5365-LFB5365
	.quad L$set$1264
	.uleb128 0x8
	.quad	0
	.byte	0x4
	.set L$set$1265,LCFI654-LFB5365
	.long L$set$1265
	.byte	0xe
	.uleb128 0x10
	.byte	0x4
	.set L$set$1266,LCFI655-LCFI654
	.long L$set$1266
	.byte	0xe
	.uleb128 0
	.align	3
LEFDE609:
LSFDE611:
	.set L$set$1267,LEFDE611-LASFDE611
	.long L$set$1267
LASFDE611:
	.long	LASFDE611-EH_frame1
	.quad	LFB5366-.
	.set L$set$1268,LFE5366-LFB5366
	.quad L$set$1268
	.uleb128 0x8
	.quad	0
	.byte	0x4
	.set L$set$1269,LCFI656-LFB5366
	.long L$set$1269
	.byte	0xe
	.uleb128 0x30
	.byte	0x9d
	.uleb128 0x6
	.byte	0x9e
	.uleb128 0x5
	.byte	0x4
	.set L$set$1270,LCFI657-LCFI656
	.long L$set$1270
	.byte	0xde
	.byte	0xdd
	.byte	0xe
	.uleb128 0
	.align	3
LEFDE611:
LSFDE613:
	.set L$set$1271,LEFDE613-LASFDE613
	.long L$set$1271
LASFDE613:
	.long	LASFDE613-EH_frame1
	.quad	LFB5367-.
	.set L$set$1272,LFE5367-LFB5367
	.quad L$set$1272
	.uleb128 0x8
	.quad	0
	.byte	0x4
	.set L$set$1273,LCFI658-LFB5367
	.long L$set$1273
	.byte	0xe
	.uleb128 0x30
	.byte	0x9d
	.uleb128 0x6
	.byte	0x9e
	.uleb128 0x5
	.byte	0x4
	.set L$set$1274,LCFI659-LCFI658
	.long L$set$1274
	.byte	0xde
	.byte	0xdd
	.byte	0xe
	.uleb128 0
	.align	3
LEFDE613:
LSFDE615:
	.set L$set$1275,LEFDE615-LASFDE615
	.long L$set$1275
LASFDE615:
	.long	LASFDE615-EH_frame1
	.quad	LFB5368-.
	.set L$set$1276,LFE5368-LFB5368
	.quad L$set$1276
	.uleb128 0x8
	.quad	0
	.byte	0x4
	.set L$set$1277,LCFI660-LFB5368
	.long L$set$1277
	.byte	0xe
	.uleb128 0x30
	.byte	0x9d
	.uleb128 0x6
	.byte	0x9e
	.uleb128 0x5
	.byte	0x4
	.set L$set$1278,LCFI661-LCFI660
	.long L$set$1278
	.byte	0xde
	.byte	0xdd
	.byte	0xe
	.uleb128 0
	.align	3
LEFDE615:
LSFDE617:
	.set L$set$1279,LEFDE617-LASFDE617
	.long L$set$1279
LASFDE617:
	.long	LASFDE617-EH_frame1
	.quad	LFB5369-.
	.set L$set$1280,LFE5369-LFB5369
	.quad L$set$1280
	.uleb128 0x8
	.quad	0
	.byte	0x4
	.set L$set$1281,LCFI662-LFB5369
	.long L$set$1281
	.byte	0xe
	.uleb128 0x30
	.byte	0x9d
	.uleb128 0x6
	.byte	0x9e
	.uleb128 0x5
	.byte	0x4
	.set L$set$1282,LCFI663-LCFI662
	.long L$set$1282
	.byte	0x93
	.uleb128 0x4
	.byte	0x4
	.set L$set$1283,LCFI664-LCFI663
	.long L$set$1283
	.byte	0xde
	.byte	0xdd
	.byte	0xd3
	.byte	0xe
	.uleb128 0
	.align	3
LEFDE617:
LSFDE619:
	.set L$set$1284,LEFDE619-LASFDE619
	.long L$set$1284
LASFDE619:
	.long	LASFDE619-EH_frame1
	.quad	LFB5370-.
	.set L$set$1285,LFE5370-LFB5370
	.quad L$set$1285
	.uleb128 0x8
	.quad	0
	.byte	0x4
	.set L$set$1286,LCFI665-LFB5370
	.long L$set$1286
	.byte	0xe
	.uleb128 0x20
	.byte	0x9d
	.uleb128 0x4
	.byte	0x9e
	.uleb128 0x3
	.byte	0x4
	.set L$set$1287,LCFI666-LCFI665
	.long L$set$1287
	.byte	0xde
	.byte	0xdd
	.byte	0xe
	.uleb128 0
	.align	3
LEFDE619:
LSFDE621:
	.set L$set$1288,LEFDE621-LASFDE621
	.long L$set$1288
LASFDE621:
	.long	LASFDE621-EH_frame1
	.quad	LFB5372-.
	.set L$set$1289,LFE5372-LFB5372
	.quad L$set$1289
	.uleb128 0x8
	.quad	0
	.byte	0x4
	.set L$set$1290,LCFI667-LFB5372
	.long L$set$1290
	.byte	0xe
	.uleb128 0x20
	.byte	0x9d
	.uleb128 0x4
	.byte	0x9e
	.uleb128 0x3
	.byte	0x4
	.set L$set$1291,LCFI668-LCFI667
	.long L$set$1291
	.byte	0xde
	.byte	0xdd
	.byte	0xe
	.uleb128 0
	.align	3
LEFDE621:
LSFDE623:
	.set L$set$1292,LEFDE623-LASFDE623
	.long L$set$1292
LASFDE623:
	.long	LASFDE623-EH_frame1
	.quad	LFB5376-.
	.set L$set$1293,LFE5376-LFB5376
	.quad L$set$1293
	.uleb128 0x8
	.quad	0
	.byte	0x4
	.set L$set$1294,LCFI669-LFB5376
	.long L$set$1294
	.byte	0xe
	.uleb128 0x10
	.byte	0x4
	.set L$set$1295,LCFI670-LCFI669
	.long L$set$1295
	.byte	0xe
	.uleb128 0
	.align	3
LEFDE623:
LSFDE625:
	.set L$set$1296,LEFDE625-LASFDE625
	.long L$set$1296
LASFDE625:
	.long	LASFDE625-EH_frame1
	.quad	LFB5377-.
	.set L$set$1297,LFE5377-LFB5377
	.quad L$set$1297
	.uleb128 0x8
	.quad	LLSDA5377-.
	.byte	0x4
	.set L$set$1298,LCFI671-LFB5377
	.long L$set$1298
	.byte	0xe
	.uleb128 0x70
	.byte	0x9d
	.uleb128 0xe
	.byte	0x9e
	.uleb128 0xd
	.byte	0x4
	.set L$set$1299,LCFI672-LCFI671
	.long L$set$1299
	.byte	0x93
	.uleb128 0xc
	.byte	0x4
	.set L$set$1300,LCFI673-LCFI672
	.long L$set$1300
	.byte	0xde
	.byte	0xdd
	.byte	0xd3
	.byte	0xe
	.uleb128 0
	.align	3
LEFDE625:
LSFDE627:
	.set L$set$1301,LEFDE627-LASFDE627
	.long L$set$1301
LASFDE627:
	.long	LASFDE627-EH_frame1
	.quad	LFB5378-.
	.set L$set$1302,LFE5378-LFB5378
	.quad L$set$1302
	.uleb128 0x8
	.quad	0
	.byte	0x4
	.set L$set$1303,LCFI674-LFB5378
	.long L$set$1303
	.byte	0xe
	.uleb128 0x30
	.byte	0x9d
	.uleb128 0x6
	.byte	0x9e
	.uleb128 0x5
	.byte	0x4
	.set L$set$1304,LCFI675-LCFI674
	.long L$set$1304
	.byte	0x93
	.uleb128 0x4
	.byte	0x4
	.set L$set$1305,LCFI676-LCFI675
	.long L$set$1305
	.byte	0xde
	.byte	0xdd
	.byte	0xd3
	.byte	0xe
	.uleb128 0
	.align	3
LEFDE627:
LSFDE629:
	.set L$set$1306,LEFDE629-LASFDE629
	.long L$set$1306
LASFDE629:
	.long	LASFDE629-EH_frame1
	.quad	LFB5379-.
	.set L$set$1307,LFE5379-LFB5379
	.quad L$set$1307
	.uleb128 0x8
	.quad	0
	.byte	0x4
	.set L$set$1308,LCFI677-LFB5379
	.long L$set$1308
	.byte	0xe
	.uleb128 0x10
	.byte	0x4
	.set L$set$1309,LCFI678-LCFI677
	.long L$set$1309
	.byte	0xe
	.uleb128 0
	.align	3
LEFDE629:
LSFDE631:
	.set L$set$1310,LEFDE631-LASFDE631
	.long L$set$1310
LASFDE631:
	.long	LASFDE631-EH_frame1
	.quad	LFB5381-.
	.set L$set$1311,LFE5381-LFB5381
	.quad L$set$1311
	.uleb128 0x8
	.quad	0
	.byte	0x4
	.set L$set$1312,LCFI679-LFB5381
	.long L$set$1312
	.byte	0xe
	.uleb128 0x30
	.byte	0x9d
	.uleb128 0x6
	.byte	0x9e
	.uleb128 0x5
	.byte	0x4
	.set L$set$1313,LCFI680-LCFI679
	.long L$set$1313
	.byte	0x93
	.uleb128 0x4
	.byte	0x4
	.set L$set$1314,LCFI681-LCFI680
	.long L$set$1314
	.byte	0xde
	.byte	0xdd
	.byte	0xd3
	.byte	0xe
	.uleb128 0
	.align	3
LEFDE631:
LSFDE633:
	.set L$set$1315,LEFDE633-LASFDE633
	.long L$set$1315
LASFDE633:
	.long	LASFDE633-EH_frame1
	.quad	LFB5383-.
	.set L$set$1316,LFE5383-LFB5383
	.quad L$set$1316
	.uleb128 0x8
	.quad	0
	.byte	0x4
	.set L$set$1317,LCFI682-LFB5383
	.long L$set$1317
	.byte	0xe
	.uleb128 0x30
	.byte	0x9d
	.uleb128 0x6
	.byte	0x9e
	.uleb128 0x5
	.byte	0x4
	.set L$set$1318,LCFI683-LCFI682
	.long L$set$1318
	.byte	0xde
	.byte	0xdd
	.byte	0xe
	.uleb128 0
	.align	3
LEFDE633:
LSFDE635:
	.set L$set$1319,LEFDE635-LASFDE635
	.long L$set$1319
LASFDE635:
	.long	LASFDE635-EH_frame1
	.quad	LFB5384-.
	.set L$set$1320,LFE5384-LFB5384
	.quad L$set$1320
	.uleb128 0x8
	.quad	0
	.byte	0x4
	.set L$set$1321,LCFI684-LFB5384
	.long L$set$1321
	.byte	0xe
	.uleb128 0x30
	.byte	0x9d
	.uleb128 0x6
	.byte	0x9e
	.uleb128 0x5
	.byte	0x4
	.set L$set$1322,LCFI685-LCFI684
	.long L$set$1322
	.byte	0xde
	.byte	0xdd
	.byte	0xe
	.uleb128 0
	.align	3
LEFDE635:
LSFDE637:
	.set L$set$1323,LEFDE637-LASFDE637
	.long L$set$1323
LASFDE637:
	.long	LASFDE637-EH_frame1
	.quad	LFB5385-.
	.set L$set$1324,LFE5385-LFB5385
	.quad L$set$1324
	.uleb128 0x8
	.quad	0
	.byte	0x4
	.set L$set$1325,LCFI686-LFB5385
	.long L$set$1325
	.byte	0xe
	.uleb128 0x30
	.byte	0x9d
	.uleb128 0x6
	.byte	0x9e
	.uleb128 0x5
	.byte	0x4
	.set L$set$1326,LCFI687-LCFI686
	.long L$set$1326
	.byte	0xde
	.byte	0xdd
	.byte	0xe
	.uleb128 0
	.align	3
LEFDE637:
LSFDE639:
	.set L$set$1327,LEFDE639-LASFDE639
	.long L$set$1327
LASFDE639:
	.long	LASFDE639-EH_frame1
	.quad	LFB5386-.
	.set L$set$1328,LFE5386-LFB5386
	.quad L$set$1328
	.uleb128 0x8
	.quad	0
	.byte	0x4
	.set L$set$1329,LCFI688-LFB5386
	.long L$set$1329
	.byte	0xe
	.uleb128 0x20
	.byte	0x9d
	.uleb128 0x4
	.byte	0x9e
	.uleb128 0x3
	.byte	0x4
	.set L$set$1330,LCFI689-LCFI688
	.long L$set$1330
	.byte	0xde
	.byte	0xdd
	.byte	0xe
	.uleb128 0
	.align	3
LEFDE639:
LSFDE641:
	.set L$set$1331,LEFDE641-LASFDE641
	.long L$set$1331
LASFDE641:
	.long	LASFDE641-EH_frame1
	.quad	LFB5387-.
	.set L$set$1332,LFE5387-LFB5387
	.quad L$set$1332
	.uleb128 0x8
	.quad	0
	.byte	0x4
	.set L$set$1333,LCFI690-LFB5387
	.long L$set$1333
	.byte	0xe
	.uleb128 0x10
	.byte	0x4
	.set L$set$1334,LCFI691-LCFI690
	.long L$set$1334
	.byte	0xe
	.uleb128 0
	.align	3
LEFDE641:
LSFDE643:
	.set L$set$1335,LEFDE643-LASFDE643
	.long L$set$1335
LASFDE643:
	.long	LASFDE643-EH_frame1
	.quad	LFB5390-.
	.set L$set$1336,LFE5390-LFB5390
	.quad L$set$1336
	.uleb128 0x8
	.quad	0
	.byte	0x4
	.set L$set$1337,LCFI692-LFB5390
	.long L$set$1337
	.byte	0xe
	.uleb128 0x20
	.byte	0x9d
	.uleb128 0x4
	.byte	0x9e
	.uleb128 0x3
	.byte	0x4
	.set L$set$1338,LCFI693-LCFI692
	.long L$set$1338
	.byte	0xde
	.byte	0xdd
	.byte	0xe
	.uleb128 0
	.align	3
LEFDE643:
LSFDE645:
	.set L$set$1339,LEFDE645-LASFDE645
	.long L$set$1339
LASFDE645:
	.long	LASFDE645-EH_frame1
	.quad	LFB5391-.
	.set L$set$1340,LFE5391-LFB5391
	.quad L$set$1340
	.uleb128 0x8
	.quad	LLSDA5391-.
	.byte	0x4
	.set L$set$1341,LCFI694-LFB5391
	.long L$set$1341
	.byte	0xe
	.uleb128 0x50
	.byte	0x9d
	.uleb128 0xa
	.byte	0x9e
	.uleb128 0x9
	.byte	0x4
	.set L$set$1342,LCFI695-LCFI694
	.long L$set$1342
	.byte	0x93
	.uleb128 0x8
	.byte	0x4
	.set L$set$1343,LCFI696-LCFI695
	.long L$set$1343
	.byte	0xde
	.byte	0xdd
	.byte	0xd3
	.byte	0xe
	.uleb128 0
	.align	3
LEFDE645:
LSFDE647:
	.set L$set$1344,LEFDE647-LASFDE647
	.long L$set$1344
LASFDE647:
	.long	LASFDE647-EH_frame1
	.quad	LFB5392-.
	.set L$set$1345,LFE5392-LFB5392
	.quad L$set$1345
	.uleb128 0x8
	.quad	0
	.byte	0x4
	.set L$set$1346,LCFI697-LFB5392
	.long L$set$1346
	.byte	0xe
	.uleb128 0x30
	.byte	0x9d
	.uleb128 0x6
	.byte	0x9e
	.uleb128 0x5
	.byte	0x4
	.set L$set$1347,LCFI698-LCFI697
	.long L$set$1347
	.byte	0x93
	.uleb128 0x4
	.byte	0x4
	.set L$set$1348,LCFI699-LCFI698
	.long L$set$1348
	.byte	0xde
	.byte	0xdd
	.byte	0xd3
	.byte	0xe
	.uleb128 0
	.align	3
LEFDE647:
LSFDE649:
	.set L$set$1349,LEFDE649-LASFDE649
	.long L$set$1349
LASFDE649:
	.long	LASFDE649-EH_frame1
	.quad	LFB5395-.
	.set L$set$1350,LFE5395-LFB5395
	.quad L$set$1350
	.uleb128 0x8
	.quad	0
	.byte	0x4
	.set L$set$1351,LCFI700-LFB5395
	.long L$set$1351
	.byte	0xe
	.uleb128 0x10
	.byte	0x4
	.set L$set$1352,LCFI701-LCFI700
	.long L$set$1352
	.byte	0xe
	.uleb128 0
	.align	3
LEFDE649:
LSFDE651:
	.set L$set$1353,LEFDE651-LASFDE651
	.long L$set$1353
LASFDE651:
	.long	LASFDE651-EH_frame1
	.quad	LFB5396-.
	.set L$set$1354,LFE5396-LFB5396
	.quad L$set$1354
	.uleb128 0x8
	.quad	0
	.byte	0x4
	.set L$set$1355,LCFI702-LFB5396
	.long L$set$1355
	.byte	0xe
	.uleb128 0x40
	.byte	0x9d
	.uleb128 0x8
	.byte	0x9e
	.uleb128 0x7
	.byte	0x4
	.set L$set$1356,LCFI703-LCFI702
	.long L$set$1356
	.byte	0xde
	.byte	0xdd
	.byte	0xe
	.uleb128 0
	.align	3
LEFDE651:
LSFDE653:
	.set L$set$1357,LEFDE653-LASFDE653
	.long L$set$1357
LASFDE653:
	.long	LASFDE653-EH_frame1
	.quad	LFB5398-.
	.set L$set$1358,LFE5398-LFB5398
	.quad L$set$1358
	.uleb128 0x8
	.quad	0
	.byte	0x4
	.set L$set$1359,LCFI704-LFB5398
	.long L$set$1359
	.byte	0xe
	.uleb128 0x30
	.byte	0x9d
	.uleb128 0x6
	.byte	0x9e
	.uleb128 0x5
	.byte	0x4
	.set L$set$1360,LCFI705-LCFI704
	.long L$set$1360
	.byte	0x93
	.uleb128 0x4
	.byte	0x4
	.set L$set$1361,LCFI706-LCFI705
	.long L$set$1361
	.byte	0xde
	.byte	0xdd
	.byte	0xd3
	.byte	0xe
	.uleb128 0
	.align	3
LEFDE653:
LSFDE655:
	.set L$set$1362,LEFDE655-LASFDE655
	.long L$set$1362
LASFDE655:
	.long	LASFDE655-EH_frame1
	.quad	LFB5399-.
	.set L$set$1363,LFE5399-LFB5399
	.quad L$set$1363
	.uleb128 0x8
	.quad	0
	.byte	0x4
	.set L$set$1364,LCFI707-LFB5399
	.long L$set$1364
	.byte	0xe
	.uleb128 0x10
	.byte	0x4
	.set L$set$1365,LCFI708-LCFI707
	.long L$set$1365
	.byte	0xe
	.uleb128 0
	.align	3
LEFDE655:
LSFDE657:
	.set L$set$1366,LEFDE657-LASFDE657
	.long L$set$1366
LASFDE657:
	.long	LASFDE657-EH_frame1
	.quad	LFB5400-.
	.set L$set$1367,LFE5400-LFB5400
	.quad L$set$1367
	.uleb128 0x8
	.quad	0
	.byte	0x4
	.set L$set$1368,LCFI709-LFB5400
	.long L$set$1368
	.byte	0xe
	.uleb128 0x10
	.byte	0x4
	.set L$set$1369,LCFI710-LCFI709
	.long L$set$1369
	.byte	0xe
	.uleb128 0
	.align	3
LEFDE657:
LSFDE659:
	.set L$set$1370,LEFDE659-LASFDE659
	.long L$set$1370
LASFDE659:
	.long	LASFDE659-EH_frame1
	.quad	LFB5402-.
	.set L$set$1371,LFE5402-LFB5402
	.quad L$set$1371
	.uleb128 0x8
	.quad	0
	.byte	0x4
	.set L$set$1372,LCFI711-LFB5402
	.long L$set$1372
	.byte	0xe
	.uleb128 0x20
	.byte	0x9d
	.uleb128 0x4
	.byte	0x9e
	.uleb128 0x3
	.byte	0x4
	.set L$set$1373,LCFI712-LCFI711
	.long L$set$1373
	.byte	0xde
	.byte	0xdd
	.byte	0xe
	.uleb128 0
	.align	3
LEFDE659:
LSFDE661:
	.set L$set$1374,LEFDE661-LASFDE661
	.long L$set$1374
LASFDE661:
	.long	LASFDE661-EH_frame1
	.quad	LFB5404-.
	.set L$set$1375,LFE5404-LFB5404
	.quad L$set$1375
	.uleb128 0x8
	.quad	0
	.byte	0x4
	.set L$set$1376,LCFI713-LFB5404
	.long L$set$1376
	.byte	0xe
	.uleb128 0x20
	.byte	0x9d
	.uleb128 0x4
	.byte	0x9e
	.uleb128 0x3
	.byte	0x4
	.set L$set$1377,LCFI714-LCFI713
	.long L$set$1377
	.byte	0xde
	.byte	0xdd
	.byte	0xe
	.uleb128 0
	.align	3
LEFDE661:
LSFDE663:
	.set L$set$1378,LEFDE663-LASFDE663
	.long L$set$1378
LASFDE663:
	.long	LASFDE663-EH_frame1
	.quad	LFB5405-.
	.set L$set$1379,LFE5405-LFB5405
	.quad L$set$1379
	.uleb128 0x8
	.quad	0
	.byte	0x4
	.set L$set$1380,LCFI715-LFB5405
	.long L$set$1380
	.byte	0xe
	.uleb128 0x30
	.byte	0x9d
	.uleb128 0x6
	.byte	0x9e
	.uleb128 0x5
	.byte	0x4
	.set L$set$1381,LCFI716-LCFI715
	.long L$set$1381
	.byte	0x93
	.uleb128 0x4
	.byte	0x4
	.set L$set$1382,LCFI717-LCFI716
	.long L$set$1382
	.byte	0xde
	.byte	0xdd
	.byte	0xd3
	.byte	0xe
	.uleb128 0
	.align	3
LEFDE663:
LSFDE665:
	.set L$set$1383,LEFDE665-LASFDE665
	.long L$set$1383
LASFDE665:
	.long	LASFDE665-EH_frame1
	.quad	LFB5406-.
	.set L$set$1384,LFE5406-LFB5406
	.quad L$set$1384
	.uleb128 0x8
	.quad	0
	.byte	0x4
	.set L$set$1385,LCFI718-LFB5406
	.long L$set$1385
	.byte	0xe
	.uleb128 0x20
	.byte	0x4
	.set L$set$1386,LCFI719-LCFI718
	.long L$set$1386
	.byte	0xe
	.uleb128 0
	.align	3
LEFDE665:
LSFDE667:
	.set L$set$1387,LEFDE667-LASFDE667
	.long L$set$1387
LASFDE667:
	.long	LASFDE667-EH_frame1
	.quad	LFB5407-.
	.set L$set$1388,LFE5407-LFB5407
	.quad L$set$1388
	.uleb128 0x8
	.quad	0
	.byte	0x4
	.set L$set$1389,LCFI720-LFB5407
	.long L$set$1389
	.byte	0xe
	.uleb128 0x20
	.byte	0x9d
	.uleb128 0x4
	.byte	0x9e
	.uleb128 0x3
	.byte	0x4
	.set L$set$1390,LCFI721-LCFI720
	.long L$set$1390
	.byte	0xde
	.byte	0xdd
	.byte	0xe
	.uleb128 0
	.align	3
LEFDE667:
LSFDE669:
	.set L$set$1391,LEFDE669-LASFDE669
	.long L$set$1391
LASFDE669:
	.long	LASFDE669-EH_frame1
	.quad	LFB5408-.
	.set L$set$1392,LFE5408-LFB5408
	.quad L$set$1392
	.uleb128 0x8
	.quad	0
	.byte	0x4
	.set L$set$1393,LCFI722-LFB5408
	.long L$set$1393
	.byte	0xe
	.uleb128 0x30
	.byte	0x9d
	.uleb128 0x6
	.byte	0x9e
	.uleb128 0x5
	.byte	0x4
	.set L$set$1394,LCFI723-LCFI722
	.long L$set$1394
	.byte	0x93
	.uleb128 0x4
	.byte	0x4
	.set L$set$1395,LCFI724-LCFI723
	.long L$set$1395
	.byte	0xde
	.byte	0xdd
	.byte	0xd3
	.byte	0xe
	.uleb128 0
	.align	3
LEFDE669:
LSFDE671:
	.set L$set$1396,LEFDE671-LASFDE671
	.long L$set$1396
LASFDE671:
	.long	LASFDE671-EH_frame1
	.quad	LFB5409-.
	.set L$set$1397,LFE5409-LFB5409
	.quad L$set$1397
	.uleb128 0x8
	.quad	0
	.byte	0x4
	.set L$set$1398,LCFI725-LFB5409
	.long L$set$1398
	.byte	0xe
	.uleb128 0x10
	.byte	0x4
	.set L$set$1399,LCFI726-LCFI725
	.long L$set$1399
	.byte	0xe
	.uleb128 0
	.align	3
LEFDE671:
LSFDE673:
	.set L$set$1400,LEFDE673-LASFDE673
	.long L$set$1400
LASFDE673:
	.long	LASFDE673-EH_frame1
	.quad	LFB5412-.
	.set L$set$1401,LFE5412-LFB5412
	.quad L$set$1401
	.uleb128 0x8
	.quad	0
	.byte	0x4
	.set L$set$1402,LCFI727-LFB5412
	.long L$set$1402
	.byte	0xe
	.uleb128 0x20
	.byte	0x9d
	.uleb128 0x4
	.byte	0x9e
	.uleb128 0x3
	.byte	0x4
	.set L$set$1403,LCFI728-LCFI727
	.long L$set$1403
	.byte	0xde
	.byte	0xdd
	.byte	0xe
	.uleb128 0
	.align	3
LEFDE673:
LSFDE675:
	.set L$set$1404,LEFDE675-LASFDE675
	.long L$set$1404
LASFDE675:
	.long	LASFDE675-EH_frame1
	.quad	LFB5415-.
	.set L$set$1405,LFE5415-LFB5415
	.quad L$set$1405
	.uleb128 0x8
	.quad	0
	.byte	0x4
	.set L$set$1406,LCFI729-LFB5415
	.long L$set$1406
	.byte	0xe
	.uleb128 0x10
	.byte	0x4
	.set L$set$1407,LCFI730-LCFI729
	.long L$set$1407
	.byte	0xe
	.uleb128 0
	.align	3
LEFDE675:
LSFDE677:
	.set L$set$1408,LEFDE677-LASFDE677
	.long L$set$1408
LASFDE677:
	.long	LASFDE677-EH_frame1
	.quad	LFB5416-.
	.set L$set$1409,LFE5416-LFB5416
	.quad L$set$1409
	.uleb128 0x8
	.quad	0
	.byte	0x4
	.set L$set$1410,LCFI731-LFB5416
	.long L$set$1410
	.byte	0xe
	.uleb128 0x10
	.byte	0x4
	.set L$set$1411,LCFI732-LCFI731
	.long L$set$1411
	.byte	0xe
	.uleb128 0
	.align	3
LEFDE677:
LSFDE679:
	.set L$set$1412,LEFDE679-LASFDE679
	.long L$set$1412
LASFDE679:
	.long	LASFDE679-EH_frame1
	.quad	LFB5417-.
	.set L$set$1413,LFE5417-LFB5417
	.quad L$set$1413
	.uleb128 0x8
	.quad	0
	.byte	0x4
	.set L$set$1414,LCFI733-LFB5417
	.long L$set$1414
	.byte	0xe
	.uleb128 0x10
	.byte	0x4
	.set L$set$1415,LCFI734-LCFI733
	.long L$set$1415
	.byte	0xe
	.uleb128 0
	.align	3
LEFDE679:
LSFDE681:
	.set L$set$1416,LEFDE681-LASFDE681
	.long L$set$1416
LASFDE681:
	.long	LASFDE681-EH_frame1
	.quad	LFB5418-.
	.set L$set$1417,LFE5418-LFB5418
	.quad L$set$1417
	.uleb128 0x8
	.quad	0
	.byte	0x4
	.set L$set$1418,LCFI735-LFB5418
	.long L$set$1418
	.byte	0xe
	.uleb128 0x20
	.byte	0x9d
	.uleb128 0x4
	.byte	0x9e
	.uleb128 0x3
	.byte	0x4
	.set L$set$1419,LCFI736-LCFI735
	.long L$set$1419
	.byte	0xde
	.byte	0xdd
	.byte	0xe
	.uleb128 0
	.align	3
LEFDE681:
LSFDE683:
	.set L$set$1420,LEFDE683-LASFDE683
	.long L$set$1420
LASFDE683:
	.long	LASFDE683-EH_frame1
	.quad	LFB5419-.
	.set L$set$1421,LFE5419-LFB5419
	.quad L$set$1421
	.uleb128 0x8
	.quad	0
	.byte	0x4
	.set L$set$1422,LCFI737-LFB5419
	.long L$set$1422
	.byte	0xe
	.uleb128 0x30
	.byte	0x9d
	.uleb128 0x6
	.byte	0x9e
	.uleb128 0x5
	.byte	0x4
	.set L$set$1423,LCFI738-LCFI737
	.long L$set$1423
	.byte	0x93
	.uleb128 0x4
	.byte	0x4
	.set L$set$1424,LCFI739-LCFI738
	.long L$set$1424
	.byte	0xde
	.byte	0xdd
	.byte	0xd3
	.byte	0xe
	.uleb128 0
	.align	3
LEFDE683:
LSFDE685:
	.set L$set$1425,LEFDE685-LASFDE685
	.long L$set$1425
LASFDE685:
	.long	LASFDE685-EH_frame1
	.quad	LFB5420-.
	.set L$set$1426,LFE5420-LFB5420
	.quad L$set$1426
	.uleb128 0x8
	.quad	0
	.byte	0x4
	.set L$set$1427,LCFI740-LFB5420
	.long L$set$1427
	.byte	0xe
	.uleb128 0x10
	.byte	0x4
	.set L$set$1428,LCFI741-LCFI740
	.long L$set$1428
	.byte	0xe
	.uleb128 0
	.align	3
LEFDE685:
LSFDE687:
	.set L$set$1429,LEFDE687-LASFDE687
	.long L$set$1429
LASFDE687:
	.long	LASFDE687-EH_frame1
	.quad	LFB5421-.
	.set L$set$1430,LFE5421-LFB5421
	.quad L$set$1430
	.uleb128 0x8
	.quad	0
	.byte	0x4
	.set L$set$1431,LCFI742-LFB5421
	.long L$set$1431
	.byte	0xe
	.uleb128 0x20
	.byte	0x9d
	.uleb128 0x4
	.byte	0x9e
	.uleb128 0x3
	.byte	0x4
	.set L$set$1432,LCFI743-LCFI742
	.long L$set$1432
	.byte	0xde
	.byte	0xdd
	.byte	0xe
	.uleb128 0
	.align	3
LEFDE687:
LSFDE689:
	.set L$set$1433,LEFDE689-LASFDE689
	.long L$set$1433
LASFDE689:
	.long	LASFDE689-EH_frame1
	.quad	LFB5422-.
	.set L$set$1434,LFE5422-LFB5422
	.quad L$set$1434
	.uleb128 0x8
	.quad	0
	.byte	0x4
	.set L$set$1435,LCFI744-LFB5422
	.long L$set$1435
	.byte	0xe
	.uleb128 0x10
	.byte	0x4
	.set L$set$1436,LCFI745-LCFI744
	.long L$set$1436
	.byte	0xe
	.uleb128 0
	.align	3
LEFDE689:
LSFDE691:
	.set L$set$1437,LEFDE691-LASFDE691
	.long L$set$1437
LASFDE691:
	.long	LASFDE691-EH_frame1
	.quad	LFB5423-.
	.set L$set$1438,LFE5423-LFB5423
	.quad L$set$1438
	.uleb128 0x8
	.quad	0
	.byte	0x4
	.set L$set$1439,LCFI746-LFB5423
	.long L$set$1439
	.byte	0xe
	.uleb128 0x50
	.byte	0x9d
	.uleb128 0xa
	.byte	0x9e
	.uleb128 0x9
	.byte	0x4
	.set L$set$1440,LCFI747-LCFI746
	.long L$set$1440
	.byte	0x93
	.uleb128 0x8
	.byte	0x4
	.set L$set$1441,LCFI748-LCFI747
	.long L$set$1441
	.byte	0xde
	.byte	0xdd
	.byte	0xd3
	.byte	0xe
	.uleb128 0
	.align	3
LEFDE691:
LSFDE693:
	.set L$set$1442,LEFDE693-LASFDE693
	.long L$set$1442
LASFDE693:
	.long	LASFDE693-EH_frame1
	.quad	LFB5425-.
	.set L$set$1443,LFE5425-LFB5425
	.quad L$set$1443
	.uleb128 0x8
	.quad	0
	.byte	0x4
	.set L$set$1444,LCFI749-LFB5425
	.long L$set$1444
	.byte	0xe
	.uleb128 0x20
	.byte	0x9d
	.uleb128 0x4
	.byte	0x9e
	.uleb128 0x3
	.byte	0x4
	.set L$set$1445,LCFI750-LCFI749
	.long L$set$1445
	.byte	0xde
	.byte	0xdd
	.byte	0xe
	.uleb128 0
	.align	3
LEFDE693:
LSFDE695:
	.set L$set$1446,LEFDE695-LASFDE695
	.long L$set$1446
LASFDE695:
	.long	LASFDE695-EH_frame1
	.quad	LFB5426-.
	.set L$set$1447,LFE5426-LFB5426
	.quad L$set$1447
	.uleb128 0x8
	.quad	0
	.byte	0x4
	.set L$set$1448,LCFI751-LFB5426
	.long L$set$1448
	.byte	0xe
	.uleb128 0x20
	.byte	0x9d
	.uleb128 0x4
	.byte	0x9e
	.uleb128 0x3
	.byte	0x4
	.set L$set$1449,LCFI752-LCFI751
	.long L$set$1449
	.byte	0xde
	.byte	0xdd
	.byte	0xe
	.uleb128 0
	.align	3
LEFDE695:
LSFDE697:
	.set L$set$1450,LEFDE697-LASFDE697
	.long L$set$1450
LASFDE697:
	.long	LASFDE697-EH_frame1
	.quad	LFB5427-.
	.set L$set$1451,LFE5427-LFB5427
	.quad L$set$1451
	.uleb128 0x8
	.quad	0
	.byte	0x4
	.set L$set$1452,LCFI753-LFB5427
	.long L$set$1452
	.byte	0xe
	.uleb128 0x10
	.byte	0x4
	.set L$set$1453,LCFI754-LCFI753
	.long L$set$1453
	.byte	0xe
	.uleb128 0
	.align	3
LEFDE697:
LSFDE699:
	.set L$set$1454,LEFDE699-LASFDE699
	.long L$set$1454
LASFDE699:
	.long	LASFDE699-EH_frame1
	.quad	LFB5428-.
	.set L$set$1455,LFE5428-LFB5428
	.quad L$set$1455
	.uleb128 0x8
	.quad	0
	.byte	0x4
	.set L$set$1456,LCFI755-LFB5428
	.long L$set$1456
	.byte	0xe
	.uleb128 0x40
	.byte	0x9d
	.uleb128 0x8
	.byte	0x9e
	.uleb128 0x7
	.byte	0x4
	.set L$set$1457,LCFI756-LCFI755
	.long L$set$1457
	.byte	0x93
	.uleb128 0x6
	.byte	0x94
	.uleb128 0x5
	.byte	0x4
	.set L$set$1458,LCFI757-LCFI756
	.long L$set$1458
	.byte	0xde
	.byte	0xdd
	.byte	0xd3
	.byte	0xd4
	.byte	0xe
	.uleb128 0
	.align	3
LEFDE699:
LSFDE701:
	.set L$set$1459,LEFDE701-LASFDE701
	.long L$set$1459
LASFDE701:
	.long	LASFDE701-EH_frame1
	.quad	LFB5429-.
	.set L$set$1460,LFE5429-LFB5429
	.quad L$set$1460
	.uleb128 0x8
	.quad	0
	.byte	0x4
	.set L$set$1461,LCFI758-LFB5429
	.long L$set$1461
	.byte	0xe
	.uleb128 0x30
	.byte	0x9d
	.uleb128 0x6
	.byte	0x9e
	.uleb128 0x5
	.byte	0x4
	.set L$set$1462,LCFI759-LCFI758
	.long L$set$1462
	.byte	0x93
	.uleb128 0x4
	.byte	0x94
	.uleb128 0x3
	.byte	0x4
	.set L$set$1463,LCFI760-LCFI759
	.long L$set$1463
	.byte	0xde
	.byte	0xdd
	.byte	0xd3
	.byte	0xd4
	.byte	0xe
	.uleb128 0
	.align	3
LEFDE701:
LSFDE703:
	.set L$set$1464,LEFDE703-LASFDE703
	.long L$set$1464
LASFDE703:
	.long	LASFDE703-EH_frame1
	.quad	LFB5431-.
	.set L$set$1465,LFE5431-LFB5431
	.quad L$set$1465
	.uleb128 0x8
	.quad	0
	.byte	0x4
	.set L$set$1466,LCFI761-LFB5431
	.long L$set$1466
	.byte	0xe
	.uleb128 0x20
	.byte	0x9d
	.uleb128 0x4
	.byte	0x9e
	.uleb128 0x3
	.byte	0x4
	.set L$set$1467,LCFI762-LCFI761
	.long L$set$1467
	.byte	0xde
	.byte	0xdd
	.byte	0xe
	.uleb128 0
	.align	3
LEFDE703:
LSFDE705:
	.set L$set$1468,LEFDE705-LASFDE705
	.long L$set$1468
LASFDE705:
	.long	LASFDE705-EH_frame1
	.quad	LFB5432-.
	.set L$set$1469,LFE5432-LFB5432
	.quad L$set$1469
	.uleb128 0x8
	.quad	0
	.byte	0x4
	.set L$set$1470,LCFI763-LFB5432
	.long L$set$1470
	.byte	0xe
	.uleb128 0x20
	.byte	0x9d
	.uleb128 0x4
	.byte	0x9e
	.uleb128 0x3
	.byte	0x4
	.set L$set$1471,LCFI764-LCFI763
	.long L$set$1471
	.byte	0xde
	.byte	0xdd
	.byte	0xe
	.uleb128 0
	.align	3
LEFDE705:
LSFDE707:
	.set L$set$1472,LEFDE707-LASFDE707
	.long L$set$1472
LASFDE707:
	.long	LASFDE707-EH_frame1
	.quad	LFB5433-.
	.set L$set$1473,LFE5433-LFB5433
	.quad L$set$1473
	.uleb128 0x8
	.quad	0
	.byte	0x4
	.set L$set$1474,LCFI765-LFB5433
	.long L$set$1474
	.byte	0xe
	.uleb128 0x20
	.byte	0x9d
	.uleb128 0x4
	.byte	0x9e
	.uleb128 0x3
	.byte	0x4
	.set L$set$1475,LCFI766-LCFI765
	.long L$set$1475
	.byte	0xde
	.byte	0xdd
	.byte	0xe
	.uleb128 0
	.align	3
LEFDE707:
LSFDE709:
	.set L$set$1476,LEFDE709-LASFDE709
	.long L$set$1476
LASFDE709:
	.long	LASFDE709-EH_frame1
	.quad	LFB5434-.
	.set L$set$1477,LFE5434-LFB5434
	.quad L$set$1477
	.uleb128 0x8
	.quad	0
	.byte	0x4
	.set L$set$1478,LCFI767-LFB5434
	.long L$set$1478
	.byte	0xe
	.uleb128 0x30
	.byte	0x9d
	.uleb128 0x6
	.byte	0x9e
	.uleb128 0x5
	.byte	0x4
	.set L$set$1479,LCFI768-LCFI767
	.long L$set$1479
	.byte	0xde
	.byte	0xdd
	.byte	0xe
	.uleb128 0
	.align	3
LEFDE709:
LSFDE711:
	.set L$set$1480,LEFDE711-LASFDE711
	.long L$set$1480
LASFDE711:
	.long	LASFDE711-EH_frame1
	.quad	LFB5436-.
	.set L$set$1481,LFE5436-LFB5436
	.quad L$set$1481
	.uleb128 0x8
	.quad	0
	.byte	0x4
	.set L$set$1482,LCFI769-LFB5436
	.long L$set$1482
	.byte	0xe
	.uleb128 0x10
	.byte	0x4
	.set L$set$1483,LCFI770-LCFI769
	.long L$set$1483
	.byte	0xe
	.uleb128 0
	.align	3
LEFDE711:
LSFDE713:
	.set L$set$1484,LEFDE713-LASFDE713
	.long L$set$1484
LASFDE713:
	.long	LASFDE713-EH_frame1
	.quad	LFB5435-.
	.set L$set$1485,LFE5435-LFB5435
	.quad L$set$1485
	.uleb128 0x8
	.quad	0
	.byte	0x4
	.set L$set$1486,LCFI771-LFB5435
	.long L$set$1486
	.byte	0xe
	.uleb128 0x30
	.byte	0x9d
	.uleb128 0x6
	.byte	0x9e
	.uleb128 0x5
	.byte	0x4
	.set L$set$1487,LCFI772-LCFI771
	.long L$set$1487
	.byte	0xde
	.byte	0xdd
	.byte	0xe
	.uleb128 0
	.align	3
LEFDE713:
LSFDE715:
	.set L$set$1488,LEFDE715-LASFDE715
	.long L$set$1488
LASFDE715:
	.long	LASFDE715-EH_frame1
	.quad	LFB5437-.
	.set L$set$1489,LFE5437-LFB5437
	.quad L$set$1489
	.uleb128 0x8
	.quad	0
	.byte	0x4
	.set L$set$1490,LCFI773-LFB5437
	.long L$set$1490
	.byte	0xe
	.uleb128 0x30
	.byte	0x9d
	.uleb128 0x6
	.byte	0x9e
	.uleb128 0x5
	.byte	0x4
	.set L$set$1491,LCFI774-LCFI773
	.long L$set$1491
	.byte	0x93
	.uleb128 0x4
	.byte	0x4
	.set L$set$1492,LCFI775-LCFI774
	.long L$set$1492
	.byte	0xde
	.byte	0xdd
	.byte	0xd3
	.byte	0xe
	.uleb128 0
	.align	3
LEFDE715:
LSFDE717:
	.set L$set$1493,LEFDE717-LASFDE717
	.long L$set$1493
LASFDE717:
	.long	LASFDE717-EH_frame1
	.quad	LFB5438-.
	.set L$set$1494,LFE5438-LFB5438
	.quad L$set$1494
	.uleb128 0x8
	.quad	0
	.byte	0x4
	.set L$set$1495,LCFI776-LFB5438
	.long L$set$1495
	.byte	0xe
	.uleb128 0x10
	.byte	0x4
	.set L$set$1496,LCFI777-LCFI776
	.long L$set$1496
	.byte	0xe
	.uleb128 0
	.align	3
LEFDE717:
LSFDE719:
	.set L$set$1497,LEFDE719-LASFDE719
	.long L$set$1497
LASFDE719:
	.long	LASFDE719-EH_frame1
	.quad	LFB5439-.
	.set L$set$1498,LFE5439-LFB5439
	.quad L$set$1498
	.uleb128 0x8
	.quad	0
	.byte	0x4
	.set L$set$1499,LCFI778-LFB5439
	.long L$set$1499
	.byte	0xe
	.uleb128 0x10
	.byte	0x4
	.set L$set$1500,LCFI779-LCFI778
	.long L$set$1500
	.byte	0xe
	.uleb128 0
	.align	3
LEFDE719:
LSFDE721:
	.set L$set$1501,LEFDE721-LASFDE721
	.long L$set$1501
LASFDE721:
	.long	LASFDE721-EH_frame1
	.quad	LFB5441-.
	.set L$set$1502,LFE5441-LFB5441
	.quad L$set$1502
	.uleb128 0x8
	.quad	0
	.byte	0x4
	.set L$set$1503,LCFI780-LFB5441
	.long L$set$1503
	.byte	0xe
	.uleb128 0x10
	.byte	0x4
	.set L$set$1504,LCFI781-LCFI780
	.long L$set$1504
	.byte	0xe
	.uleb128 0
	.align	3
LEFDE721:
LSFDE723:
	.set L$set$1505,LEFDE723-LASFDE723
	.long L$set$1505
LASFDE723:
	.long	LASFDE723-EH_frame1
	.quad	LFB5443-.
	.set L$set$1506,LFE5443-LFB5443
	.quad L$set$1506
	.uleb128 0x8
	.quad	0
	.byte	0x4
	.set L$set$1507,LCFI782-LFB5443
	.long L$set$1507
	.byte	0xe
	.uleb128 0x30
	.byte	0x9d
	.uleb128 0x6
	.byte	0x9e
	.uleb128 0x5
	.byte	0x4
	.set L$set$1508,LCFI783-LCFI782
	.long L$set$1508
	.byte	0xde
	.byte	0xdd
	.byte	0xe
	.uleb128 0
	.align	3
LEFDE723:
LSFDE725:
	.set L$set$1509,LEFDE725-LASFDE725
	.long L$set$1509
LASFDE725:
	.long	LASFDE725-EH_frame1
	.quad	LFB5445-.
	.set L$set$1510,LFE5445-LFB5445
	.quad L$set$1510
	.uleb128 0x8
	.quad	0
	.byte	0x4
	.set L$set$1511,LCFI784-LFB5445
	.long L$set$1511
	.byte	0xe
	.uleb128 0x10
	.byte	0x4
	.set L$set$1512,LCFI785-LCFI784
	.long L$set$1512
	.byte	0xe
	.uleb128 0
	.align	3
LEFDE725:
LSFDE727:
	.set L$set$1513,LEFDE727-LASFDE727
	.long L$set$1513
LASFDE727:
	.long	LASFDE727-EH_frame1
	.quad	LFB5447-.
	.set L$set$1514,LFE5447-LFB5447
	.quad L$set$1514
	.uleb128 0x8
	.quad	0
	.byte	0x4
	.set L$set$1515,LCFI786-LFB5447
	.long L$set$1515
	.byte	0xe
	.uleb128 0x20
	.byte	0x9d
	.uleb128 0x4
	.byte	0x9e
	.uleb128 0x3
	.byte	0x4
	.set L$set$1516,LCFI787-LCFI786
	.long L$set$1516
	.byte	0xde
	.byte	0xdd
	.byte	0xe
	.uleb128 0
	.align	3
LEFDE727:
LSFDE729:
	.set L$set$1517,LEFDE729-LASFDE729
	.long L$set$1517
LASFDE729:
	.long	LASFDE729-EH_frame1
	.quad	LFB5448-.
	.set L$set$1518,LFE5448-LFB5448
	.quad L$set$1518
	.uleb128 0x8
	.quad	0
	.byte	0x4
	.set L$set$1519,LCFI788-LFB5448
	.long L$set$1519
	.byte	0xe
	.uleb128 0x10
	.byte	0x4
	.set L$set$1520,LCFI789-LCFI788
	.long L$set$1520
	.byte	0xe
	.uleb128 0
	.align	3
LEFDE729:
LSFDE731:
	.set L$set$1521,LEFDE731-LASFDE731
	.long L$set$1521
LASFDE731:
	.long	LASFDE731-EH_frame1
	.quad	LFB5449-.
	.set L$set$1522,LFE5449-LFB5449
	.quad L$set$1522
	.uleb128 0x8
	.quad	0
	.byte	0x4
	.set L$set$1523,LCFI790-LFB5449
	.long L$set$1523
	.byte	0xe
	.uleb128 0x10
	.byte	0x4
	.set L$set$1524,LCFI791-LCFI790
	.long L$set$1524
	.byte	0xe
	.uleb128 0
	.align	3
LEFDE731:
LSFDE733:
	.set L$set$1525,LEFDE733-LASFDE733
	.long L$set$1525
LASFDE733:
	.long	LASFDE733-EH_frame1
	.quad	LFB5450-.
	.set L$set$1526,LFE5450-LFB5450
	.quad L$set$1526
	.uleb128 0x8
	.quad	0
	.byte	0x4
	.set L$set$1527,LCFI792-LFB5450
	.long L$set$1527
	.byte	0xe
	.uleb128 0x40
	.byte	0x9d
	.uleb128 0x8
	.byte	0x9e
	.uleb128 0x7
	.byte	0x4
	.set L$set$1528,LCFI793-LCFI792
	.long L$set$1528
	.byte	0x93
	.uleb128 0x6
	.byte	0x4
	.set L$set$1529,LCFI794-LCFI793
	.long L$set$1529
	.byte	0xde
	.byte	0xdd
	.byte	0xd3
	.byte	0xe
	.uleb128 0
	.align	3
LEFDE733:
LSFDE735:
	.set L$set$1530,LEFDE735-LASFDE735
	.long L$set$1530
LASFDE735:
	.long	LASFDE735-EH_frame1
	.quad	LFB5451-.
	.set L$set$1531,LFE5451-LFB5451
	.quad L$set$1531
	.uleb128 0x8
	.quad	0
	.byte	0x4
	.set L$set$1532,LCFI795-LFB5451
	.long L$set$1532
	.byte	0xe
	.uleb128 0x10
	.byte	0x4
	.set L$set$1533,LCFI796-LCFI795
	.long L$set$1533
	.byte	0xe
	.uleb128 0
	.align	3
LEFDE735:
LSFDE737:
	.set L$set$1534,LEFDE737-LASFDE737
	.long L$set$1534
LASFDE737:
	.long	LASFDE737-EH_frame1
	.quad	LFB5452-.
	.set L$set$1535,LFE5452-LFB5452
	.quad L$set$1535
	.uleb128 0x8
	.quad	0
	.byte	0x4
	.set L$set$1536,LCFI797-LFB5452
	.long L$set$1536
	.byte	0xe
	.uleb128 0x20
	.byte	0x9d
	.uleb128 0x4
	.byte	0x9e
	.uleb128 0x3
	.byte	0x4
	.set L$set$1537,LCFI798-LCFI797
	.long L$set$1537
	.byte	0xde
	.byte	0xdd
	.byte	0xe
	.uleb128 0
	.align	3
LEFDE737:
LSFDE739:
	.set L$set$1538,LEFDE739-LASFDE739
	.long L$set$1538
LASFDE739:
	.long	LASFDE739-EH_frame1
	.quad	LFB5453-.
	.set L$set$1539,LFE5453-LFB5453
	.quad L$set$1539
	.uleb128 0x8
	.quad	0
	.byte	0x4
	.set L$set$1540,LCFI799-LFB5453
	.long L$set$1540
	.byte	0xe
	.uleb128 0x10
	.byte	0x9d
	.uleb128 0x2
	.byte	0x9e
	.uleb128 0x1
	.byte	0x4
	.set L$set$1541,LCFI800-LCFI799
	.long L$set$1541
	.byte	0xde
	.byte	0xdd
	.byte	0xe
	.uleb128 0
	.align	3
LEFDE739:
	.private_extern ___dso_handle
	.ident	"GCC: (Homebrew GCC 11.2.0_3) 11.2.0"
	.mod_init_func
_Mod.init:
	.align	3
	.xword	__GLOBAL__sub_I_cache.cpp
	.subsections_via_symbols
